
application0.OR1K.elf:     file format elf32-or32

Disassembly of section .text:

00000000 <_start-0x100>:
	...

00000100 <_start>:
     100:	9c 40 00 00 	l.addi r2,r0,0x0
     104:	9c 60 00 00 	l.addi r3,r0,0x0
     108:	9c 80 00 00 	l.addi r4,r0,0x0
     10c:	9c a0 00 00 	l.addi r5,r0,0x0
     110:	9c c0 00 00 	l.addi r6,r0,0x0
     114:	9c e0 00 00 	l.addi r7,r0,0x0
     118:	9d 00 00 00 	l.addi r8,r0,0x0
     11c:	9d 20 00 00 	l.addi r9,r0,0x0
     120:	9d 40 00 00 	l.addi r10,r0,0x0
     124:	9d 60 00 00 	l.addi r11,r0,0x0
     128:	9d 80 00 00 	l.addi r12,r0,0x0
     12c:	9d a0 00 00 	l.addi r13,r0,0x0
     130:	9d c0 00 00 	l.addi r14,r0,0x0
     134:	9d e0 00 00 	l.addi r15,r0,0x0
     138:	9e 00 00 00 	l.addi r16,r0,0x0
     13c:	9e 20 00 00 	l.addi r17,r0,0x0
     140:	9e 40 00 00 	l.addi r18,r0,0x0
     144:	9e 60 00 00 	l.addi r19,r0,0x0
     148:	9e 80 00 00 	l.addi r20,r0,0x0
     14c:	9e a0 00 00 	l.addi r21,r0,0x0
     150:	9e c0 00 00 	l.addi r22,r0,0x0
     154:	9e e0 00 00 	l.addi r23,r0,0x0
     158:	9f 00 00 00 	l.addi r24,r0,0x0
     15c:	9f 20 00 00 	l.addi r25,r0,0x0
     160:	9f 40 00 00 	l.addi r26,r0,0x0
     164:	9f 60 00 00 	l.addi r27,r0,0x0
     168:	9f 80 00 00 	l.addi r28,r0,0x0
     16c:	9f a0 00 00 	l.addi r29,r0,0x0
     170:	9f c0 00 00 	l.addi r30,r0,0x0
     174:	9f e0 00 00 	l.addi r31,r0,0x0
     178:	18 20 ff ff 	l.movhi r1,0xffff
     17c:	a8 21 ff fc 	l.ori r1,r1,0xfffc
     180:	18 40 00 00 	l.movhi r2,0x0
     184:	a8 42 42 c0 	l.ori r2,r2,0x42c0
     188:	44 00 10 00 	l.jr r2
     18c:	15 00 00 00 	l.nop 0x0
	...

00000200 <_buserr_vector>:
     200:	9c 21 ff 88 	l.addi r1,r1,0xffffff88
     204:	d4 01 48 1c 	l.sw 0x1c(r1),r9
     208:	d4 01 50 20 	l.sw 0x20(r1),r10
     20c:	19 20 00 00 	l.movhi r9,0x0
     210:	a9 29 0e 24 	l.ori r9,r9,0xe24
     214:	19 40 00 01 	l.movhi r10,0x1
     218:	a9 4a 27 e8 	l.ori r10,r10,0x27e8
     21c:	44 00 48 00 	l.jr r9
     220:	15 00 00 00 	l.nop 0x0

00000224 <_buserr_vector_end>:
	...

00000300 <_dpfault_vector>:
     300:	9c 21 ff 88 	l.addi r1,r1,0xffffff88
     304:	d4 01 48 1c 	l.sw 0x1c(r1),r9
     308:	d4 01 50 20 	l.sw 0x20(r1),r10
     30c:	19 20 00 00 	l.movhi r9,0x0
     310:	a9 29 0e 24 	l.ori r9,r9,0xe24
     314:	19 40 00 01 	l.movhi r10,0x1
     318:	a9 4a 27 e8 	l.ori r10,r10,0x27e8
     31c:	44 00 48 00 	l.jr r9
     320:	15 00 00 00 	l.nop 0x0

00000324 <_dpfault_vector_end>:
	...

00000400 <_ipfault_vector>:
     400:	9c 21 ff 88 	l.addi r1,r1,0xffffff88
     404:	d4 01 48 1c 	l.sw 0x1c(r1),r9
     408:	d4 01 50 20 	l.sw 0x20(r1),r10
     40c:	19 20 00 00 	l.movhi r9,0x0
     410:	a9 29 0e 24 	l.ori r9,r9,0xe24
     414:	19 40 00 01 	l.movhi r10,0x1
     418:	a9 4a 27 e8 	l.ori r10,r10,0x27e8
     41c:	44 00 48 00 	l.jr r9
     420:	15 00 00 00 	l.nop 0x0

00000424 <_ipfault_vector_end>:
	...

00000500 <_lpint_vector>:
     500:	9c 21 ff 88 	l.addi r1,r1,0xffffff88
     504:	d4 01 48 1c 	l.sw 0x1c(r1),r9
     508:	d4 01 50 20 	l.sw 0x20(r1),r10
     50c:	19 20 00 00 	l.movhi r9,0x0
     510:	a9 29 0e 24 	l.ori r9,r9,0xe24
     514:	19 40 00 01 	l.movhi r10,0x1
     518:	a9 4a 27 e8 	l.ori r10,r10,0x27e8
     51c:	44 00 48 00 	l.jr r9
     520:	15 00 00 00 	l.nop 0x0

00000524 <_lpint_vector_end>:
	...

00000600 <_align_vector>:
     600:	9c 21 ff 88 	l.addi r1,r1,0xffffff88
     604:	d4 01 48 1c 	l.sw 0x1c(r1),r9
     608:	d4 01 50 20 	l.sw 0x20(r1),r10
     60c:	19 20 00 00 	l.movhi r9,0x0
     610:	a9 29 0e 24 	l.ori r9,r9,0xe24
     614:	19 40 00 01 	l.movhi r10,0x1
     618:	a9 4a 27 e8 	l.ori r10,r10,0x27e8
     61c:	44 00 48 00 	l.jr r9
     620:	15 00 00 00 	l.nop 0x0

00000624 <_align_vector_end>:
	...

00000700 <_illinsn_vector>:
     700:	9c 21 ff 88 	l.addi r1,r1,0xffffff88
     704:	d4 01 48 1c 	l.sw 0x1c(r1),r9
     708:	d4 01 50 20 	l.sw 0x20(r1),r10
     70c:	19 20 00 00 	l.movhi r9,0x0
     710:	a9 29 0e 24 	l.ori r9,r9,0xe24
     714:	19 40 00 01 	l.movhi r10,0x1
     718:	a9 4a 27 e8 	l.ori r10,r10,0x27e8
     71c:	44 00 48 00 	l.jr r9
     720:	15 00 00 00 	l.nop 0x0

00000724 <_illinsn_vector_end>:
	...

00000800 <_hpint_vector>:
     800:	9c 21 ff 88 	l.addi r1,r1,0xffffff88
     804:	d4 01 48 1c 	l.sw 0x1c(r1),r9
     808:	d4 01 50 20 	l.sw 0x20(r1),r10
     80c:	19 20 00 00 	l.movhi r9,0x0
     810:	a9 29 0e 24 	l.ori r9,r9,0xe24
     814:	19 40 00 01 	l.movhi r10,0x1
     818:	a9 4a 27 f4 	l.ori r10,r10,0x27f4
     81c:	44 00 48 00 	l.jr r9
     820:	15 00 00 00 	l.nop 0x0

00000824 <_hpint_vector_end>:
	...

00000900 <_dtlbmiss_vector>:
     900:	9c 21 ff 88 	l.addi r1,r1,0xffffff88
     904:	d4 01 48 1c 	l.sw 0x1c(r1),r9
     908:	d4 01 50 20 	l.sw 0x20(r1),r10
     90c:	19 20 00 00 	l.movhi r9,0x0
     910:	a9 29 0e 24 	l.ori r9,r9,0xe24
     914:	19 40 00 01 	l.movhi r10,0x1
     918:	a9 4a 27 e8 	l.ori r10,r10,0x27e8
     91c:	44 00 48 00 	l.jr r9
     920:	15 00 00 00 	l.nop 0x0

00000924 <_dtlbmiss_vector_end>:
	...

00000a00 <_itlbmiss_vector>:
     a00:	9c 21 ff 88 	l.addi r1,r1,0xffffff88
     a04:	d4 01 48 1c 	l.sw 0x1c(r1),r9
     a08:	d4 01 50 20 	l.sw 0x20(r1),r10
     a0c:	19 20 00 00 	l.movhi r9,0x0
     a10:	a9 29 0e 24 	l.ori r9,r9,0xe24
     a14:	19 40 00 01 	l.movhi r10,0x1
     a18:	a9 4a 27 e8 	l.ori r10,r10,0x27e8
     a1c:	44 00 48 00 	l.jr r9
     a20:	15 00 00 00 	l.nop 0x0

00000a24 <_itlbmiss_vector_end>:
	...

00000b00 <_range_vector>:
     b00:	9c 21 ff 88 	l.addi r1,r1,0xffffff88
     b04:	d4 01 48 1c 	l.sw 0x1c(r1),r9
     b08:	d4 01 50 20 	l.sw 0x20(r1),r10
     b0c:	19 20 00 00 	l.movhi r9,0x0
     b10:	a9 29 0e 24 	l.ori r9,r9,0xe24
     b14:	19 40 00 01 	l.movhi r10,0x1
     b18:	a9 4a 27 e8 	l.ori r10,r10,0x27e8
     b1c:	44 00 48 00 	l.jr r9
     b20:	15 00 00 00 	l.nop 0x0

00000b24 <_range_vector_end>:
	...

00000c00 <_syscall_vector>:
     c00:	9c 21 ff 88 	l.addi r1,r1,0xffffff88
     c04:	d4 01 48 1c 	l.sw 0x1c(r1),r9
     c08:	d4 01 50 20 	l.sw 0x20(r1),r10
     c0c:	19 20 00 00 	l.movhi r9,0x0
     c10:	a9 29 0e 24 	l.ori r9,r9,0xe24
     c14:	19 40 00 01 	l.movhi r10,0x1
     c18:	a9 4a 27 e8 	l.ori r10,r10,0x27e8
     c1c:	44 00 48 00 	l.jr r9
     c20:	15 00 00 00 	l.nop 0x0

00000c24 <_syscall_vector_end>:
	...

00000d00 <_break_vector>:
     d00:	9c 21 ff 88 	l.addi r1,r1,0xffffff88
     d04:	d4 01 48 1c 	l.sw 0x1c(r1),r9
     d08:	d4 01 50 20 	l.sw 0x20(r1),r10
     d0c:	19 20 00 00 	l.movhi r9,0x0
     d10:	a9 29 0e 24 	l.ori r9,r9,0xe24
     d14:	19 40 00 01 	l.movhi r10,0x1
     d18:	a9 4a 27 e8 	l.ori r10,r10,0x27e8
     d1c:	44 00 48 00 	l.jr r9
     d20:	15 00 00 00 	l.nop 0x0

00000d24 <_break_vector_end>:
	...

00000e00 <_trap_vector>:
     e00:	9c 21 ff 88 	l.addi r1,r1,0xffffff88
     e04:	d4 01 48 1c 	l.sw 0x1c(r1),r9
     e08:	d4 01 50 20 	l.sw 0x20(r1),r10
     e0c:	19 20 00 00 	l.movhi r9,0x0
     e10:	a9 29 0e 24 	l.ori r9,r9,0xe24
     e14:	19 40 00 01 	l.movhi r10,0x1
     e18:	a9 4a 27 e8 	l.ori r10,r10,0x27e8
     e1c:	44 00 48 00 	l.jr r9
     e20:	15 00 00 00 	l.nop 0x0

00000e24 <_trap_vector_end>:
     e24:	d4 01 10 00 	l.sw 0x0(r1),r2
     e28:	d4 01 18 04 	l.sw 0x4(r1),r3
     e2c:	d4 01 20 08 	l.sw 0x8(r1),r4
     e30:	d4 01 28 0c 	l.sw 0xc(r1),r5
     e34:	d4 01 30 10 	l.sw 0x10(r1),r6
     e38:	d4 01 38 14 	l.sw 0x14(r1),r7
     e3c:	d4 01 40 18 	l.sw 0x18(r1),r8
     e40:	d4 01 58 24 	l.sw 0x24(r1),r11
     e44:	d4 01 60 28 	l.sw 0x28(r1),r12
     e48:	d4 01 68 2c 	l.sw 0x2c(r1),r13
     e4c:	d4 01 70 30 	l.sw 0x30(r1),r14
     e50:	d4 01 78 34 	l.sw 0x34(r1),r15
     e54:	d4 01 80 38 	l.sw 0x38(r1),r16
     e58:	d4 01 88 3c 	l.sw 0x3c(r1),r17
     e5c:	d4 01 90 40 	l.sw 0x40(r1),r18
     e60:	d4 01 98 44 	l.sw 0x44(r1),r19
     e64:	d4 01 a0 48 	l.sw 0x48(r1),r20
     e68:	d4 01 a8 4c 	l.sw 0x4c(r1),r21
     e6c:	d4 01 b0 50 	l.sw 0x50(r1),r22
     e70:	d4 01 b8 54 	l.sw 0x54(r1),r23
     e74:	d4 01 c0 58 	l.sw 0x58(r1),r24
     e78:	d4 01 c8 5c 	l.sw 0x5c(r1),r25
     e7c:	d4 01 d0 60 	l.sw 0x60(r1),r26
     e80:	d4 01 d8 64 	l.sw 0x64(r1),r27
     e84:	d4 01 e0 68 	l.sw 0x68(r1),r28
     e88:	d4 01 e8 6c 	l.sw 0x6c(r1),r29
     e8c:	d4 01 f0 70 	l.sw 0x70(r1),r30
     e90:	d4 01 f8 74 	l.sw 0x74(r1),r31
     e94:	19 20 00 00 	l.movhi r9,0x0
     e98:	a9 29 0e a8 	l.ori r9,r9,0xea8
     e9c:	85 4a 00 00 	l.lwz r10,0x0(r10)
     ea0:	44 00 50 00 	l.jr r10
     ea4:	15 00 00 00 	l.nop 0x0

00000ea8 <end_except>:
     ea8:	84 41 00 00 	l.lwz r2,0x0(r1)
     eac:	84 61 00 04 	l.lwz r3,0x4(r1)
     eb0:	84 81 00 08 	l.lwz r4,0x8(r1)
     eb4:	84 a1 00 0c 	l.lwz r5,0xc(r1)
     eb8:	84 c1 00 10 	l.lwz r6,0x10(r1)
     ebc:	84 e1 00 14 	l.lwz r7,0x14(r1)
     ec0:	85 01 00 18 	l.lwz r8,0x18(r1)
     ec4:	85 21 00 1c 	l.lwz r9,0x1c(r1)
     ec8:	85 41 00 20 	l.lwz r10,0x20(r1)
     ecc:	85 61 00 24 	l.lwz r11,0x24(r1)
     ed0:	85 81 00 28 	l.lwz r12,0x28(r1)
     ed4:	85 a1 00 2c 	l.lwz r13,0x2c(r1)
     ed8:	85 c1 00 30 	l.lwz r14,0x30(r1)
     edc:	85 e1 00 34 	l.lwz r15,0x34(r1)
     ee0:	86 01 00 38 	l.lwz r16,0x38(r1)
     ee4:	86 21 00 3c 	l.lwz r17,0x3c(r1)
     ee8:	86 41 00 40 	l.lwz r18,0x40(r1)
     eec:	86 61 00 44 	l.lwz r19,0x44(r1)
     ef0:	86 81 00 48 	l.lwz r20,0x48(r1)
     ef4:	86 a1 00 4c 	l.lwz r21,0x4c(r1)
     ef8:	86 c1 00 50 	l.lwz r22,0x50(r1)
     efc:	86 e1 00 54 	l.lwz r23,0x54(r1)
     f00:	87 01 00 58 	l.lwz r24,0x58(r1)
     f04:	87 21 00 5c 	l.lwz r25,0x5c(r1)
     f08:	87 41 00 60 	l.lwz r26,0x60(r1)
     f0c:	87 61 00 64 	l.lwz r27,0x64(r1)
     f10:	87 81 00 68 	l.lwz r28,0x68(r1)
     f14:	87 a1 00 6c 	l.lwz r29,0x6c(r1)
     f18:	87 c1 00 70 	l.lwz r30,0x70(r1)
     f1c:	87 e1 00 74 	l.lwz r31,0x74(r1)
     f20:	9c 21 00 78 	l.addi r1,r1,0x78
     f24:	24 00 00 00 	l.rfe 
     f28:	15 00 00 00 	l.nop 0x0

00000f2c <_ResetExecutedInstructions>:
     f2c:	9c 21 ff fc 	l.addi r1,r1,0xfffffffc
     f30:	d4 01 10 00 	l.sw 0x0(r1),r2
     f34:	9c 41 00 04 	l.addi r2,r1,0x4
     f38:	18 60 00 01 	l.movhi r3,0x1
     f3c:	a8 63 27 9c 	l.ori r3,r3,0x279c
     f40:	84 83 00 00 	l.lwz r4,0x0(r3)
     f44:	18 60 00 01 	l.movhi r3,0x1
     f48:	a8 63 27 98 	l.ori r3,r3,0x2798
     f4c:	84 a3 00 00 	l.lwz r5,0x0(r3)
     f50:	9c 60 00 00 	l.addi r3,r0,0x0
     f54:	d4 04 18 00 	l.sw 0x0(r4),r3
     f58:	18 60 00 01 	l.movhi r3,0x1
     f5c:	a8 63 27 94 	l.ori r3,r3,0x2794
     f60:	84 83 00 00 	l.lwz r4,0x0(r3)
     f64:	9c 60 00 00 	l.addi r3,r0,0x0
     f68:	d4 05 18 00 	l.sw 0x0(r5),r3
     f6c:	18 60 00 01 	l.movhi r3,0x1
     f70:	a8 63 27 90 	l.ori r3,r3,0x2790
     f74:	84 a3 00 00 	l.lwz r5,0x0(r3)
     f78:	9c 60 00 00 	l.addi r3,r0,0x0
     f7c:	d4 04 18 00 	l.sw 0x0(r4),r3
     f80:	18 60 00 01 	l.movhi r3,0x1
     f84:	a8 63 27 8c 	l.ori r3,r3,0x278c
     f88:	84 83 00 00 	l.lwz r4,0x0(r3)
     f8c:	9c 60 00 00 	l.addi r3,r0,0x0
     f90:	d4 05 18 00 	l.sw 0x0(r5),r3
     f94:	18 60 00 01 	l.movhi r3,0x1
     f98:	a8 63 27 88 	l.ori r3,r3,0x2788
     f9c:	84 a3 00 00 	l.lwz r5,0x0(r3)
     fa0:	9c 60 00 00 	l.addi r3,r0,0x0
     fa4:	d4 04 18 00 	l.sw 0x0(r4),r3
     fa8:	18 60 00 01 	l.movhi r3,0x1
     fac:	a8 63 27 84 	l.ori r3,r3,0x2784
     fb0:	84 83 00 00 	l.lwz r4,0x0(r3)
     fb4:	9c 60 00 00 	l.addi r3,r0,0x0
     fb8:	d4 05 18 00 	l.sw 0x0(r5),r3
     fbc:	18 60 00 01 	l.movhi r3,0x1
     fc0:	a8 63 27 80 	l.ori r3,r3,0x2780
     fc4:	84 a3 00 00 	l.lwz r5,0x0(r3)
     fc8:	9c 60 00 00 	l.addi r3,r0,0x0
     fcc:	d4 04 18 00 	l.sw 0x0(r4),r3
     fd0:	18 60 00 01 	l.movhi r3,0x1
     fd4:	a8 63 27 7c 	l.ori r3,r3,0x277c
     fd8:	9c 80 00 00 	l.addi r4,r0,0x0
     fdc:	84 c3 00 00 	l.lwz r6,0x0(r3)
     fe0:	d4 05 20 00 	l.sw 0x0(r5),r4
     fe4:	18 60 00 01 	l.movhi r3,0x1
     fe8:	a8 63 27 78 	l.ori r3,r3,0x2778
     fec:	84 83 00 00 	l.lwz r4,0x0(r3)
     ff0:	9c 60 00 00 	l.addi r3,r0,0x0
     ff4:	d4 06 18 00 	l.sw 0x0(r6),r3
     ff8:	18 60 00 01 	l.movhi r3,0x1
     ffc:	a8 63 27 74 	l.ori r3,r3,0x2774
    1000:	84 a3 00 00 	l.lwz r5,0x0(r3)
    1004:	9c 60 00 00 	l.addi r3,r0,0x0
    1008:	d4 04 18 00 	l.sw 0x0(r4),r3
    100c:	18 60 00 01 	l.movhi r3,0x1
    1010:	a8 63 27 70 	l.ori r3,r3,0x2770
    1014:	9c 80 00 00 	l.addi r4,r0,0x0
    1018:	84 63 00 00 	l.lwz r3,0x0(r3)
    101c:	d4 05 20 00 	l.sw 0x0(r5),r4
    1020:	d4 03 20 00 	l.sw 0x0(r3),r4
    1024:	84 41 00 00 	l.lwz r2,0x0(r1)
    1028:	44 00 48 00 	l.jr r9
    102c:	9c 21 00 04 	l.addi r1,r1,0x4

00001030 <_read_class_inst>:
    1030:	9c 21 ff f8 	l.addi r1,r1,0xfffffff8
    1034:	d4 01 10 04 	l.sw 0x4(r1),r2
    1038:	9c 41 00 08 	l.addi r2,r1,0x8
    103c:	d4 01 48 00 	l.sw 0x0(r1),r9
    1040:	18 60 00 01 	l.movhi r3,0x1
    1044:	a8 63 27 94 	l.ori r3,r3,0x2794
    1048:	84 83 00 00 	l.lwz r4,0x0(r3)
    104c:	18 60 00 01 	l.movhi r3,0x1
    1050:	a8 63 27 78 	l.ori r3,r3,0x2778
    1054:	84 84 00 00 	l.lwz r4,0x0(r4)
    1058:	84 a3 00 00 	l.lwz r5,0x0(r3)
    105c:	18 60 00 01 	l.movhi r3,0x1
    1060:	a8 63 46 28 	l.ori r3,r3,0x4628
    1064:	d4 03 20 00 	l.sw 0x0(r3),r4
    1068:	18 60 00 01 	l.movhi r3,0x1
    106c:	a8 63 27 98 	l.ori r3,r3,0x2798
    1070:	84 a5 00 00 	l.lwz r5,0x0(r5)
    1074:	84 83 00 00 	l.lwz r4,0x0(r3)
    1078:	18 60 00 01 	l.movhi r3,0x1
    107c:	a8 63 44 d4 	l.ori r3,r3,0x44d4
    1080:	d4 03 28 00 	l.sw 0x0(r3),r5
    1084:	18 60 00 01 	l.movhi r3,0x1
    1088:	a8 63 27 90 	l.ori r3,r3,0x2790
    108c:	84 84 00 00 	l.lwz r4,0x0(r4)
    1090:	84 a3 00 00 	l.lwz r5,0x0(r3)
    1094:	18 60 00 01 	l.movhi r3,0x1
    1098:	a8 63 80 1c 	l.ori r3,r3,0x801c
    109c:	d4 03 20 00 	l.sw 0x0(r3),r4
    10a0:	18 60 00 01 	l.movhi r3,0x1
    10a4:	a8 63 27 8c 	l.ori r3,r3,0x278c
    10a8:	84 a5 00 00 	l.lwz r5,0x0(r5)
    10ac:	84 83 00 00 	l.lwz r4,0x0(r3)
    10b0:	18 60 00 01 	l.movhi r3,0x1
    10b4:	a8 63 3a 28 	l.ori r3,r3,0x3a28
    10b8:	d4 03 28 00 	l.sw 0x0(r3),r5
    10bc:	18 60 00 01 	l.movhi r3,0x1
    10c0:	a8 63 27 88 	l.ori r3,r3,0x2788
    10c4:	84 84 00 00 	l.lwz r4,0x0(r4)
    10c8:	84 a3 00 00 	l.lwz r5,0x0(r3)
    10cc:	18 60 00 01 	l.movhi r3,0x1
    10d0:	a8 63 3a 24 	l.ori r3,r3,0x3a24
    10d4:	d4 03 20 00 	l.sw 0x0(r3),r4
    10d8:	18 60 00 01 	l.movhi r3,0x1
    10dc:	a8 63 27 84 	l.ori r3,r3,0x2784
    10e0:	84 a5 00 00 	l.lwz r5,0x0(r5)
    10e4:	84 83 00 00 	l.lwz r4,0x0(r3)
    10e8:	18 60 00 01 	l.movhi r3,0x1
    10ec:	a8 63 3a 20 	l.ori r3,r3,0x3a20
    10f0:	d4 03 28 00 	l.sw 0x0(r3),r5
    10f4:	18 60 00 01 	l.movhi r3,0x1
    10f8:	a8 63 27 80 	l.ori r3,r3,0x2780
    10fc:	84 84 00 00 	l.lwz r4,0x0(r4)
    1100:	84 a3 00 00 	l.lwz r5,0x0(r3)
    1104:	18 60 00 01 	l.movhi r3,0x1
    1108:	a8 63 46 34 	l.ori r3,r3,0x4634
    110c:	d4 03 20 00 	l.sw 0x0(r3),r4
    1110:	18 60 00 01 	l.movhi r3,0x1
    1114:	a8 63 27 7c 	l.ori r3,r3,0x277c
    1118:	84 a5 00 00 	l.lwz r5,0x0(r5)
    111c:	84 83 00 00 	l.lwz r4,0x0(r3)
    1120:	18 60 00 01 	l.movhi r3,0x1
    1124:	a8 63 30 88 	l.ori r3,r3,0x3088
    1128:	d4 03 28 00 	l.sw 0x0(r3),r5
    112c:	18 60 00 01 	l.movhi r3,0x1
    1130:	a8 63 27 74 	l.ori r3,r3,0x2774
    1134:	84 84 00 00 	l.lwz r4,0x0(r4)
    1138:	84 a3 00 00 	l.lwz r5,0x0(r3)
    113c:	18 60 00 01 	l.movhi r3,0x1
    1140:	a8 63 30 80 	l.ori r3,r3,0x3080
    1144:	d4 03 20 00 	l.sw 0x0(r3),r4
    1148:	18 60 00 01 	l.movhi r3,0x1
    114c:	a8 63 27 70 	l.ori r3,r3,0x2770
    1150:	84 a5 00 00 	l.lwz r5,0x0(r5)
    1154:	84 83 00 00 	l.lwz r4,0x0(r3)
    1158:	18 60 00 01 	l.movhi r3,0x1
    115c:	a8 63 82 c4 	l.ori r3,r3,0x82c4
    1160:	d4 03 28 00 	l.sw 0x0(r3),r5
    1164:	84 84 00 00 	l.lwz r4,0x0(r4)
    1168:	18 60 00 01 	l.movhi r3,0x1
    116c:	a8 63 76 84 	l.ori r3,r3,0x7684
    1170:	07 ff ff 6f 	l.jal f2c <_ResetExecutedInstructions>
    1174:	d4 03 20 00 	l.sw 0x0(r3),r4
    1178:	85 21 00 00 	l.lwz r9,0x0(r1)
    117c:	84 41 00 04 	l.lwz r2,0x4(r1)
    1180:	44 00 48 00 	l.jr r9
    1184:	9c 21 00 08 	l.addi r1,r1,0x8

00001188 <_estimateNoCActivity>:
    1188:	9c 21 ff f0 	l.addi r1,r1,0xfffffff0
    118c:	d4 01 10 04 	l.sw 0x4(r1),r2
    1190:	9c 41 00 10 	l.addi r2,r1,0x10
    1194:	d4 01 48 00 	l.sw 0x0(r1),r9
    1198:	d4 01 50 08 	l.sw 0x8(r1),r10
    119c:	d4 01 60 0c 	l.sw 0xc(r1),r12
    11a0:	18 60 00 01 	l.movhi r3,0x1
    11a4:	a8 63 27 68 	l.ori r3,r3,0x2768
    11a8:	1b e0 00 01 	l.movhi r31,0x1
    11ac:	ab ff 27 40 	l.ori r31,r31,0x2740
    11b0:	85 e3 00 00 	l.lwz r15,0x0(r3)
    11b4:	1b 60 00 01 	l.movhi r27,0x1
    11b8:	ab 7b 27 30 	l.ori r27,r27,0x2730
    11bc:	1b 20 00 01 	l.movhi r25,0x1
    11c0:	ab 39 27 10 	l.ori r25,r25,0x2710
    11c4:	84 6f 00 00 	l.lwz r3,0x0(r15)
    11c8:	1a a0 00 01 	l.movhi r21,0x1
    11cc:	aa b5 27 00 	l.ori r21,r21,0x2700
    11d0:	1a 60 00 01 	l.movhi r19,0x1
    11d4:	aa 73 27 20 	l.ori r19,r19,0x2720
    11d8:	84 9f 00 00 	l.lwz r4,0x0(r31)
    11dc:	19 80 00 01 	l.movhi r12,0x1
    11e0:	a9 8c 27 44 	l.ori r12,r12,0x2744
    11e4:	19 40 00 01 	l.movhi r10,0x1
    11e8:	a9 4a 27 34 	l.ori r10,r10,0x2734
    11ec:	e0 a3 20 02 	l.sub r5,r3,r4
    11f0:	1b a0 00 01 	l.movhi r29,0x1
    11f4:	ab bd 27 14 	l.ori r29,r29,0x2714
    11f8:	18 60 00 01 	l.movhi r3,0x1
    11fc:	a8 63 27 60 	l.ori r3,r3,0x2760
    1200:	84 9b 00 00 	l.lwz r4,0x0(r27)
    1204:	1a e0 00 01 	l.movhi r23,0x1
    1208:	aa f7 27 04 	l.ori r23,r23,0x2704
    120c:	1a 20 00 01 	l.movhi r17,0x1
    1210:	aa 31 27 24 	l.ori r17,r17,0x2724
    1214:	85 23 00 00 	l.lwz r9,0x0(r3)
    1218:	18 60 00 01 	l.movhi r3,0x1
    121c:	a8 63 27 3c 	l.ori r3,r3,0x273c
    1220:	d4 03 28 00 	l.sw 0x0(r3),r5
    1224:	84 69 00 00 	l.lwz r3,0x0(r9)
    1228:	e0 83 20 02 	l.sub r4,r3,r4
    122c:	18 60 00 01 	l.movhi r3,0x1
    1230:	a8 63 27 50 	l.ori r3,r3,0x2750
    1234:	e0 a5 20 00 	l.add r5,r5,r4
    1238:	85 03 00 00 	l.lwz r8,0x0(r3)
    123c:	18 60 00 01 	l.movhi r3,0x1
    1240:	a8 63 27 2c 	l.ori r3,r3,0x272c
    1244:	d4 03 20 00 	l.sw 0x0(r3),r4
    1248:	84 99 00 00 	l.lwz r4,0x0(r25)
    124c:	84 68 00 00 	l.lwz r3,0x0(r8)
    1250:	e0 83 20 02 	l.sub r4,r3,r4
    1254:	18 60 00 01 	l.movhi r3,0x1
    1258:	a8 63 27 48 	l.ori r3,r3,0x2748
    125c:	e0 a5 20 00 	l.add r5,r5,r4
    1260:	84 e3 00 00 	l.lwz r7,0x0(r3)
    1264:	18 60 00 01 	l.movhi r3,0x1
    1268:	a8 63 27 0c 	l.ori r3,r3,0x270c
    126c:	d4 03 20 00 	l.sw 0x0(r3),r4
    1270:	84 95 00 00 	l.lwz r4,0x0(r21)
    1274:	84 67 00 00 	l.lwz r3,0x0(r7)
    1278:	e0 83 20 02 	l.sub r4,r3,r4
    127c:	18 60 00 01 	l.movhi r3,0x1
    1280:	a8 63 27 58 	l.ori r3,r3,0x2758
    1284:	e0 a5 20 00 	l.add r5,r5,r4
    1288:	84 c3 00 00 	l.lwz r6,0x0(r3)
    128c:	18 60 00 01 	l.movhi r3,0x1
    1290:	a8 63 26 fc 	l.ori r3,r3,0x26fc
    1294:	d4 03 20 00 	l.sw 0x0(r3),r4
    1298:	84 93 00 00 	l.lwz r4,0x0(r19)
    129c:	84 66 00 00 	l.lwz r3,0x0(r6)
    12a0:	e0 83 20 02 	l.sub r4,r3,r4
    12a4:	18 60 00 01 	l.movhi r3,0x1
    12a8:	a8 63 27 6c 	l.ori r3,r3,0x276c
    12ac:	e1 65 20 00 	l.add r11,r5,r4
    12b0:	85 a3 00 00 	l.lwz r13,0x0(r3)
    12b4:	18 60 00 01 	l.movhi r3,0x1
    12b8:	a8 63 27 1c 	l.ori r3,r3,0x271c
    12bc:	d4 03 20 00 	l.sw 0x0(r3),r4
    12c0:	18 60 00 01 	l.movhi r3,0x1
    12c4:	a8 63 26 f4 	l.ori r3,r3,0x26f4
    12c8:	84 8c 00 00 	l.lwz r4,0x0(r12)
    12cc:	d4 03 58 00 	l.sw 0x0(r3),r11
    12d0:	85 ef 00 00 	l.lwz r15,0x0(r15)
    12d4:	b8 6b 00 02 	l.slli r3,r11,0x2
    12d8:	d4 1f 78 00 	l.sw 0x0(r31),r15
    12dc:	e1 63 58 00 	l.add r11,r3,r11
    12e0:	85 29 00 00 	l.lwz r9,0x0(r9)
    12e4:	d4 1b 48 00 	l.sw 0x0(r27),r9
    12e8:	85 08 00 00 	l.lwz r8,0x0(r8)
    12ec:	d4 19 40 00 	l.sw 0x0(r25),r8
    12f0:	84 e7 00 00 	l.lwz r7,0x0(r7)
    12f4:	d4 15 38 00 	l.sw 0x0(r21),r7
    12f8:	84 c6 00 00 	l.lwz r6,0x0(r6)
    12fc:	d4 13 30 00 	l.sw 0x0(r19),r6
    1300:	84 6d 00 00 	l.lwz r3,0x0(r13)
    1304:	e0 a3 20 02 	l.sub r5,r3,r4
    1308:	18 60 00 01 	l.movhi r3,0x1
    130c:	a8 63 27 38 	l.ori r3,r3,0x2738
    1310:	d4 03 28 00 	l.sw 0x0(r3),r5
    1314:	18 60 00 01 	l.movhi r3,0x1
    1318:	a8 63 27 64 	l.ori r3,r3,0x2764
    131c:	84 8a 00 00 	l.lwz r4,0x0(r10)
    1320:	85 23 00 00 	l.lwz r9,0x0(r3)
    1324:	84 69 00 00 	l.lwz r3,0x0(r9)
    1328:	e0 83 20 02 	l.sub r4,r3,r4
    132c:	18 60 00 01 	l.movhi r3,0x1
    1330:	a8 63 27 54 	l.ori r3,r3,0x2754
    1334:	e0 a5 20 00 	l.add r5,r5,r4
    1338:	85 03 00 00 	l.lwz r8,0x0(r3)
    133c:	18 60 00 01 	l.movhi r3,0x1
    1340:	a8 63 27 28 	l.ori r3,r3,0x2728
    1344:	d4 03 20 00 	l.sw 0x0(r3),r4
    1348:	84 9d 00 00 	l.lwz r4,0x0(r29)
    134c:	84 68 00 00 	l.lwz r3,0x0(r8)
    1350:	e0 83 20 02 	l.sub r4,r3,r4
    1354:	18 60 00 01 	l.movhi r3,0x1
    1358:	a8 63 27 4c 	l.ori r3,r3,0x274c
    135c:	e0 a5 20 00 	l.add r5,r5,r4
    1360:	84 e3 00 00 	l.lwz r7,0x0(r3)
    1364:	18 60 00 01 	l.movhi r3,0x1
    1368:	a8 63 27 08 	l.ori r3,r3,0x2708
    136c:	d4 03 20 00 	l.sw 0x0(r3),r4
    1370:	84 97 00 00 	l.lwz r4,0x0(r23)
    1374:	84 67 00 00 	l.lwz r3,0x0(r7)
    1378:	e0 83 20 02 	l.sub r4,r3,r4
    137c:	18 60 00 01 	l.movhi r3,0x1
    1380:	a8 63 27 5c 	l.ori r3,r3,0x275c
    1384:	e0 a5 20 00 	l.add r5,r5,r4
    1388:	84 c3 00 00 	l.lwz r6,0x0(r3)
    138c:	18 60 00 01 	l.movhi r3,0x1
    1390:	a8 63 26 f8 	l.ori r3,r3,0x26f8
    1394:	d4 03 20 00 	l.sw 0x0(r3),r4
    1398:	84 91 00 00 	l.lwz r4,0x0(r17)
    139c:	84 66 00 00 	l.lwz r3,0x0(r6)
    13a0:	e0 83 20 02 	l.sub r4,r3,r4
    13a4:	18 60 00 01 	l.movhi r3,0x1
    13a8:	a8 63 27 18 	l.ori r3,r3,0x2718
    13ac:	e0 a5 20 00 	l.add r5,r5,r4
    13b0:	d4 03 20 00 	l.sw 0x0(r3),r4
    13b4:	e1 6b 28 00 	l.add r11,r11,r5
    13b8:	18 60 00 01 	l.movhi r3,0x1
    13bc:	a8 63 26 f0 	l.ori r3,r3,0x26f0
    13c0:	d4 03 28 00 	l.sw 0x0(r3),r5
    13c4:	85 ad 00 00 	l.lwz r13,0x0(r13)
    13c8:	d4 0c 68 00 	l.sw 0x0(r12),r13
    13cc:	85 29 00 00 	l.lwz r9,0x0(r9)
    13d0:	d4 0a 48 00 	l.sw 0x0(r10),r9
    13d4:	85 08 00 00 	l.lwz r8,0x0(r8)
    13d8:	d4 1d 40 00 	l.sw 0x0(r29),r8
    13dc:	84 e7 00 00 	l.lwz r7,0x0(r7)
    13e0:	d4 17 38 00 	l.sw 0x0(r23),r7
    13e4:	84 c6 00 00 	l.lwz r6,0x0(r6)
    13e8:	d4 11 30 00 	l.sw 0x0(r17),r6
    13ec:	85 21 00 00 	l.lwz r9,0x0(r1)
    13f0:	84 41 00 04 	l.lwz r2,0x4(r1)
    13f4:	85 41 00 08 	l.lwz r10,0x8(r1)
    13f8:	85 81 00 0c 	l.lwz r12,0xc(r1)
    13fc:	44 00 48 00 	l.jr r9
    1400:	9c 21 00 10 	l.addi r1,r1,0x10

00001404 <_getXpos>:
    1404:	9c 21 ff fc 	l.addi r1,r1,0xfffffffc
    1408:	d4 01 10 00 	l.sw 0x0(r1),r2
    140c:	9c 41 00 04 	l.addi r2,r1,0x4
    1410:	a4 63 ff 00 	l.andi r3,r3,0xff00
    1414:	b9 63 00 48 	l.srli r11,r3,0x8
    1418:	84 41 00 00 	l.lwz r2,0x0(r1)
    141c:	44 00 48 00 	l.jr r9
    1420:	9c 21 00 04 	l.addi r1,r1,0x4

00001424 <_getYpos>:
    1424:	9c 21 ff fc 	l.addi r1,r1,0xfffffffc
    1428:	d4 01 10 00 	l.sw 0x0(r1),r2
    142c:	9c 41 00 04 	l.addi r2,r1,0x4
    1430:	a5 63 00 ff 	l.andi r11,r3,0xff
    1434:	84 41 00 00 	l.lwz r2,0x0(r1)
    1438:	44 00 48 00 	l.jr r9
    143c:	9c 21 00 04 	l.addi r1,r1,0x4

00001440 <_getNumberOfPorts>:
    1440:	9c 21 ff f0 	l.addi r1,r1,0xfffffff0
    1444:	d4 01 10 04 	l.sw 0x4(r1),r2
    1448:	9c 41 00 10 	l.addi r2,r1,0x10
    144c:	d4 01 48 00 	l.sw 0x0(r1),r9
    1450:	d4 01 50 08 	l.sw 0x8(r1),r10
    1454:	d4 01 60 0c 	l.sw 0xc(r1),r12
    1458:	07 ff ff eb 	l.jal 1404 <_getXpos>
    145c:	a9 43 00 00 	l.ori r10,r3,0x0
    1460:	a9 8b 00 00 	l.ori r12,r11,0x0
    1464:	07 ff ff f0 	l.jal 1424 <_getYpos>
    1468:	a8 6a 00 00 	l.ori r3,r10,0x0
    146c:	9c 80 00 00 	l.addi r4,r0,0x0
    1470:	e4 2c 20 00 	l.sfne r12,r4
    1474:	10 00 00 03 	l.bf 1480 <_getNumberOfPorts+0x40>
    1478:	bc 2c 00 08 	l.sfnei r12,0x8
    147c:	9c 80 00 01 	l.addi r4,r0,0x1
    1480:	10 00 00 03 	l.bf 148c <_getNumberOfPorts+0x4c>
    1484:	9c 60 00 00 	l.addi r3,r0,0x0
    1488:	9c 60 00 01 	l.addi r3,r0,0x1
    148c:	e0 64 18 04 	l.or r3,r4,r3
    1490:	bc 03 00 00 	l.sfeqi r3,0x0
    1494:	10 00 00 0d 	l.bf 14c8 <_getNumberOfPorts+0x88>
    1498:	9c 80 00 00 	l.addi r4,r0,0x0
    149c:	e4 2b 20 00 	l.sfne r11,r4
    14a0:	0c 00 00 24 	l.bnf 1530 <_getNumberOfPorts+0xf0>
    14a4:	15 00 00 00 	l.nop 0x0
    14a8:	bc 2b 00 08 	l.sfnei r11,0x8
    14ac:	10 00 00 03 	l.bf 14b8 <_getNumberOfPorts+0x78>
    14b0:	9c 60 00 00 	l.addi r3,r0,0x0
    14b4:	9c 60 00 01 	l.addi r3,r0,0x1
    14b8:	e0 64 18 04 	l.or r3,r4,r3
    14bc:	bc 03 00 00 	l.sfeqi r3,0x0
    14c0:	0c 00 00 20 	l.bnf 1540 <_getNumberOfPorts+0x100>
    14c4:	9c 80 00 00 	l.addi r4,r0,0x0
    14c8:	e4 2c 20 00 	l.sfne r12,r4
    14cc:	0c 00 00 17 	l.bnf 1528 <_getNumberOfPorts+0xe8>
    14d0:	15 00 00 00 	l.nop 0x0
    14d4:	bc 2c 00 08 	l.sfnei r12,0x8
    14d8:	10 00 00 03 	l.bf 14e4 <_getNumberOfPorts+0xa4>
    14dc:	9c 60 00 00 	l.addi r3,r0,0x0
    14e0:	9c 60 00 01 	l.addi r3,r0,0x1
    14e4:	e0 64 18 04 	l.or r3,r4,r3
    14e8:	bc 23 00 00 	l.sfnei r3,0x0
    14ec:	10 00 00 0d 	l.bf 1520 <_getNumberOfPorts+0xe0>
    14f0:	9c 80 00 00 	l.addi r4,r0,0x0
    14f4:	e4 2b 20 00 	l.sfne r11,r4
    14f8:	10 00 00 03 	l.bf 1504 <_getNumberOfPorts+0xc4>
    14fc:	bc 2b 00 08 	l.sfnei r11,0x8
    1500:	9c 80 00 01 	l.addi r4,r0,0x1
    1504:	10 00 00 03 	l.bf 1510 <_getNumberOfPorts+0xd0>
    1508:	9c 60 00 00 	l.addi r3,r0,0x0
    150c:	9c 60 00 01 	l.addi r3,r0,0x1
    1510:	e0 64 18 04 	l.or r3,r4,r3
    1514:	bc 23 00 00 	l.sfnei r3,0x0
    1518:	0c 00 00 08 	l.bnf 1538 <_getNumberOfPorts+0xf8>
    151c:	15 00 00 00 	l.nop 0x0
    1520:	00 00 00 09 	l.j 1544 <_getNumberOfPorts+0x104>
    1524:	9d 60 00 04 	l.addi r11,r0,0x4
    1528:	03 ff ff eb 	l.j 14d4 <_getNumberOfPorts+0x94>
    152c:	9c 80 00 01 	l.addi r4,r0,0x1
    1530:	03 ff ff de 	l.j 14a8 <_getNumberOfPorts+0x68>
    1534:	9c 80 00 01 	l.addi r4,r0,0x1
    1538:	00 00 00 03 	l.j 1544 <_getNumberOfPorts+0x104>
    153c:	9d 60 00 05 	l.addi r11,r0,0x5
    1540:	9d 60 00 03 	l.addi r11,r0,0x3
    1544:	85 21 00 00 	l.lwz r9,0x0(r1)
    1548:	84 41 00 04 	l.lwz r2,0x4(r1)
    154c:	85 41 00 08 	l.lwz r10,0x8(r1)
    1550:	85 81 00 0c 	l.lwz r12,0xc(r1)
    1554:	44 00 48 00 	l.jr r9
    1558:	9c 21 00 10 	l.addi r1,r1,0x10

0000155c <_prints>:
    155c:	9c 21 ff fc 	l.addi r1,r1,0xfffffffc
    1560:	d4 01 10 00 	l.sw 0x0(r1),r2
    1564:	9c 41 00 04 	l.addi r2,r1,0x4
    1568:	18 80 00 01 	l.movhi r4,0x1
    156c:	a8 84 27 dc 	l.ori r4,r4,0x27dc
    1570:	9c c0 00 00 	l.addi r6,r0,0x0
    1574:	84 e4 00 00 	l.lwz r7,0x0(r4)
    1578:	a8 83 00 00 	l.ori r4,r3,0x0
    157c:	90 84 00 00 	l.lbs r4,0x0(r4)
    1580:	9c c6 00 01 	l.addi r6,r6,0x1
    1584:	d4 07 20 00 	l.sw 0x0(r7),r4
    1588:	e0 83 30 00 	l.add r4,r3,r6
    158c:	90 a4 ff ff 	l.lbs r5,0xffffffff(r4)
    1590:	bc 05 00 00 	l.sfeqi r5,0x0
    1594:	0f ff ff fa 	l.bnf 157c <_prints+0x20>
    1598:	15 00 00 00 	l.nop 0x0
    159c:	84 41 00 00 	l.lwz r2,0x0(r1)
    15a0:	44 00 48 00 	l.jr r9
    15a4:	9c 21 00 04 	l.addi r1,r1,0x4

000015a8 <_printi>:
    15a8:	9c 21 ff fc 	l.addi r1,r1,0xfffffffc
    15ac:	d4 01 10 00 	l.sw 0x0(r1),r2
    15b0:	9c 41 00 04 	l.addi r2,r1,0x4
    15b4:	18 80 00 01 	l.movhi r4,0x1
    15b8:	a8 84 27 d8 	l.ori r4,r4,0x27d8
    15bc:	84 84 00 00 	l.lwz r4,0x0(r4)
    15c0:	d4 04 18 00 	l.sw 0x0(r4),r3
    15c4:	84 41 00 00 	l.lwz r2,0x0(r1)
    15c8:	44 00 48 00 	l.jr r9
    15cc:	9c 21 00 04 	l.addi r1,r1,0x4

000015d0 <_makeAddress>:
    15d0:	9c 21 ff fc 	l.addi r1,r1,0xfffffffc
    15d4:	d4 01 10 00 	l.sw 0x0(r1),r2
    15d8:	9c 41 00 04 	l.addi r2,r1,0x4
    15dc:	b8 63 00 08 	l.slli r3,r3,0x8
    15e0:	e1 63 20 04 	l.or r11,r3,r4
    15e4:	84 41 00 00 	l.lwz r2,0x0(r1)
    15e8:	44 00 48 00 	l.jr r9
    15ec:	9c 21 00 04 	l.addi r1,r1,0x4

000015f0 <_ReportExecutedInstructions>:
    15f0:	9c 21 ff b8 	l.addi r1,r1,0xffffffb8
    15f4:	d4 01 10 0c 	l.sw 0xc(r1),r2
    15f8:	9c 41 00 48 	l.addi r2,r1,0x48
    15fc:	d4 01 48 08 	l.sw 0x8(r1),r9
    1600:	d4 01 50 10 	l.sw 0x10(r1),r10
    1604:	18 60 00 01 	l.movhi r3,0x1
    1608:	a8 63 1a 90 	l.ori r3,r3,0x1a90
    160c:	9d 42 ff cc 	l.addi r10,r2,0xffffffcc
    1610:	d4 01 18 00 	l.sw 0x0(r1),r3
    1614:	18 60 00 01 	l.movhi r3,0x1
    1618:	a8 63 27 e4 	l.ori r3,r3,0x27e4
    161c:	84 63 00 00 	l.lwz r3,0x0(r3)
    1620:	84 63 00 00 	l.lwz r3,0x0(r3)
    1624:	d4 01 18 04 	l.sw 0x4(r1),r3
    1628:	04 00 0d fc 	l.jal 4e18 <_sprintf>
    162c:	a8 6a 00 00 	l.ori r3,r10,0x0
    1630:	18 80 00 01 	l.movhi r4,0x1
    1634:	a8 84 1a ae 	l.ori r4,r4,0x1aae
    1638:	04 00 0e 5f 	l.jal 4fb4 <_fopen>
    163c:	a8 6a 00 00 	l.ori r3,r10,0x0
    1640:	bc 0b 00 00 	l.sfeqi r11,0x0
    1644:	10 00 00 9a 	l.bf 18ac <_ReportExecutedInstructions+0x2bc>
    1648:	a9 4b 00 00 	l.ori r10,r11,0x0
    164c:	18 60 00 01 	l.movhi r3,0x1
    1650:	a8 63 1a b1 	l.ori r3,r3,0x1ab1
    1654:	9c 80 00 01 	l.addi r4,r0,0x1
    1658:	9c a0 00 3b 	l.addi r5,r0,0x3b
    165c:	04 00 0e 65 	l.jal 4ff0 <_fwrite>
    1660:	a8 cb 00 00 	l.ori r6,r11,0x0
    1664:	18 60 00 01 	l.movhi r3,0x1
    1668:	a8 63 1a ed 	l.ori r3,r3,0x1aed
    166c:	9c 80 00 01 	l.addi r4,r0,0x1
    1670:	9c a0 00 3b 	l.addi r5,r0,0x3b
    1674:	04 00 0e 5f 	l.jal 4ff0 <_fwrite>
    1678:	a8 ca 00 00 	l.ori r6,r10,0x0
    167c:	9c a0 00 3b 	l.addi r5,r0,0x3b
    1680:	a8 ca 00 00 	l.ori r6,r10,0x0
    1684:	18 60 00 01 	l.movhi r3,0x1
    1688:	a8 63 1a b1 	l.ori r3,r3,0x1ab1
    168c:	04 00 0e 59 	l.jal 4ff0 <_fwrite>
    1690:	9c 80 00 01 	l.addi r4,r0,0x1
    1694:	18 60 00 01 	l.movhi r3,0x1
    1698:	a8 63 1b 29 	l.ori r3,r3,0x1b29
    169c:	d4 01 18 00 	l.sw 0x0(r1),r3
    16a0:	18 60 00 01 	l.movhi r3,0x1
    16a4:	a8 63 27 9c 	l.ori r3,r3,0x279c
    16a8:	84 83 00 00 	l.lwz r4,0x0(r3)
    16ac:	84 84 00 00 	l.lwz r4,0x0(r4)
    16b0:	a8 6a 00 00 	l.ori r3,r10,0x0
    16b4:	04 00 0e 73 	l.jal 5080 <_fprintf>
    16b8:	d4 01 20 04 	l.sw 0x4(r1),r4
    16bc:	18 60 00 01 	l.movhi r3,0x1
    16c0:	a8 63 1b 4d 	l.ori r3,r3,0x1b4d
    16c4:	d4 01 18 00 	l.sw 0x0(r1),r3
    16c8:	18 60 00 01 	l.movhi r3,0x1
    16cc:	a8 63 27 98 	l.ori r3,r3,0x2798
    16d0:	84 83 00 00 	l.lwz r4,0x0(r3)
    16d4:	84 84 00 00 	l.lwz r4,0x0(r4)
    16d8:	a8 6a 00 00 	l.ori r3,r10,0x0
    16dc:	04 00 0e 69 	l.jal 5080 <_fprintf>
    16e0:	d4 01 20 04 	l.sw 0x4(r1),r4
    16e4:	18 60 00 01 	l.movhi r3,0x1
    16e8:	a8 63 1b 5c 	l.ori r3,r3,0x1b5c
    16ec:	d4 01 18 00 	l.sw 0x0(r1),r3
    16f0:	18 60 00 01 	l.movhi r3,0x1
    16f4:	a8 63 27 94 	l.ori r3,r3,0x2794
    16f8:	84 83 00 00 	l.lwz r4,0x0(r3)
    16fc:	84 84 00 00 	l.lwz r4,0x0(r4)
    1700:	a8 6a 00 00 	l.ori r3,r10,0x0
    1704:	04 00 0e 5f 	l.jal 5080 <_fprintf>
    1708:	d4 01 20 04 	l.sw 0x4(r1),r4
    170c:	18 60 00 01 	l.movhi r3,0x1
    1710:	a8 63 1b 70 	l.ori r3,r3,0x1b70
    1714:	d4 01 18 00 	l.sw 0x0(r1),r3
    1718:	18 60 00 01 	l.movhi r3,0x1
    171c:	a8 63 27 90 	l.ori r3,r3,0x2790
    1720:	84 83 00 00 	l.lwz r4,0x0(r3)
    1724:	84 84 00 00 	l.lwz r4,0x0(r4)
    1728:	a8 6a 00 00 	l.ori r3,r10,0x0
    172c:	04 00 0e 55 	l.jal 5080 <_fprintf>
    1730:	d4 01 20 04 	l.sw 0x4(r1),r4
    1734:	18 60 00 01 	l.movhi r3,0x1
    1738:	a8 63 1b 7d 	l.ori r3,r3,0x1b7d
    173c:	d4 01 18 00 	l.sw 0x0(r1),r3
    1740:	18 60 00 01 	l.movhi r3,0x1
    1744:	a8 63 27 8c 	l.ori r3,r3,0x278c
    1748:	84 83 00 00 	l.lwz r4,0x0(r3)
    174c:	84 84 00 00 	l.lwz r4,0x0(r4)
    1750:	a8 6a 00 00 	l.ori r3,r10,0x0
    1754:	04 00 0e 4b 	l.jal 5080 <_fprintf>
    1758:	d4 01 20 04 	l.sw 0x4(r1),r4
    175c:	18 60 00 01 	l.movhi r3,0x1
    1760:	a8 63 1b 8a 	l.ori r3,r3,0x1b8a
    1764:	d4 01 18 00 	l.sw 0x0(r1),r3
    1768:	18 60 00 01 	l.movhi r3,0x1
    176c:	a8 63 27 88 	l.ori r3,r3,0x2788
    1770:	84 83 00 00 	l.lwz r4,0x0(r3)
    1774:	84 84 00 00 	l.lwz r4,0x0(r4)
    1778:	a8 6a 00 00 	l.ori r3,r10,0x0
    177c:	04 00 0e 41 	l.jal 5080 <_fprintf>
    1780:	d4 01 20 04 	l.sw 0x4(r1),r4
    1784:	18 60 00 01 	l.movhi r3,0x1
    1788:	a8 63 1b 97 	l.ori r3,r3,0x1b97
    178c:	d4 01 18 00 	l.sw 0x0(r1),r3
    1790:	18 60 00 01 	l.movhi r3,0x1
    1794:	a8 63 27 84 	l.ori r3,r3,0x2784
    1798:	84 83 00 00 	l.lwz r4,0x0(r3)
    179c:	84 84 00 00 	l.lwz r4,0x0(r4)
    17a0:	a8 6a 00 00 	l.ori r3,r10,0x0
    17a4:	04 00 0e 37 	l.jal 5080 <_fprintf>
    17a8:	d4 01 20 04 	l.sw 0x4(r1),r4
    17ac:	18 60 00 01 	l.movhi r3,0x1
    17b0:	a8 63 1b a5 	l.ori r3,r3,0x1ba5
    17b4:	d4 01 18 00 	l.sw 0x0(r1),r3
    17b8:	18 60 00 01 	l.movhi r3,0x1
    17bc:	a8 63 27 80 	l.ori r3,r3,0x2780
    17c0:	84 83 00 00 	l.lwz r4,0x0(r3)
    17c4:	84 84 00 00 	l.lwz r4,0x0(r4)
    17c8:	a8 6a 00 00 	l.ori r3,r10,0x0
    17cc:	04 00 0e 2d 	l.jal 5080 <_fprintf>
    17d0:	d4 01 20 04 	l.sw 0x4(r1),r4
    17d4:	18 60 00 01 	l.movhi r3,0x1
    17d8:	a8 63 1b b3 	l.ori r3,r3,0x1bb3
    17dc:	d4 01 18 00 	l.sw 0x0(r1),r3
    17e0:	18 60 00 01 	l.movhi r3,0x1
    17e4:	a8 63 27 7c 	l.ori r3,r3,0x277c
    17e8:	84 83 00 00 	l.lwz r4,0x0(r3)
    17ec:	84 84 00 00 	l.lwz r4,0x0(r4)
    17f0:	a8 6a 00 00 	l.ori r3,r10,0x0
    17f4:	04 00 0e 23 	l.jal 5080 <_fprintf>
    17f8:	d4 01 20 04 	l.sw 0x4(r1),r4
    17fc:	18 60 00 01 	l.movhi r3,0x1
    1800:	a8 63 1b bf 	l.ori r3,r3,0x1bbf
    1804:	d4 01 18 00 	l.sw 0x0(r1),r3
    1808:	18 60 00 01 	l.movhi r3,0x1
    180c:	a8 63 27 78 	l.ori r3,r3,0x2778
    1810:	84 83 00 00 	l.lwz r4,0x0(r3)
    1814:	84 84 00 00 	l.lwz r4,0x0(r4)
    1818:	a8 6a 00 00 	l.ori r3,r10,0x0
    181c:	04 00 0e 19 	l.jal 5080 <_fprintf>
    1820:	d4 01 20 04 	l.sw 0x4(r1),r4
    1824:	18 60 00 01 	l.movhi r3,0x1
    1828:	a8 63 1b ce 	l.ori r3,r3,0x1bce
    182c:	d4 01 18 00 	l.sw 0x0(r1),r3
    1830:	18 60 00 01 	l.movhi r3,0x1
    1834:	a8 63 27 74 	l.ori r3,r3,0x2774
    1838:	84 83 00 00 	l.lwz r4,0x0(r3)
    183c:	84 84 00 00 	l.lwz r4,0x0(r4)
    1840:	a8 6a 00 00 	l.ori r3,r10,0x0
    1844:	04 00 0e 0f 	l.jal 5080 <_fprintf>
    1848:	d4 01 20 04 	l.sw 0x4(r1),r4
    184c:	18 60 00 01 	l.movhi r3,0x1
    1850:	a8 63 1b f2 	l.ori r3,r3,0x1bf2
    1854:	d4 01 18 00 	l.sw 0x0(r1),r3
    1858:	18 60 00 01 	l.movhi r3,0x1
    185c:	a8 63 27 70 	l.ori r3,r3,0x2770
    1860:	84 83 00 00 	l.lwz r4,0x0(r3)
    1864:	84 84 00 00 	l.lwz r4,0x0(r4)
    1868:	a8 6a 00 00 	l.ori r3,r10,0x0
    186c:	04 00 0e 05 	l.jal 5080 <_fprintf>
    1870:	d4 01 20 04 	l.sw 0x4(r1),r4
    1874:	18 60 00 01 	l.movhi r3,0x1
    1878:	a8 63 1a b1 	l.ori r3,r3,0x1ab1
    187c:	9c 80 00 01 	l.addi r4,r0,0x1
    1880:	9c a0 00 3b 	l.addi r5,r0,0x3b
    1884:	04 00 0d db 	l.jal 4ff0 <_fwrite>
    1888:	a8 ca 00 00 	l.ori r6,r10,0x0
    188c:	18 60 00 01 	l.movhi r3,0x1
    1890:	a8 63 1a b1 	l.ori r3,r3,0x1ab1
    1894:	9c 80 00 01 	l.addi r4,r0,0x1
    1898:	9c a0 00 3b 	l.addi r5,r0,0x3b
    189c:	04 00 0d d5 	l.jal 4ff0 <_fwrite>
    18a0:	a8 ca 00 00 	l.ori r6,r10,0x0
    18a4:	04 00 0e 6c 	l.jal 5254 <_fclose>
    18a8:	a8 6a 00 00 	l.ori r3,r10,0x0
    18ac:	85 21 00 08 	l.lwz r9,0x8(r1)
    18b0:	84 41 00 0c 	l.lwz r2,0xc(r1)
    18b4:	85 41 00 10 	l.lwz r10,0x10(r1)
    18b8:	44 00 48 00 	l.jr r9
    18bc:	9c 21 00 48 	l.addi r1,r1,0x48

000018c0 <_clear_migration_src>:
    18c0:	9c 21 ff fc 	l.addi r1,r1,0xfffffffc
    18c4:	d4 01 10 00 	l.sw 0x0(r1),r2
    18c8:	9c 41 00 04 	l.addi r2,r1,0x4
    18cc:	18 60 00 01 	l.movhi r3,0x1
    18d0:	a8 63 27 b0 	l.ori r3,r3,0x27b0
    18d4:	9c 80 00 00 	l.addi r4,r0,0x0
    18d8:	d4 03 20 00 	l.sw 0x0(r3),r4
    18dc:	84 41 00 00 	l.lwz r2,0x0(r1)
    18e0:	44 00 48 00 	l.jr r9
    18e4:	9c 21 00 04 	l.addi r1,r1,0x4

000018e8 <_clear_migration_dst>:
    18e8:	9c 21 ff fc 	l.addi r1,r1,0xfffffffc
    18ec:	d4 01 10 00 	l.sw 0x0(r1),r2
    18f0:	9c 41 00 04 	l.addi r2,r1,0x4
    18f4:	18 60 00 01 	l.movhi r3,0x1
    18f8:	a8 63 27 ac 	l.ori r3,r3,0x27ac
    18fc:	9c 80 00 00 	l.addi r4,r0,0x0
    1900:	d4 03 20 00 	l.sw 0x0(r3),r4
    1904:	84 41 00 00 	l.lwz r2,0x0(r1)
    1908:	44 00 48 00 	l.jr r9
    190c:	9c 21 00 04 	l.addi r1,r1,0x4

00001910 <_clear_mapping>:
    1910:	9c 21 ff fc 	l.addi r1,r1,0xfffffffc
    1914:	d4 01 10 00 	l.sw 0x0(r1),r2
    1918:	9c 41 00 04 	l.addi r2,r1,0x4
    191c:	18 60 00 01 	l.movhi r3,0x1
    1920:	a8 63 27 a8 	l.ori r3,r3,0x27a8
    1924:	9c 80 00 00 	l.addi r4,r0,0x0
    1928:	d4 03 20 00 	l.sw 0x0(r3),r4
    192c:	84 41 00 00 	l.lwz r2,0x0(r1)
    1930:	44 00 48 00 	l.jr r9
    1934:	9c 21 00 04 	l.addi r1,r1,0x4

00001938 <_clear_update>:
    1938:	9c 21 ff fc 	l.addi r1,r1,0xfffffffc
    193c:	d4 01 10 00 	l.sw 0x0(r1),r2
    1940:	9c 41 00 04 	l.addi r2,r1,0x4
    1944:	18 60 00 01 	l.movhi r3,0x1
    1948:	a8 63 27 a4 	l.ori r3,r3,0x27a4
    194c:	9c 80 00 00 	l.addi r4,r0,0x0
    1950:	d4 03 20 00 	l.sw 0x0(r3),r4
    1954:	84 41 00 00 	l.lwz r2,0x0(r1)
    1958:	44 00 48 00 	l.jr r9
    195c:	9c 21 00 04 	l.addi r1,r1,0x4

00001960 <_get_migration_src>:
    1960:	9c 21 ff fc 	l.addi r1,r1,0xfffffffc
    1964:	d4 01 10 00 	l.sw 0x0(r1),r2
    1968:	9c 41 00 04 	l.addi r2,r1,0x4
    196c:	19 60 00 01 	l.movhi r11,0x1
    1970:	a9 6b 27 b0 	l.ori r11,r11,0x27b0
    1974:	85 6b 00 00 	l.lwz r11,0x0(r11)
    1978:	84 41 00 00 	l.lwz r2,0x0(r1)
    197c:	44 00 48 00 	l.jr r9
    1980:	9c 21 00 04 	l.addi r1,r1,0x4

00001984 <_get_migration_dst>:
    1984:	9c 21 ff fc 	l.addi r1,r1,0xfffffffc
    1988:	d4 01 10 00 	l.sw 0x0(r1),r2
    198c:	9c 41 00 04 	l.addi r2,r1,0x4
    1990:	19 60 00 01 	l.movhi r11,0x1
    1994:	a9 6b 27 ac 	l.ori r11,r11,0x27ac
    1998:	85 6b 00 00 	l.lwz r11,0x0(r11)
    199c:	84 41 00 00 	l.lwz r2,0x0(r1)
    19a0:	44 00 48 00 	l.jr r9
    19a4:	9c 21 00 04 	l.addi r1,r1,0x4

000019a8 <_get_mapping>:
    19a8:	9c 21 ff fc 	l.addi r1,r1,0xfffffffc
    19ac:	d4 01 10 00 	l.sw 0x0(r1),r2
    19b0:	9c 41 00 04 	l.addi r2,r1,0x4
    19b4:	19 60 00 01 	l.movhi r11,0x1
    19b8:	a9 6b 27 a8 	l.ori r11,r11,0x27a8
    19bc:	85 6b 00 00 	l.lwz r11,0x0(r11)
    19c0:	84 41 00 00 	l.lwz r2,0x0(r1)
    19c4:	44 00 48 00 	l.jr r9
    19c8:	9c 21 00 04 	l.addi r1,r1,0x4

000019cc <_get_update>:
    19cc:	9c 21 ff fc 	l.addi r1,r1,0xfffffffc
    19d0:	d4 01 10 00 	l.sw 0x0(r1),r2
    19d4:	9c 41 00 04 	l.addi r2,r1,0x4
    19d8:	19 60 00 01 	l.movhi r11,0x1
    19dc:	a9 6b 27 a4 	l.ori r11,r11,0x27a4
    19e0:	85 6b 00 00 	l.lwz r11,0x0(r11)
    19e4:	84 41 00 00 	l.lwz r2,0x0(r1)
    19e8:	44 00 48 00 	l.jr r9
    19ec:	9c 21 00 04 	l.addi r1,r1,0x4

000019f0 <_get_new_state>:
    19f0:	9c 21 ff fc 	l.addi r1,r1,0xfffffffc
    19f4:	d4 01 10 00 	l.sw 0x0(r1),r2
    19f8:	9c 41 00 04 	l.addi r2,r1,0x4
    19fc:	19 60 00 01 	l.movhi r11,0x1
    1a00:	a9 6b 76 88 	l.ori r11,r11,0x7688
    1a04:	85 6b 00 00 	l.lwz r11,0x0(r11)
    1a08:	84 41 00 00 	l.lwz r2,0x0(r1)
    1a0c:	44 00 48 00 	l.jr r9
    1a10:	9c 21 00 04 	l.addi r1,r1,0x4

00001a14 <_putsvsv>:
    1a14:	9c 21 ff ec 	l.addi r1,r1,0xffffffec
    1a18:	d4 01 10 04 	l.sw 0x4(r1),r2
    1a1c:	9c 41 00 14 	l.addi r2,r1,0x14
    1a20:	d4 01 48 00 	l.sw 0x0(r1),r9
    1a24:	d4 01 50 08 	l.sw 0x8(r1),r10
    1a28:	d4 01 60 0c 	l.sw 0xc(r1),r12
    1a2c:	d4 01 70 10 	l.sw 0x10(r1),r14
    1a30:	a9 44 00 00 	l.ori r10,r4,0x0
    1a34:	a9 85 00 00 	l.ori r12,r5,0x0
    1a38:	07 ff fe c9 	l.jal 155c <_prints>
    1a3c:	a9 c6 00 00 	l.ori r14,r6,0x0
    1a40:	07 ff fe da 	l.jal 15a8 <_printi>
    1a44:	a8 6a 00 00 	l.ori r3,r10,0x0
    1a48:	07 ff fe c5 	l.jal 155c <_prints>
    1a4c:	a8 6c 00 00 	l.ori r3,r12,0x0
    1a50:	07 ff fe d6 	l.jal 15a8 <_printi>
    1a54:	a8 6e 00 00 	l.ori r3,r14,0x0
    1a58:	18 60 00 01 	l.movhi r3,0x1
    1a5c:	a8 63 1c 06 	l.ori r3,r3,0x1c06
    1a60:	07 ff fe bf 	l.jal 155c <_prints>
    1a64:	15 00 00 00 	l.nop 0x0
    1a68:	85 21 00 00 	l.lwz r9,0x0(r1)
    1a6c:	84 41 00 04 	l.lwz r2,0x4(r1)
    1a70:	85 41 00 08 	l.lwz r10,0x8(r1)
    1a74:	85 81 00 0c 	l.lwz r12,0xc(r1)
    1a78:	85 c1 00 10 	l.lwz r14,0x10(r1)
    1a7c:	44 00 48 00 	l.jr r9
    1a80:	9c 21 00 14 	l.addi r1,r1,0x14

00001a84 <_get_mapping_table>:
    1a84:	9c 21 ff f0 	l.addi r1,r1,0xfffffff0
    1a88:	d4 01 10 04 	l.sw 0x4(r1),r2
    1a8c:	9c 41 00 10 	l.addi r2,r1,0x10
    1a90:	d4 01 48 00 	l.sw 0x0(r1),r9
    1a94:	d4 01 50 08 	l.sw 0x8(r1),r10
    1a98:	d4 01 60 0c 	l.sw 0xc(r1),r12
    1a9c:	a9 83 00 00 	l.ori r12,r3,0x0
    1aa0:	9d 40 00 00 	l.addi r10,r0,0x0
    1aa4:	b8 ca 00 02 	l.slli r6,r10,0x2
    1aa8:	18 a0 00 01 	l.movhi r5,0x1
    1aac:	a8 a5 44 e0 	l.ori r5,r5,0x44e0
    1ab0:	a8 8a 00 00 	l.ori r4,r10,0x0
    1ab4:	e0 e6 28 00 	l.add r7,r6,r5
    1ab8:	18 60 00 01 	l.movhi r3,0x1
    1abc:	a8 63 1c 08 	l.ori r3,r3,0x1c08
    1ac0:	84 e7 00 00 	l.lwz r7,0x0(r7)
    1ac4:	e0 c6 60 00 	l.add r6,r6,r12
    1ac8:	18 a0 00 01 	l.movhi r5,0x1
    1acc:	a8 a5 1c 13 	l.ori r5,r5,0x1c13
    1ad0:	d4 06 38 00 	l.sw 0x0(r6),r7
    1ad4:	9d 4a 00 01 	l.addi r10,r10,0x1
    1ad8:	07 ff ff cf 	l.jal 1a14 <_putsvsv>
    1adc:	a8 c7 00 00 	l.ori r6,r7,0x0
    1ae0:	bd 4a 00 50 	l.sfgtsi r10,0x50
    1ae4:	0f ff ff f1 	l.bnf 1aa8 <_get_mapping_table+0x24>
    1ae8:	b8 ca 00 02 	l.slli r6,r10,0x2
    1aec:	85 21 00 00 	l.lwz r9,0x0(r1)
    1af0:	84 41 00 04 	l.lwz r2,0x4(r1)
    1af4:	85 41 00 08 	l.lwz r10,0x8(r1)
    1af8:	85 81 00 0c 	l.lwz r12,0xc(r1)
    1afc:	44 00 48 00 	l.jr r9
    1b00:	9c 21 00 10 	l.addi r1,r1,0x10

00001b04 <_putsv>:
    1b04:	9c 21 ff f4 	l.addi r1,r1,0xfffffff4
    1b08:	d4 01 10 04 	l.sw 0x4(r1),r2
    1b0c:	9c 41 00 0c 	l.addi r2,r1,0xc
    1b10:	d4 01 48 00 	l.sw 0x0(r1),r9
    1b14:	d4 01 50 08 	l.sw 0x8(r1),r10
    1b18:	07 ff fe 91 	l.jal 155c <_prints>
    1b1c:	a9 44 00 00 	l.ori r10,r4,0x0
    1b20:	07 ff fe a2 	l.jal 15a8 <_printi>
    1b24:	a8 6a 00 00 	l.ori r3,r10,0x0
    1b28:	18 60 00 01 	l.movhi r3,0x1
    1b2c:	a8 63 1c 06 	l.ori r3,r3,0x1c06
    1b30:	07 ff fe 8b 	l.jal 155c <_prints>
    1b34:	15 00 00 00 	l.nop 0x0
    1b38:	85 21 00 00 	l.lwz r9,0x0(r1)
    1b3c:	84 41 00 04 	l.lwz r2,0x4(r1)
    1b40:	85 41 00 08 	l.lwz r10,0x8(r1)
    1b44:	44 00 48 00 	l.jr r9
    1b48:	9c 21 00 0c 	l.addi r1,r1,0xc

00001b4c <_getEmptyIndex>:
    1b4c:	9c 21 ff fc 	l.addi r1,r1,0xfffffffc
    1b50:	d4 01 10 00 	l.sw 0x0(r1),r2
    1b54:	9c 41 00 04 	l.addi r2,r1,0x4
    1b58:	9d 60 ff ff 	l.addi r11,r0,0xffffffff
    1b5c:	9c 80 00 00 	l.addi r4,r0,0x0
    1b60:	a8 cb 00 00 	l.ori r6,r11,0x0
    1b64:	b8 64 00 02 	l.slli r3,r4,0x2
    1b68:	18 e0 00 01 	l.movhi r7,0x1
    1b6c:	a8 e7 4e 50 	l.ori r7,r7,0x4e50
    1b70:	e0 a3 38 00 	l.add r5,r3,r7
    1b74:	18 e0 00 01 	l.movhi r7,0x1
    1b78:	a8 e7 31 e0 	l.ori r7,r7,0x31e0
    1b7c:	e0 63 38 00 	l.add r3,r3,r7
    1b80:	84 63 00 00 	l.lwz r3,0x0(r3)
    1b84:	bc 23 00 00 	l.sfnei r3,0x0
    1b88:	10 00 00 08 	l.bf 1ba8 <_getEmptyIndex+0x5c>
    1b8c:	15 00 00 00 	l.nop 0x0
    1b90:	84 65 00 00 	l.lwz r3,0x0(r5)
    1b94:	e4 43 30 00 	l.sfgtu r3,r6
    1b98:	10 00 00 04 	l.bf 1ba8 <_getEmptyIndex+0x5c>
    1b9c:	15 00 00 00 	l.nop 0x0
    1ba0:	a8 c3 00 00 	l.ori r6,r3,0x0
    1ba4:	a9 64 00 00 	l.ori r11,r4,0x0
    1ba8:	9c 84 00 01 	l.addi r4,r4,0x1
    1bac:	bd 44 00 03 	l.sfgtsi r4,0x3
    1bb0:	0f ff ff ee 	l.bnf 1b68 <_getEmptyIndex+0x1c>
    1bb4:	b8 64 00 02 	l.slli r3,r4,0x2
    1bb8:	84 41 00 00 	l.lwz r2,0x0(r1)
    1bbc:	44 00 48 00 	l.jr r9
    1bc0:	9c 21 00 04 	l.addi r1,r1,0x4

00001bc4 <_bufferPush>:
    1bc4:	9c 21 ff fc 	l.addi r1,r1,0xfffffffc
    1bc8:	d4 01 10 00 	l.sw 0x0(r1),r2
    1bcc:	9c 41 00 04 	l.addi r2,r1,0x4
    1bd0:	b8 63 00 02 	l.slli r3,r3,0x2
    1bd4:	18 80 00 01 	l.movhi r4,0x1
    1bd8:	a8 84 31 e0 	l.ori r4,r4,0x31e0
    1bdc:	e0 63 20 00 	l.add r3,r3,r4
    1be0:	9c 80 00 01 	l.addi r4,r0,0x1
    1be4:	d4 03 20 00 	l.sw 0x0(r3),r4
    1be8:	84 41 00 00 	l.lwz r2,0x0(r1)
    1bec:	44 00 48 00 	l.jr r9
    1bf0:	9c 21 00 04 	l.addi r1,r1,0x4

00001bf4 <_addSendAfterTX>:
    1bf4:	9c 21 ff fc 	l.addi r1,r1,0xfffffffc
    1bf8:	d4 01 10 00 	l.sw 0x0(r1),r2
    1bfc:	9c 41 00 04 	l.addi r2,r1,0x4
    1c00:	9c a0 00 00 	l.addi r5,r0,0x0
    1c04:	18 c0 00 01 	l.movhi r6,0x1
    1c08:	a8 c6 3a 10 	l.ori r6,r6,0x3a10
    1c0c:	84 86 00 00 	l.lwz r4,0x0(r6)
    1c10:	bc 24 ff ff 	l.sfnei r4,0xffffffff
    1c14:	0c 00 00 07 	l.bnf 1c30 <_addSendAfterTX+0x3c>
    1c18:	9c a5 00 01 	l.addi r5,r5,0x1
    1c1c:	bd 45 00 03 	l.sfgtsi r5,0x3
    1c20:	0f ff ff fb 	l.bnf 1c0c <_addSendAfterTX+0x18>
    1c24:	9c c6 00 04 	l.addi r6,r6,0x4
    1c28:	00 00 00 03 	l.j 1c34 <_addSendAfterTX+0x40>
    1c2c:	15 00 00 00 	l.nop 0x0
    1c30:	d4 06 18 00 	l.sw 0x0(r6),r3
    1c34:	84 41 00 00 	l.lwz r2,0x0(r1)
    1c38:	44 00 48 00 	l.jr r9
    1c3c:	9c 21 00 04 	l.addi r1,r1,0x4

00001c40 <_popSendAfterTX>:
    1c40:	9c 21 ff fc 	l.addi r1,r1,0xfffffffc
    1c44:	d4 01 10 00 	l.sw 0x0(r1),r2
    1c48:	9c 41 00 04 	l.addi r2,r1,0x4
    1c4c:	18 80 00 01 	l.movhi r4,0x1
    1c50:	a8 84 3a 10 	l.ori r4,r4,0x3a10
    1c54:	9c 60 00 00 	l.addi r3,r0,0x0
    1c58:	bc 23 00 03 	l.sfnei r3,0x3
    1c5c:	0c 00 00 03 	l.bnf 1c68 <_popSendAfterTX+0x28>
    1c60:	9c a0 ff ff 	l.addi r5,r0,0xffffffff
    1c64:	84 a4 00 04 	l.lwz r5,0x4(r4)
    1c68:	d4 04 28 00 	l.sw 0x0(r4),r5
    1c6c:	9c 63 00 01 	l.addi r3,r3,0x1
    1c70:	bd 43 00 03 	l.sfgtsi r3,0x3
    1c74:	0f ff ff f9 	l.bnf 1c58 <_popSendAfterTX+0x18>
    1c78:	9c 84 00 04 	l.addi r4,r4,0x4
    1c7c:	84 41 00 00 	l.lwz r2,0x0(r1)
    1c80:	44 00 48 00 	l.jr r9
    1c84:	9c 21 00 04 	l.addi r1,r1,0x4

00001c88 <_bufferPop>:
    1c88:	9c 21 ff fc 	l.addi r1,r1,0xfffffffc
    1c8c:	d4 01 10 00 	l.sw 0x0(r1),r2
    1c90:	9c 41 00 04 	l.addi r2,r1,0x4
    1c94:	b8 63 00 02 	l.slli r3,r3,0x2
    1c98:	18 a0 00 01 	l.movhi r5,0x1
    1c9c:	a8 a5 4e 50 	l.ori r5,r5,0x4e50
    1ca0:	18 c0 00 01 	l.movhi r6,0x1
    1ca4:	a8 c6 31 e0 	l.ori r6,r6,0x31e0
    1ca8:	e0 83 28 00 	l.add r4,r3,r5
    1cac:	e0 63 30 00 	l.add r3,r3,r6
    1cb0:	84 a4 00 00 	l.lwz r5,0x0(r4)
    1cb4:	9c c0 00 00 	l.addi r6,r0,0x0
    1cb8:	d4 03 30 00 	l.sw 0x0(r3),r6
    1cbc:	9c 65 00 01 	l.addi r3,r5,0x1
    1cc0:	d4 04 18 00 	l.sw 0x0(r4),r3
    1cc4:	84 41 00 00 	l.lwz r2,0x0(r1)
    1cc8:	44 00 48 00 	l.jr r9
    1ccc:	9c 21 00 04 	l.addi r1,r1,0x4

00001cd0 <_OVP_init>:
    1cd0:	9c 21 ff e8 	l.addi r1,r1,0xffffffe8
    1cd4:	d4 01 10 0c 	l.sw 0xc(r1),r2
    1cd8:	9c 41 00 18 	l.addi r2,r1,0x18
    1cdc:	d4 01 48 08 	l.sw 0x8(r1),r9
    1ce0:	d4 01 50 10 	l.sw 0x10(r1),r10
    1ce4:	d4 01 60 14 	l.sw 0x14(r1),r12
    1ce8:	04 00 09 89 	l.jal 430c <_int_init>
    1cec:	15 00 00 00 	l.nop 0x0
    1cf0:	9c 60 00 00 	l.addi r3,r0,0x0
    1cf4:	18 80 00 00 	l.movhi r4,0x0
    1cf8:	a8 84 35 94 	l.ori r4,r4,0x3594
    1cfc:	04 00 09 c3 	l.jal 4408 <_int_add>
    1d00:	a8 a3 00 00 	l.ori r5,r3,0x0
    1d04:	9c 60 00 01 	l.addi r3,r0,0x1
    1d08:	18 80 00 00 	l.movhi r4,0x0
    1d0c:	a8 84 27 08 	l.ori r4,r4,0x2708
    1d10:	04 00 09 be 	l.jal 4408 <_int_add>
    1d14:	9c a0 00 00 	l.addi r5,r0,0x0
    1d18:	18 80 00 00 	l.movhi r4,0x0
    1d1c:	a8 84 29 40 	l.ori r4,r4,0x2940
    1d20:	9c a0 00 00 	l.addi r5,r0,0x0
    1d24:	04 00 09 b9 	l.jal 4408 <_int_add>
    1d28:	9c 60 00 02 	l.addi r3,r0,0x2
    1d2c:	04 00 0a 49 	l.jal 4650 <_int_enable>
    1d30:	9c 60 00 00 	l.addi r3,r0,0x0
    1d34:	04 00 0a 47 	l.jal 4650 <_int_enable>
    1d38:	9c 60 00 01 	l.addi r3,r0,0x1
    1d3c:	04 00 0a 45 	l.jal 4650 <_int_enable>
    1d40:	9c 60 00 02 	l.addi r3,r0,0x2
    1d44:	9c 80 00 11 	l.addi r4,r0,0x11
    1d48:	b4 64 00 00 	l.mfspr r3,r4,0x0
    1d4c:	a8 63 00 04 	l.ori r3,r3,0x4
    1d50:	c0 04 18 00 	l.mtspr r4,r3,0x0
    1d54:	19 80 00 01 	l.movhi r12,0x1
    1d58:	a9 8c 27 e4 	l.ori r12,r12,0x27e4
    1d5c:	04 00 0b 11 	l.jal 49a0 <_impProcessorId>
    1d60:	85 4c 00 00 	l.lwz r10,0x0(r12)
    1d64:	84 6c 00 00 	l.lwz r3,0x0(r12)
    1d68:	18 80 00 01 	l.movhi r4,0x1
    1d6c:	a8 84 1c 18 	l.ori r4,r4,0x1c18
    1d70:	d4 0a 58 00 	l.sw 0x0(r10),r11
    1d74:	d4 01 20 00 	l.sw 0x0(r1),r4
    1d78:	84 63 00 00 	l.lwz r3,0x0(r3)
    1d7c:	04 00 0d 4f 	l.jal 52b8 <_printf>
    1d80:	d4 01 18 04 	l.sw 0x4(r1),r3
    1d84:	18 60 00 01 	l.movhi r3,0x1
    1d88:	a8 63 27 cc 	l.ori r3,r3,0x27cc
    1d8c:	18 c0 00 01 	l.movhi r6,0x1
    1d90:	a8 c6 4e 60 	l.ori r6,r6,0x4e60
    1d94:	84 63 00 00 	l.lwz r3,0x0(r3)
    1d98:	18 80 00 01 	l.movhi r4,0x1
    1d9c:	a8 84 27 bc 	l.ori r4,r4,0x27bc
    1da0:	9c a0 00 00 	l.addi r5,r0,0x0
    1da4:	d4 03 30 00 	l.sw 0x0(r3),r6
    1da8:	d4 03 20 00 	l.sw 0x0(r3),r4
    1dac:	b8 65 00 02 	l.slli r3,r5,0x2
    1db0:	18 c0 00 01 	l.movhi r6,0x1
    1db4:	a8 c6 3a 10 	l.ori r6,r6,0x3a10
    1db8:	e0 83 30 00 	l.add r4,r3,r6
    1dbc:	9c a5 00 01 	l.addi r5,r5,0x1
    1dc0:	18 c0 00 01 	l.movhi r6,0x1
    1dc4:	a8 c6 31 e0 	l.ori r6,r6,0x31e0
    1dc8:	bd 45 00 03 	l.sfgtsi r5,0x3
    1dcc:	e0 63 30 00 	l.add r3,r3,r6
    1dd0:	9c c0 ff ff 	l.addi r6,r0,0xffffffff
    1dd4:	d4 04 30 00 	l.sw 0x0(r4),r6
    1dd8:	9c 80 00 00 	l.addi r4,r0,0x0
    1ddc:	0f ff ff f4 	l.bnf 1dac <_OVP_init+0xdc>
    1de0:	d4 03 20 00 	l.sw 0x0(r3),r4
    1de4:	a8 a4 00 00 	l.ori r5,r4,0x0
    1de8:	18 60 00 01 	l.movhi r3,0x1
    1dec:	a8 63 81 80 	l.ori r3,r3,0x8180
    1df0:	9c c0 00 00 	l.addi r6,r0,0x0
    1df4:	9c a5 00 01 	l.addi r5,r5,0x1
    1df8:	d4 03 30 00 	l.sw 0x0(r3),r6
    1dfc:	bd 45 00 50 	l.sfgtsi r5,0x50
    1e00:	0f ff ff fc 	l.bnf 1df0 <_OVP_init+0x120>
    1e04:	9c 63 00 04 	l.addi r3,r3,0x4
    1e08:	9c 80 ff ff 	l.addi r4,r0,0xffffffff
    1e0c:	18 60 00 01 	l.movhi r3,0x1
    1e10:	a8 63 30 84 	l.ori r3,r3,0x3084
    1e14:	85 4c 00 00 	l.lwz r10,0x0(r12)
    1e18:	d4 03 20 00 	l.sw 0x0(r3),r4
    1e1c:	84 6a 00 00 	l.lwz r3,0x0(r10)
    1e20:	07 ff fd 79 	l.jal 1404 <_getXpos>
    1e24:	15 00 00 00 	l.nop 0x0
    1e28:	18 60 00 01 	l.movhi r3,0x1
    1e2c:	a8 63 27 dc 	l.ori r3,r3,0x27dc
    1e30:	85 83 00 00 	l.lwz r12,0x0(r3)
    1e34:	d4 0c 58 00 	l.sw 0x0(r12),r11
    1e38:	84 6a 00 00 	l.lwz r3,0x0(r10)
    1e3c:	07 ff fd 7a 	l.jal 1424 <_getYpos>
    1e40:	15 00 00 00 	l.nop 0x0
    1e44:	18 60 00 01 	l.movhi r3,0x1
    1e48:	a8 63 27 e0 	l.ori r3,r3,0x27e0
    1e4c:	d4 0c 58 00 	l.sw 0x0(r12),r11
    1e50:	84 83 00 00 	l.lwz r4,0x0(r3)
    1e54:	9c c0 03 e8 	l.addi r6,r0,0x3e8
    1e58:	18 60 00 01 	l.movhi r3,0x1
    1e5c:	a8 63 27 d4 	l.ori r3,r3,0x27d4
    1e60:	d4 04 30 00 	l.sw 0x0(r4),r6
    1e64:	84 a3 00 00 	l.lwz r5,0x0(r3)
    1e68:	18 60 00 01 	l.movhi r3,0x1
    1e6c:	a8 63 27 d0 	l.ori r3,r3,0x27d0
    1e70:	84 83 00 00 	l.lwz r4,0x0(r3)
    1e74:	9c 60 00 00 	l.addi r3,r0,0x0
    1e78:	d4 05 18 00 	l.sw 0x0(r5),r3
    1e7c:	84 64 00 00 	l.lwz r3,0x0(r4)
    1e80:	bc 03 00 51 	l.sfeqi r3,0x51
    1e84:	0f ff ff fe 	l.bnf 1e7c <_OVP_init+0x1ac>
    1e88:	15 00 00 00 	l.nop 0x0
    1e8c:	04 00 0d 1a 	l.jal 52f4 <_clock>
    1e90:	15 00 00 00 	l.nop 0x0
    1e94:	18 60 00 01 	l.movhi r3,0x1
    1e98:	a8 63 76 80 	l.ori r3,r3,0x7680
    1e9c:	d4 03 58 00 	l.sw 0x0(r3),r11
    1ea0:	18 60 00 01 	l.movhi r3,0x1
    1ea4:	a8 63 26 ec 	l.ori r3,r3,0x26ec
    1ea8:	07 ff fc 21 	l.jal f2c <_ResetExecutedInstructions>
    1eac:	d4 03 58 00 	l.sw 0x0(r3),r11
    1eb0:	85 21 00 08 	l.lwz r9,0x8(r1)
    1eb4:	84 41 00 0c 	l.lwz r2,0xc(r1)
    1eb8:	85 41 00 10 	l.lwz r10,0x10(r1)
    1ebc:	85 81 00 14 	l.lwz r12,0x14(r1)
    1ec0:	44 00 48 00 	l.jr r9
    1ec4:	9c 21 00 18 	l.addi r1,r1,0x18

00001ec8 <_ReceiveRaw>:
    1ec8:	9c 21 ff f4 	l.addi r1,r1,0xfffffff4
    1ecc:	d4 01 10 04 	l.sw 0x4(r1),r2
    1ed0:	9c 41 00 0c 	l.addi r2,r1,0xc
    1ed4:	d4 01 48 00 	l.sw 0x0(r1),r9
    1ed8:	d4 01 50 08 	l.sw 0x8(r1),r10
    1edc:	18 80 00 01 	l.movhi r4,0x1
    1ee0:	a8 84 46 30 	l.ori r4,r4,0x4630
    1ee4:	19 40 00 01 	l.movhi r10,0x1
    1ee8:	a9 4a 46 24 	l.ori r10,r10,0x4624
    1eec:	07 ff fd af 	l.jal 15a8 <_printi>
    1ef0:	d4 04 18 00 	l.sw 0x0(r4),r3
    1ef4:	9c 60 00 00 	l.addi r3,r0,0x0
    1ef8:	18 80 00 01 	l.movhi r4,0x1
    1efc:	a8 84 27 b8 	l.ori r4,r4,0x27b8
    1f00:	d4 0a 18 00 	l.sw 0x0(r10),r3
    1f04:	9c a0 00 01 	l.addi r5,r0,0x1
    1f08:	9c 60 00 02 	l.addi r3,r0,0x2
    1f0c:	d4 04 28 00 	l.sw 0x0(r4),r5
    1f10:	04 00 09 d0 	l.jal 4650 <_int_enable>
    1f14:	15 00 00 00 	l.nop 0x0
    1f18:	18 80 00 01 	l.movhi r4,0x1
    1f1c:	a8 84 26 d8 	l.ori r4,r4,0x26d8
    1f20:	9c a0 00 01 	l.addi r5,r0,0x1
    1f24:	84 64 00 00 	l.lwz r3,0x0(r4)
    1f28:	d4 03 28 00 	l.sw 0x0(r3),r5
    1f2c:	84 6a 00 00 	l.lwz r3,0x0(r10)
    1f30:	bc 23 00 00 	l.sfnei r3,0x0
    1f34:	0f ff ff fe 	l.bnf 1f2c <_ReceiveRaw+0x64>
    1f38:	15 00 00 00 	l.nop 0x0
    1f3c:	84 64 00 00 	l.lwz r3,0x0(r4)
    1f40:	9c 80 00 00 	l.addi r4,r0,0x0
    1f44:	d4 03 20 00 	l.sw 0x0(r3),r4
    1f48:	85 21 00 00 	l.lwz r9,0x0(r1)
    1f4c:	84 41 00 04 	l.lwz r2,0x4(r1)
    1f50:	85 41 00 08 	l.lwz r10,0x8(r1)
    1f54:	44 00 48 00 	l.jr r9
    1f58:	9c 21 00 0c 	l.addi r1,r1,0xc

00001f5c <_getAddress>:
    1f5c:	9c 21 ff f4 	l.addi r1,r1,0xfffffff4
    1f60:	d4 01 10 04 	l.sw 0x4(r1),r2
    1f64:	9c 41 00 0c 	l.addi r2,r1,0xc
    1f68:	d4 01 48 00 	l.sw 0x0(r1),r9
    1f6c:	d4 01 50 08 	l.sw 0x8(r1),r10
    1f70:	a9 43 00 00 	l.ori r10,r3,0x0
    1f74:	04 00 0b 16 	l.jal 4bcc <___udivsi3>
    1f78:	9c 80 00 09 	l.addi r4,r0,0x9
    1f7c:	b8 6b 00 03 	l.slli r3,r11,0x3
    1f80:	a8 8b 00 00 	l.ori r4,r11,0x0
    1f84:	e1 63 58 00 	l.add r11,r3,r11
    1f88:	07 ff fd 92 	l.jal 15d0 <_makeAddress>
    1f8c:	e0 6a 58 02 	l.sub r3,r10,r11
    1f90:	85 21 00 00 	l.lwz r9,0x0(r1)
    1f94:	84 41 00 04 	l.lwz r2,0x4(r1)
    1f98:	85 41 00 08 	l.lwz r10,0x8(r1)
    1f9c:	44 00 48 00 	l.jr r9
    1fa0:	9c 21 00 0c 	l.addi r1,r1,0xc

00001fa4 <_checkPendingReq>:
    1fa4:	9c 21 ff fc 	l.addi r1,r1,0xfffffffc
    1fa8:	d4 01 10 00 	l.sw 0x0(r1),r2
    1fac:	9c 41 00 04 	l.addi r2,r1,0x4
    1fb0:	b8 63 00 02 	l.slli r3,r3,0x2
    1fb4:	18 80 00 01 	l.movhi r4,0x1
    1fb8:	a8 84 81 80 	l.ori r4,r4,0x8180
    1fbc:	9d 60 00 01 	l.addi r11,r0,0x1
    1fc0:	e0 63 20 00 	l.add r3,r3,r4
    1fc4:	84 63 00 00 	l.lwz r3,0x0(r3)
    1fc8:	bc 23 00 20 	l.sfnei r3,0x20
    1fcc:	0c 00 00 03 	l.bnf 1fd8 <_checkPendingReq+0x34>
    1fd0:	15 00 00 00 	l.nop 0x0
    1fd4:	9d 60 00 00 	l.addi r11,r0,0x0
    1fd8:	84 41 00 00 	l.lwz r2,0x0(r1)
    1fdc:	44 00 48 00 	l.jr r9
    1fe0:	9c 21 00 04 	l.addi r1,r1,0x4

00001fe4 <_getID>:
    1fe4:	9c 21 ff f0 	l.addi r1,r1,0xfffffff0
    1fe8:	d4 01 10 04 	l.sw 0x4(r1),r2
    1fec:	9c 41 00 10 	l.addi r2,r1,0x10
    1ff0:	d4 01 48 00 	l.sw 0x0(r1),r9
    1ff4:	d4 01 50 08 	l.sw 0x8(r1),r10
    1ff8:	d4 01 60 0c 	l.sw 0xc(r1),r12
    1ffc:	07 ff fd 02 	l.jal 1404 <_getXpos>
    2000:	a9 43 00 00 	l.ori r10,r3,0x0
    2004:	a9 8b 00 00 	l.ori r12,r11,0x0
    2008:	07 ff fd 07 	l.jal 1424 <_getYpos>
    200c:	a8 6a 00 00 	l.ori r3,r10,0x0
    2010:	b8 6b 00 03 	l.slli r3,r11,0x3
    2014:	e1 63 58 00 	l.add r11,r3,r11
    2018:	e1 6b 60 00 	l.add r11,r11,r12
    201c:	85 21 00 00 	l.lwz r9,0x0(r1)
    2020:	84 41 00 04 	l.lwz r2,0x4(r1)
    2024:	85 41 00 08 	l.lwz r10,0x8(r1)
    2028:	85 81 00 0c 	l.lwz r12,0xc(r1)
    202c:	44 00 48 00 	l.jr r9
    2030:	9c 21 00 10 	l.addi r1,r1,0x10

00002034 <_SendRaw>:
    2034:	9c 21 ff fc 	l.addi r1,r1,0xfffffffc
    2038:	d4 01 10 00 	l.sw 0x0(r1),r2
    203c:	9c 41 00 04 	l.addi r2,r1,0x4
    2040:	18 80 00 01 	l.movhi r4,0x1
    2044:	a8 84 27 cc 	l.ori r4,r4,0x27cc
    2048:	84 a4 00 00 	l.lwz r5,0x0(r4)
    204c:	18 80 00 01 	l.movhi r4,0x1
    2050:	a8 84 27 c8 	l.ori r4,r4,0x27c8
    2054:	d4 05 18 00 	l.sw 0x0(r5),r3
    2058:	84 84 00 00 	l.lwz r4,0x0(r4)
    205c:	9c 60 22 22 	l.addi r3,r0,0x2222
    2060:	d4 04 18 00 	l.sw 0x0(r4),r3
    2064:	84 41 00 00 	l.lwz r2,0x0(r1)
    2068:	44 00 48 00 	l.jr r9
    206c:	9c 21 00 04 	l.addi r1,r1,0x4

00002070 <_SendSlot>:
    2070:	9c 21 ff ec 	l.addi r1,r1,0xffffffec
    2074:	d4 01 10 04 	l.sw 0x4(r1),r2
    2078:	9c 41 00 14 	l.addi r2,r1,0x14
    207c:	d4 01 48 00 	l.sw 0x0(r1),r9
    2080:	d4 01 50 08 	l.sw 0x8(r1),r10
    2084:	d4 01 60 0c 	l.sw 0xc(r1),r12
    2088:	d4 01 70 10 	l.sw 0x10(r1),r14
    208c:	19 c0 00 01 	l.movhi r14,0x1
    2090:	a9 ce 27 c8 	l.ori r14,r14,0x27c8
    2094:	a9 83 00 00 	l.ori r12,r3,0x0
    2098:	84 ae 00 00 	l.lwz r5,0x0(r14)
    209c:	a9 44 00 00 	l.ori r10,r4,0x0
    20a0:	84 65 00 00 	l.lwz r3,0x0(r5)
    20a4:	bc 03 00 ff 	l.sfeqi r3,0xff
    20a8:	10 00 00 1a 	l.bf 2110 <_SendSlot+0xa0>
    20ac:	15 00 00 00 	l.nop 0x0
    20b0:	18 c0 00 01 	l.movhi r6,0x1
    20b4:	a8 c6 26 d8 	l.ori r6,r6,0x26d8
    20b8:	84 86 00 00 	l.lwz r4,0x0(r6)
    20bc:	9c 60 00 01 	l.addi r3,r0,0x1
    20c0:	d4 04 18 00 	l.sw 0x0(r4),r3
    20c4:	84 65 00 00 	l.lwz r3,0x0(r5)
    20c8:	bc 03 00 ff 	l.sfeqi r3,0xff
    20cc:	0f ff ff fc 	l.bnf 20bc <_SendSlot+0x4c>
    20d0:	15 00 00 00 	l.nop 0x0
    20d4:	84 86 00 00 	l.lwz r4,0x0(r6)
    20d8:	9c a0 00 00 	l.addi r5,r0,0x0
    20dc:	9c 60 00 01 	l.addi r3,r0,0x1
    20e0:	d4 04 28 00 	l.sw 0x0(r4),r5
    20e4:	04 00 09 24 	l.jal 4574 <_int_disable>
    20e8:	15 00 00 00 	l.nop 0x0
    20ec:	04 00 09 22 	l.jal 4574 <_int_disable>
    20f0:	9c 60 00 00 	l.addi r3,r0,0x0
    20f4:	84 8e 00 00 	l.lwz r4,0x0(r14)
    20f8:	84 64 00 00 	l.lwz r3,0x0(r4)
    20fc:	bc 03 00 ff 	l.sfeqi r3,0xff
    2100:	0f ff ff fe 	l.bnf 20f8 <_SendSlot+0x88>
    2104:	a8 6c 00 00 	l.ori r3,r12,0x0
    2108:	00 00 00 06 	l.j 2120 <_SendSlot+0xb0>
    210c:	15 00 00 00 	l.nop 0x0
    2110:	18 c0 00 01 	l.movhi r6,0x1
    2114:	a8 c6 26 d8 	l.ori r6,r6,0x26d8
    2118:	03 ff ff f0 	l.j 20d8 <_SendSlot+0x68>
    211c:	84 86 00 00 	l.lwz r4,0x0(r6)
    2120:	18 80 00 01 	l.movhi r4,0x1
    2124:	a8 84 27 c0 	l.ori r4,r4,0x27c0
    2128:	d4 04 50 00 	l.sw 0x0(r4),r10
    212c:	07 ff ff c2 	l.jal 2034 <_SendRaw>
    2130:	15 00 00 00 	l.nop 0x0
    2134:	04 00 09 47 	l.jal 4650 <_int_enable>
    2138:	9c 60 00 00 	l.addi r3,r0,0x0
    213c:	04 00 09 45 	l.jal 4650 <_int_enable>
    2140:	9c 60 00 01 	l.addi r3,r0,0x1
    2144:	85 21 00 00 	l.lwz r9,0x0(r1)
    2148:	84 41 00 04 	l.lwz r2,0x4(r1)
    214c:	85 41 00 08 	l.lwz r10,0x8(r1)
    2150:	85 81 00 0c 	l.lwz r12,0xc(r1)
    2154:	85 c1 00 10 	l.lwz r14,0x10(r1)
    2158:	44 00 48 00 	l.jr r9
    215c:	9c 21 00 14 	l.addi r1,r1,0x14

00002160 <_SendMessage>:
    2160:	9c 21 ff e4 	l.addi r1,r1,0xffffffe4
    2164:	d4 01 10 04 	l.sw 0x4(r1),r2
    2168:	9c 41 00 1c 	l.addi r2,r1,0x1c
    216c:	d4 01 48 00 	l.sw 0x0(r1),r9
    2170:	d4 01 50 08 	l.sw 0x8(r1),r10
    2174:	d4 01 60 0c 	l.sw 0xc(r1),r12
    2178:	d4 01 70 10 	l.sw 0x10(r1),r14
    217c:	d4 01 80 14 	l.sw 0x14(r1),r16
    2180:	d4 01 90 18 	l.sw 0x18(r1),r18
    2184:	1a 00 00 01 	l.movhi r16,0x1
    2188:	aa 10 26 d8 	l.ori r16,r16,0x26d8
    218c:	a9 83 00 00 	l.ori r12,r3,0x0
    2190:	a9 c4 00 00 	l.ori r14,r4,0x0
    2194:	84 70 00 00 	l.lwz r3,0x0(r16)
    2198:	9c 80 00 01 	l.addi r4,r0,0x1
    219c:	d4 03 20 00 	l.sw 0x0(r3),r4
    21a0:	07 ff fe 6b 	l.jal 1b4c <_getEmptyIndex>
    21a4:	15 00 00 00 	l.nop 0x0
    21a8:	bc 2b ff ff 	l.sfnei r11,0xffffffff
    21ac:	0f ff ff fd 	l.bnf 21a0 <_SendMessage+0x40>
    21b0:	a9 4b 00 00 	l.ori r10,r11,0x0
    21b4:	84 70 00 00 	l.lwz r3,0x0(r16)
    21b8:	9c a0 00 00 	l.addi r5,r0,0x0
    21bc:	ba 4e 00 02 	l.slli r18,r14,0x2
    21c0:	d4 03 28 00 	l.sw 0x0(r3),r5
    21c4:	ba 0b 00 0b 	l.slli r16,r11,0xb
    21c8:	18 a0 00 01 	l.movhi r5,0x1
    21cc:	a8 a5 44 e0 	l.ori r5,r5,0x44e0
    21d0:	18 c0 00 01 	l.movhi r6,0x1
    21d4:	a8 c6 56 80 	l.ori r6,r6,0x5680
    21d8:	e0 92 28 00 	l.add r4,r18,r5
    21dc:	e0 70 30 00 	l.add r3,r16,r6
    21e0:	84 84 00 00 	l.lwz r4,0x0(r4)
    21e4:	9c c0 00 30 	l.addi r6,r0,0x30
    21e8:	9c a0 00 00 	l.addi r5,r0,0x0
    21ec:	d4 03 20 00 	l.sw 0x0(r3),r4
    21f0:	84 8c 08 00 	l.lwz r4,0x800(r12)
    21f4:	9c 84 00 05 	l.addi r4,r4,0x5
    21f8:	d4 03 30 0c 	l.sw 0xc(r3),r6
    21fc:	d4 03 20 04 	l.sw 0x4(r3),r4
    2200:	d4 03 70 08 	l.sw 0x8(r3),r14
    2204:	84 6c 08 00 	l.lwz r3,0x800(r12)
    2208:	e4 a3 28 00 	l.sfleu r3,r5
    220c:	10 00 00 0e 	l.bf 2244 <_SendMessage+0xe4>
    2210:	15 00 00 00 	l.nop 0x0
    2214:	18 60 00 01 	l.movhi r3,0x1
    2218:	a8 63 56 90 	l.ori r3,r3,0x5690
    221c:	e0 90 18 00 	l.add r4,r16,r3
    2220:	a8 6c 00 00 	l.ori r3,r12,0x0
    2224:	84 c3 00 00 	l.lwz r6,0x0(r3)
    2228:	9c a5 00 01 	l.addi r5,r5,0x1
    222c:	d4 04 30 00 	l.sw 0x0(r4),r6
    2230:	9c 63 00 04 	l.addi r3,r3,0x4
    2234:	84 cc 08 00 	l.lwz r6,0x800(r12)
    2238:	e4 65 30 00 	l.sfgeu r5,r6
    223c:	0f ff ff fa 	l.bnf 2224 <_SendMessage+0xc4>
    2240:	9c 84 00 04 	l.addi r4,r4,0x4
    2244:	07 ff fe 60 	l.jal 1bc4 <_bufferPush>
    2248:	a8 6a 00 00 	l.ori r3,r10,0x0
    224c:	07 ff ff 56 	l.jal 1fa4 <_checkPendingReq>
    2250:	a8 6e 00 00 	l.ori r3,r14,0x0
    2254:	bc 0b 00 00 	l.sfeqi r11,0x0
    2258:	10 00 00 0b 	l.bf 2284 <_SendMessage+0x124>
    225c:	9c c0 00 00 	l.addi r6,r0,0x0
    2260:	18 60 00 01 	l.movhi r3,0x1
    2264:	a8 63 81 80 	l.ori r3,r3,0x8180
    2268:	e0 92 18 00 	l.add r4,r18,r3
    226c:	18 a0 00 01 	l.movhi r5,0x1
    2270:	a8 a5 56 80 	l.ori r5,r5,0x5680
    2274:	d4 04 30 00 	l.sw 0x0(r4),r6
    2278:	e0 70 28 00 	l.add r3,r16,r5
    227c:	07 ff ff 7d 	l.jal 2070 <_SendSlot>
    2280:	a8 8a 00 00 	l.ori r4,r10,0x0
    2284:	85 21 00 00 	l.lwz r9,0x0(r1)
    2288:	84 41 00 04 	l.lwz r2,0x4(r1)
    228c:	85 41 00 08 	l.lwz r10,0x8(r1)
    2290:	85 81 00 0c 	l.lwz r12,0xc(r1)
    2294:	85 c1 00 10 	l.lwz r14,0x10(r1)
    2298:	86 01 00 14 	l.lwz r16,0x14(r1)
    229c:	86 41 00 18 	l.lwz r18,0x18(r1)
    22a0:	44 00 48 00 	l.jr r9
    22a4:	9c 21 00 1c 	l.addi r1,r1,0x1c

000022a8 <_forwardMsgRequest>:
    22a8:	9c 21 ff f0 	l.addi r1,r1,0xfffffff0
    22ac:	d4 01 10 04 	l.sw 0x4(r1),r2
    22b0:	9c 41 00 10 	l.addi r2,r1,0x10
    22b4:	d4 01 48 00 	l.sw 0x0(r1),r9
    22b8:	d4 01 50 08 	l.sw 0x8(r1),r10
    22bc:	d4 01 60 0c 	l.sw 0xc(r1),r12
    22c0:	a9 43 00 00 	l.ori r10,r3,0x0
    22c4:	a9 84 00 00 	l.ori r12,r4,0x0
    22c8:	18 60 00 01 	l.movhi r3,0x1
    22cc:	a8 63 1c 3f 	l.ori r3,r3,0x1c3f
    22d0:	a8 8a 00 00 	l.ori r4,r10,0x0
    22d4:	18 a0 00 01 	l.movhi r5,0x1
    22d8:	a8 a5 1c 61 	l.ori r5,r5,0x1c61
    22dc:	07 ff fd ce 	l.jal 1a14 <_putsvsv>
    22e0:	a8 cc 00 00 	l.ori r6,r12,0x0
    22e4:	18 a0 00 01 	l.movhi r5,0x1
    22e8:	a8 a5 76 90 	l.ori r5,r5,0x7690
    22ec:	9c c0 00 06 	l.addi r6,r0,0x6
    22f0:	d4 05 60 00 	l.sw 0x0(r5),r12
    22f4:	b8 8a 00 02 	l.slli r4,r10,0x2
    22f8:	d4 05 30 04 	l.sw 0x4(r5),r6
    22fc:	18 e0 00 01 	l.movhi r7,0x1
    2300:	a8 e7 44 e0 	l.ori r7,r7,0x44e0
    2304:	d4 05 50 08 	l.sw 0x8(r5),r10
    2308:	e0 c4 38 00 	l.add r6,r4,r7
    230c:	a8 65 00 00 	l.ori r3,r5,0x0
    2310:	9c e0 00 20 	l.addi r7,r0,0x20
    2314:	9c 80 ff fe 	l.addi r4,r0,0xfffffffe
    2318:	d4 05 38 0c 	l.sw 0xc(r5),r7
    231c:	84 c6 00 00 	l.lwz r6,0x0(r6)
    2320:	d4 05 30 10 	l.sw 0x10(r5),r6
    2324:	07 ff ff 53 	l.jal 2070 <_SendSlot>
    2328:	15 00 00 00 	l.nop 0x0
    232c:	85 21 00 00 	l.lwz r9,0x0(r1)
    2330:	84 41 00 04 	l.lwz r2,0x4(r1)
    2334:	85 41 00 08 	l.lwz r10,0x8(r1)
    2338:	85 81 00 0c 	l.lwz r12,0xc(r1)
    233c:	44 00 48 00 	l.jr r9
    2340:	9c 21 00 10 	l.addi r1,r1,0x10

00002344 <_sendPendingReq>:
    2344:	9c 21 ff ec 	l.addi r1,r1,0xffffffec
    2348:	d4 01 10 04 	l.sw 0x4(r1),r2
    234c:	9c 41 00 14 	l.addi r2,r1,0x14
    2350:	d4 01 48 00 	l.sw 0x0(r1),r9
    2354:	d4 01 50 08 	l.sw 0x8(r1),r10
    2358:	d4 01 60 0c 	l.sw 0xc(r1),r12
    235c:	d4 01 70 10 	l.sw 0x10(r1),r14
    2360:	a9 43 00 00 	l.ori r10,r3,0x0
    2364:	9d c0 00 00 	l.addi r14,r0,0x0
    2368:	18 60 00 01 	l.movhi r3,0x1
    236c:	a8 63 1c 74 	l.ori r3,r3,0x1c74
    2370:	19 80 00 01 	l.movhi r12,0x1
    2374:	a9 8c 81 80 	l.ori r12,r12,0x8180
    2378:	07 ff fd e3 	l.jal 1b04 <_putsv>
    237c:	a8 8a 00 00 	l.ori r4,r10,0x0
    2380:	18 80 00 01 	l.movhi r4,0x1
    2384:	a8 84 76 90 	l.ori r4,r4,0x7690
    2388:	9c 60 00 56 	l.addi r3,r0,0x56
    238c:	d4 04 50 00 	l.sw 0x0(r4),r10
    2390:	d4 04 18 04 	l.sw 0x4(r4),r3
    2394:	9d 44 00 10 	l.addi r10,r4,0x10
    2398:	18 60 00 01 	l.movhi r3,0x1
    239c:	a8 63 27 b4 	l.ori r3,r3,0x27b4
    23a0:	84 63 00 00 	l.lwz r3,0x0(r3)
    23a4:	d4 04 18 08 	l.sw 0x8(r4),r3
    23a8:	9c 60 00 66 	l.addi r3,r0,0x66
    23ac:	d4 04 18 0c 	l.sw 0xc(r4),r3
    23b0:	84 8c 00 00 	l.lwz r4,0x0(r12)
    23b4:	18 60 00 01 	l.movhi r3,0x1
    23b8:	a8 63 1c 85 	l.ori r3,r3,0x1c85
    23bc:	07 ff fd d2 	l.jal 1b04 <_putsv>
    23c0:	9d ce 00 01 	l.addi r14,r14,0x1
    23c4:	84 6c 00 00 	l.lwz r3,0x0(r12)
    23c8:	bd 4e 00 50 	l.sfgtsi r14,0x50
    23cc:	d4 0a 18 00 	l.sw 0x0(r10),r3
    23d0:	9d 8c 00 04 	l.addi r12,r12,0x4
    23d4:	0f ff ff f7 	l.bnf 23b0 <_sendPendingReq+0x6c>
    23d8:	9d 4a 00 04 	l.addi r10,r10,0x4
    23dc:	18 60 00 01 	l.movhi r3,0x1
    23e0:	a8 63 76 90 	l.ori r3,r3,0x7690
    23e4:	07 ff ff 23 	l.jal 2070 <_SendSlot>
    23e8:	9c 80 ff fe 	l.addi r4,r0,0xfffffffe
    23ec:	18 60 00 01 	l.movhi r3,0x1
    23f0:	a8 63 1c 94 	l.ori r3,r3,0x1c94
    23f4:	07 ff fc 5a 	l.jal 155c <_prints>
    23f8:	15 00 00 00 	l.nop 0x0
    23fc:	85 21 00 00 	l.lwz r9,0x0(r1)
    2400:	84 41 00 04 	l.lwz r2,0x4(r1)
    2404:	85 41 00 08 	l.lwz r10,0x8(r1)
    2408:	85 81 00 0c 	l.lwz r12,0xc(r1)
    240c:	85 c1 00 10 	l.lwz r14,0x10(r1)
    2410:	44 00 48 00 	l.jr r9
    2414:	9c 21 00 14 	l.addi r1,r1,0x14

00002418 <_sendPipe>:
    2418:	9c 21 ff ec 	l.addi r1,r1,0xffffffec
    241c:	d4 01 10 04 	l.sw 0x4(r1),r2
    2420:	9c 41 00 14 	l.addi r2,r1,0x14
    2424:	d4 01 48 00 	l.sw 0x0(r1),r9
    2428:	d4 01 50 08 	l.sw 0x8(r1),r10
    242c:	d4 01 60 0c 	l.sw 0xc(r1),r12
    2430:	d4 01 70 10 	l.sw 0x10(r1),r14
    2434:	a9 c3 00 00 	l.ori r14,r3,0x0
    2438:	9d 40 00 00 	l.addi r10,r0,0x0
    243c:	18 60 00 01 	l.movhi r3,0x1
    2440:	a8 63 1c a7 	l.ori r3,r3,0x1ca7
    2444:	19 80 00 01 	l.movhi r12,0x1
    2448:	a9 8c 31 e0 	l.ori r12,r12,0x31e0
    244c:	07 ff fd ae 	l.jal 1b04 <_putsv>
    2450:	a8 8e 00 00 	l.ori r4,r14,0x0
    2454:	18 80 00 01 	l.movhi r4,0x1
    2458:	a8 84 76 90 	l.ori r4,r4,0x7690
    245c:	9c 60 02 07 	l.addi r3,r0,0x207
    2460:	d4 04 70 00 	l.sw 0x0(r4),r14
    2464:	9c c0 00 64 	l.addi r6,r0,0x64
    2468:	d4 04 18 04 	l.sw 0x4(r4),r3
    246c:	18 60 00 01 	l.movhi r3,0x1
    2470:	a8 63 27 b4 	l.ori r3,r3,0x27b4
    2474:	84 63 00 00 	l.lwz r3,0x0(r3)
    2478:	d4 04 18 08 	l.sw 0x8(r4),r3
    247c:	d4 04 30 0c 	l.sw 0xc(r4),r6
    2480:	84 6c 00 00 	l.lwz r3,0x0(r12)
    2484:	bc 23 00 01 	l.sfnei r3,0x1
    2488:	10 00 00 1a 	l.bf 24f0 <_sendPipe+0xd8>
    248c:	15 00 00 00 	l.nop 0x0
    2490:	07 ff fd fe 	l.jal 1c88 <_bufferPop>
    2494:	a8 6a 00 00 	l.ori r3,r10,0x0
    2498:	18 60 00 01 	l.movhi r3,0x1
    249c:	a8 63 1c b2 	l.ori r3,r3,0x1cb2
    24a0:	07 ff fc 2f 	l.jal 155c <_prints>
    24a4:	15 00 00 00 	l.nop 0x0
    24a8:	b8 6a 00 0b 	l.slli r3,r10,0xb
    24ac:	18 c0 00 01 	l.movhi r6,0x1
    24b0:	a8 c6 56 80 	l.ori r6,r6,0x5680
    24b4:	9c a0 00 00 	l.addi r5,r0,0x0
    24b8:	18 80 00 01 	l.movhi r4,0x1
    24bc:	a8 84 76 a0 	l.ori r4,r4,0x76a0
    24c0:	e0 63 30 00 	l.add r3,r3,r6
    24c4:	84 c3 00 00 	l.lwz r6,0x0(r3)
    24c8:	9c a5 00 01 	l.addi r5,r5,0x1
    24cc:	d4 04 30 00 	l.sw 0x0(r4),r6
    24d0:	9c 63 00 04 	l.addi r3,r3,0x4
    24d4:	bd 45 01 ff 	l.sfgtsi r5,0x1ff
    24d8:	0f ff ff fb 	l.bnf 24c4 <_sendPipe+0xac>
    24dc:	9c 84 00 04 	l.addi r4,r4,0x4
    24e0:	18 60 00 01 	l.movhi r3,0x1
    24e4:	a8 63 76 90 	l.ori r3,r3,0x7690
    24e8:	07 ff fe e2 	l.jal 2070 <_SendSlot>
    24ec:	9c 80 ff fe 	l.addi r4,r0,0xfffffffe
    24f0:	9d 4a 00 01 	l.addi r10,r10,0x1
    24f4:	bd 4a 00 03 	l.sfgtsi r10,0x3
    24f8:	0f ff ff e2 	l.bnf 2480 <_sendPipe+0x68>
    24fc:	9d 8c 00 04 	l.addi r12,r12,0x4
    2500:	85 21 00 00 	l.lwz r9,0x0(r1)
    2504:	84 41 00 04 	l.lwz r2,0x4(r1)
    2508:	85 41 00 08 	l.lwz r10,0x8(r1)
    250c:	85 81 00 0c 	l.lwz r12,0xc(r1)
    2510:	85 c1 00 10 	l.lwz r14,0x10(r1)
    2514:	44 00 48 00 	l.jr r9
    2518:	9c 21 00 14 	l.addi r1,r1,0x14

0000251c <_sendTaskService>:
    251c:	9c 21 ff e8 	l.addi r1,r1,0xffffffe8
    2520:	d4 01 10 04 	l.sw 0x4(r1),r2
    2524:	9c 41 00 18 	l.addi r2,r1,0x18
    2528:	d4 01 48 00 	l.sw 0x0(r1),r9
    252c:	d4 01 50 08 	l.sw 0x8(r1),r10
    2530:	d4 01 60 0c 	l.sw 0xc(r1),r12
    2534:	d4 01 70 10 	l.sw 0x10(r1),r14
    2538:	d4 01 80 14 	l.sw 0x14(r1),r16
    253c:	aa 06 00 00 	l.ori r16,r6,0x0
    2540:	9d c0 00 00 	l.addi r14,r0,0x0
    2544:	18 c0 00 01 	l.movhi r6,0x1
    2548:	a8 c6 76 90 	l.ori r6,r6,0x7690
    254c:	9c f0 00 05 	l.addi r7,r16,0x5
    2550:	d4 06 20 00 	l.sw 0x0(r6),r4
    2554:	e4 b0 70 00 	l.sfleu r16,r14
    2558:	d4 06 38 04 	l.sw 0x4(r6),r7
    255c:	18 80 00 01 	l.movhi r4,0x1
    2560:	a8 84 27 b4 	l.ori r4,r4,0x27b4
    2564:	84 84 00 00 	l.lwz r4,0x0(r4)
    2568:	d4 06 20 08 	l.sw 0x8(r6),r4
    256c:	d4 06 18 0c 	l.sw 0xc(r6),r3
    2570:	10 00 00 12 	l.bf 25b8 <_sendTaskService+0x9c>
    2574:	15 00 00 00 	l.nop 0x0
    2578:	9d 86 00 10 	l.addi r12,r6,0x10
    257c:	a9 45 00 00 	l.ori r10,r5,0x0
    2580:	84 6a 00 00 	l.lwz r3,0x0(r10)
    2584:	a8 8e 00 00 	l.ori r4,r14,0x0
    2588:	18 a0 00 01 	l.movhi r5,0x1
    258c:	a8 a5 1c be 	l.ori r5,r5,0x1cbe
    2590:	d4 0c 18 00 	l.sw 0x0(r12),r3
    2594:	9d ce 00 01 	l.addi r14,r14,0x1
    2598:	84 cc 00 00 	l.lwz r6,0x0(r12)
    259c:	18 60 00 01 	l.movhi r3,0x1
    25a0:	a8 63 1c c7 	l.ori r3,r3,0x1cc7
    25a4:	07 ff fd 1c 	l.jal 1a14 <_putsvsv>
    25a8:	9d 4a 00 04 	l.addi r10,r10,0x4
    25ac:	e4 6e 80 00 	l.sfgeu r14,r16
    25b0:	0f ff ff f4 	l.bnf 2580 <_sendTaskService+0x64>
    25b4:	9d 8c 00 04 	l.addi r12,r12,0x4
    25b8:	18 60 00 01 	l.movhi r3,0x1
    25bc:	a8 63 76 90 	l.ori r3,r3,0x7690
    25c0:	07 ff fe ac 	l.jal 2070 <_SendSlot>
    25c4:	9c 80 ff fe 	l.addi r4,r0,0xfffffffe
    25c8:	85 21 00 00 	l.lwz r9,0x0(r1)
    25cc:	84 41 00 04 	l.lwz r2,0x4(r1)
    25d0:	85 41 00 08 	l.lwz r10,0x8(r1)
    25d4:	85 81 00 0c 	l.lwz r12,0xc(r1)
    25d8:	85 c1 00 10 	l.lwz r14,0x10(r1)
    25dc:	86 01 00 14 	l.lwz r16,0x14(r1)
    25e0:	44 00 48 00 	l.jr r9
    25e4:	9c 21 00 18 	l.addi r1,r1,0x18

000025e8 <_requestMsg>:
    25e8:	9c 21 ff f4 	l.addi r1,r1,0xfffffff4
    25ec:	d4 01 10 04 	l.sw 0x4(r1),r2
    25f0:	9c 41 00 0c 	l.addi r2,r1,0xc
    25f4:	d4 01 48 00 	l.sw 0x0(r1),r9
    25f8:	d4 01 50 08 	l.sw 0x8(r1),r10
    25fc:	b8 63 00 02 	l.slli r3,r3,0x2
    2600:	18 a0 00 01 	l.movhi r5,0x1
    2604:	a8 a5 44 e0 	l.ori r5,r5,0x44e0
    2608:	19 40 00 01 	l.movhi r10,0x1
    260c:	a9 4a 76 90 	l.ori r10,r10,0x7690
    2610:	e0 83 28 00 	l.add r4,r3,r5
    2614:	84 a4 00 00 	l.lwz r5,0x0(r4)
    2618:	18 60 00 01 	l.movhi r3,0x1
    261c:	a8 63 1c d0 	l.ori r3,r3,0x1cd0
    2620:	d4 0a 28 00 	l.sw 0x0(r10),r5
    2624:	84 84 00 00 	l.lwz r4,0x0(r4)
    2628:	07 ff fd 37 	l.jal 1b04 <_putsv>
    262c:	15 00 00 00 	l.nop 0x0
    2630:	9c 60 00 06 	l.addi r3,r0,0x6
    2634:	9c a0 00 20 	l.addi r5,r0,0x20
    2638:	d4 0a 18 04 	l.sw 0x4(r10),r3
    263c:	18 60 00 01 	l.movhi r3,0x1
    2640:	a8 63 27 b4 	l.ori r3,r3,0x27b4
    2644:	84 63 00 00 	l.lwz r3,0x0(r3)
    2648:	d4 0a 18 08 	l.sw 0x8(r10),r3
    264c:	18 60 00 01 	l.movhi r3,0x1
    2650:	a8 63 27 e4 	l.ori r3,r3,0x27e4
    2654:	d4 0a 28 0c 	l.sw 0xc(r10),r5
    2658:	84 83 00 00 	l.lwz r4,0x0(r3)
    265c:	84 84 00 00 	l.lwz r4,0x0(r4)
    2660:	a8 6a 00 00 	l.ori r3,r10,0x0
    2664:	d4 0a 20 10 	l.sw 0x10(r10),r4
    2668:	07 ff fe 82 	l.jal 2070 <_SendSlot>
    266c:	9c 80 ff fe 	l.addi r4,r0,0xfffffffe
    2670:	85 21 00 00 	l.lwz r9,0x0(r1)
    2674:	84 41 00 04 	l.lwz r2,0x4(r1)
    2678:	85 41 00 08 	l.lwz r10,0x8(r1)
    267c:	44 00 48 00 	l.jr r9
    2680:	9c 21 00 0c 	l.addi r1,r1,0xc

00002684 <_ReceiveMessage>:
    2684:	9c 21 ff f4 	l.addi r1,r1,0xfffffff4
    2688:	d4 01 10 04 	l.sw 0x4(r1),r2
    268c:	9c 41 00 0c 	l.addi r2,r1,0xc
    2690:	d4 01 48 00 	l.sw 0x0(r1),r9
    2694:	d4 01 50 08 	l.sw 0x8(r1),r10
    2698:	18 a0 00 01 	l.movhi r5,0x1
    269c:	a8 a5 46 30 	l.ori r5,r5,0x4630
    26a0:	19 40 00 01 	l.movhi r10,0x1
    26a4:	a9 4a 46 24 	l.ori r10,r10,0x4624
    26a8:	d4 05 18 00 	l.sw 0x0(r5),r3
    26ac:	9c 60 00 00 	l.addi r3,r0,0x0
    26b0:	d4 0a 18 00 	l.sw 0x0(r10),r3
    26b4:	07 ff ff cd 	l.jal 25e8 <_requestMsg>
    26b8:	a8 64 00 00 	l.ori r3,r4,0x0
    26bc:	04 00 07 e5 	l.jal 4650 <_int_enable>
    26c0:	9c 60 00 02 	l.addi r3,r0,0x2
    26c4:	18 80 00 01 	l.movhi r4,0x1
    26c8:	a8 84 26 d8 	l.ori r4,r4,0x26d8
    26cc:	9c a0 00 01 	l.addi r5,r0,0x1
    26d0:	84 64 00 00 	l.lwz r3,0x0(r4)
    26d4:	d4 03 28 00 	l.sw 0x0(r3),r5
    26d8:	84 6a 00 00 	l.lwz r3,0x0(r10)
    26dc:	bc 23 00 00 	l.sfnei r3,0x0
    26e0:	0f ff ff fe 	l.bnf 26d8 <_ReceiveMessage+0x54>
    26e4:	15 00 00 00 	l.nop 0x0
    26e8:	84 64 00 00 	l.lwz r3,0x0(r4)
    26ec:	9c 80 00 00 	l.addi r4,r0,0x0
    26f0:	d4 03 20 00 	l.sw 0x0(r3),r4
    26f4:	85 21 00 00 	l.lwz r9,0x0(r1)
    26f8:	84 41 00 04 	l.lwz r2,0x4(r1)
    26fc:	85 41 00 08 	l.lwz r10,0x8(r1)
    2700:	44 00 48 00 	l.jr r9
    2704:	9c 21 00 0c 	l.addi r1,r1,0xc

00002708 <_interruptHandler_NI_TX>:
    2708:	9c 21 ff e4 	l.addi r1,r1,0xffffffe4
    270c:	d4 01 10 10 	l.sw 0x10(r1),r2
    2710:	9c 41 00 1c 	l.addi r2,r1,0x1c
    2714:	d4 01 48 0c 	l.sw 0xc(r1),r9
    2718:	d4 01 50 14 	l.sw 0x14(r1),r10
    271c:	d4 01 60 18 	l.sw 0x18(r1),r12
    2720:	19 80 00 01 	l.movhi r12,0x1
    2724:	a9 8c 27 c0 	l.ori r12,r12,0x27c0
    2728:	84 6c 00 00 	l.lwz r3,0x0(r12)
    272c:	bc 43 00 03 	l.sfgtui r3,0x3
    2730:	0c 00 00 28 	l.bnf 27d0 <_interruptHandler_NI_TX+0xc8>
    2734:	15 00 00 00 	l.nop 0x0
    2738:	84 6c 00 00 	l.lwz r3,0x0(r12)
    273c:	bc 23 ff fe 	l.sfnei r3,0xfffffffe
    2740:	10 00 00 16 	l.bf 2798 <_interruptHandler_NI_TX+0x90>
    2744:	9c 80 ff ff 	l.addi r4,r0,0xffffffff
    2748:	d4 0c 20 00 	l.sw 0x0(r12),r4
    274c:	18 60 00 01 	l.movhi r3,0x1
    2750:	a8 63 27 c8 	l.ori r3,r3,0x27c8
    2754:	9c 80 55 55 	l.addi r4,r0,0x5555
    2758:	84 63 00 00 	l.lwz r3,0x0(r3)
    275c:	d4 03 20 00 	l.sw 0x0(r3),r4
    2760:	18 80 00 01 	l.movhi r4,0x1
    2764:	a8 84 3a 10 	l.ori r4,r4,0x3a10
    2768:	84 84 00 00 	l.lwz r4,0x0(r4)
    276c:	bc 44 00 04 	l.sfgtui r4,0x4
    2770:	0c 00 00 1f 	l.bnf 27ec <_interruptHandler_NI_TX+0xe4>
    2774:	b8 64 00 0b 	l.slli r3,r4,0xb
    2778:	19 40 00 01 	l.movhi r10,0x1
    277c:	a9 4a 26 d4 	l.ori r10,r10,0x26d4
    2780:	84 6a 00 00 	l.lwz r3,0x0(r10)
    2784:	bc 23 00 01 	l.sfnei r3,0x1
    2788:	10 00 00 27 	l.bf 2824 <_interruptHandler_NI_TX+0x11c>
    278c:	15 00 00 00 	l.nop 0x0
    2790:	00 00 00 1f 	l.j 280c <_interruptHandler_NI_TX+0x104>
    2794:	15 00 00 00 	l.nop 0x0
    2798:	19 40 00 01 	l.movhi r10,0x1
    279c:	a9 4a 27 e4 	l.ori r10,r10,0x27e4
    27a0:	84 6a 00 00 	l.lwz r3,0x0(r10)
    27a4:	18 a0 00 01 	l.movhi r5,0x1
    27a8:	a8 a5 1c e6 	l.ori r5,r5,0x1ce6
    27ac:	d4 01 28 00 	l.sw 0x0(r1),r5
    27b0:	84 63 00 00 	l.lwz r3,0x0(r3)
    27b4:	d4 01 18 04 	l.sw 0x4(r1),r3
    27b8:	84 6c 00 00 	l.lwz r3,0x0(r12)
    27bc:	d4 01 18 08 	l.sw 0x8(r1),r3
    27c0:	04 00 0a be 	l.jal 52b8 <_printf>
    27c4:	15 00 00 00 	l.nop 0x0
    27c8:	03 ff ff f7 	l.j 27a4 <_interruptHandler_NI_TX+0x9c>
    27cc:	84 6a 00 00 	l.lwz r3,0x0(r10)
    27d0:	84 6c 00 00 	l.lwz r3,0x0(r12)
    27d4:	07 ff fd 2d 	l.jal 1c88 <_bufferPop>
    27d8:	15 00 00 00 	l.nop 0x0
    27dc:	9c 60 ff ff 	l.addi r3,r0,0xffffffff
    27e0:	d4 0c 18 00 	l.sw 0x0(r12),r3
    27e4:	03 ff ff da 	l.j 274c <_interruptHandler_NI_TX+0x44>
    27e8:	15 00 00 00 	l.nop 0x0
    27ec:	18 a0 00 01 	l.movhi r5,0x1
    27f0:	a8 a5 56 80 	l.ori r5,r5,0x5680
    27f4:	07 ff fe 1f 	l.jal 2070 <_SendSlot>
    27f8:	e0 63 28 00 	l.add r3,r3,r5
    27fc:	07 ff fd 11 	l.jal 1c40 <_popSendAfterTX>
    2800:	15 00 00 00 	l.nop 0x0
    2804:	00 00 00 08 	l.j 2824 <_interruptHandler_NI_TX+0x11c>
    2808:	15 00 00 00 	l.nop 0x0
    280c:	18 60 00 01 	l.movhi r3,0x1
    2810:	a8 63 31 f0 	l.ori r3,r3,0x31f0
    2814:	07 ff fe 17 	l.jal 2070 <_SendSlot>
    2818:	9c 80 ff fe 	l.addi r4,r0,0xfffffffe
    281c:	9c 60 00 00 	l.addi r3,r0,0x0
    2820:	d4 0a 18 00 	l.sw 0x0(r10),r3
    2824:	85 21 00 0c 	l.lwz r9,0xc(r1)
    2828:	84 41 00 10 	l.lwz r2,0x10(r1)
    282c:	85 41 00 14 	l.lwz r10,0x14(r1)
    2830:	85 81 00 18 	l.lwz r12,0x18(r1)
    2834:	44 00 48 00 	l.jr r9
    2838:	9c 21 00 1c 	l.addi r1,r1,0x1c

0000283c <_sendFromMsgBuffer>:
    283c:	9c 21 ff f8 	l.addi r1,r1,0xfffffff8
    2840:	d4 01 10 04 	l.sw 0x4(r1),r2
    2844:	9c 41 00 08 	l.addi r2,r1,0x8
    2848:	d4 01 48 00 	l.sw 0x0(r1),r9
    284c:	b8 a3 00 02 	l.slli r5,r3,0x2
    2850:	18 c0 00 01 	l.movhi r6,0x1
    2854:	a8 c6 44 e0 	l.ori r6,r6,0x44e0
    2858:	9c 80 ff ff 	l.addi r4,r0,0xffffffff
    285c:	e1 25 30 00 	l.add r9,r5,r6
    2860:	9c e0 00 00 	l.addi r7,r0,0x0
    2864:	19 00 00 01 	l.movhi r8,0x1
    2868:	a9 08 56 80 	l.ori r8,r8,0x5680
    286c:	18 c0 00 01 	l.movhi r6,0x1
    2870:	a8 c6 31 e0 	l.ori r6,r6,0x31e0
    2874:	84 a6 00 00 	l.lwz r5,0x0(r6)
    2878:	bc 25 00 01 	l.sfnei r5,0x1
    287c:	10 00 00 09 	l.bf 28a0 <_sendFromMsgBuffer+0x64>
    2880:	9c c6 00 04 	l.addi r6,r6,0x4
    2884:	84 a8 00 08 	l.lwz r5,0x8(r8)
    2888:	e4 25 18 00 	l.sfne r5,r3
    288c:	10 00 00 05 	l.bf 28a0 <_sendFromMsgBuffer+0x64>
    2890:	15 00 00 00 	l.nop 0x0
    2894:	84 89 00 00 	l.lwz r4,0x0(r9)
    2898:	d4 08 20 00 	l.sw 0x0(r8),r4
    289c:	a8 87 00 00 	l.ori r4,r7,0x0
    28a0:	9c e7 00 01 	l.addi r7,r7,0x1
    28a4:	bd 47 00 03 	l.sfgtsi r7,0x3
    28a8:	0f ff ff f3 	l.bnf 2874 <_sendFromMsgBuffer+0x38>
    28ac:	9d 08 08 00 	l.addi r8,r8,0x800
    28b0:	bc 04 ff ff 	l.sfeqi r4,0xffffffff
    28b4:	10 00 00 0f 	l.bf 28f0 <_sendFromMsgBuffer+0xb4>
    28b8:	15 00 00 00 	l.nop 0x0
    28bc:	18 a0 00 01 	l.movhi r5,0x1
    28c0:	a8 a5 27 c8 	l.ori r5,r5,0x27c8
    28c4:	84 a5 00 00 	l.lwz r5,0x0(r5)
    28c8:	84 a5 00 00 	l.lwz r5,0x0(r5)
    28cc:	bc 25 00 ff 	l.sfnei r5,0xff
    28d0:	10 00 00 10 	l.bf 2910 <_sendFromMsgBuffer+0xd4>
    28d4:	b8 64 00 0b 	l.slli r3,r4,0xb
    28d8:	18 a0 00 01 	l.movhi r5,0x1
    28dc:	a8 a5 56 80 	l.ori r5,r5,0x5680
    28e0:	07 ff fd e4 	l.jal 2070 <_SendSlot>
    28e4:	e0 63 28 00 	l.add r3,r3,r5
    28e8:	00 00 00 12 	l.j 2930 <_sendFromMsgBuffer+0xf4>
    28ec:	9d 60 00 01 	l.addi r11,r0,0x1
    28f0:	18 80 00 01 	l.movhi r4,0x1
    28f4:	a8 84 30 84 	l.ori r4,r4,0x3084
    28f8:	84 a4 00 00 	l.lwz r5,0x0(r4)
    28fc:	bc 05 ff ff 	l.sfeqi r5,0xffffffff
    2900:	0c 00 00 08 	l.bnf 2920 <_sendFromMsgBuffer+0xe4>
    2904:	15 00 00 00 	l.nop 0x0
    2908:	00 00 00 0a 	l.j 2930 <_sendFromMsgBuffer+0xf4>
    290c:	9d 60 00 00 	l.addi r11,r0,0x0
    2910:	07 ff fc b9 	l.jal 1bf4 <_addSendAfterTX>
    2914:	a8 64 00 00 	l.ori r3,r4,0x0
    2918:	00 00 00 06 	l.j 2930 <_sendFromMsgBuffer+0xf4>
    291c:	9d 60 00 01 	l.addi r11,r0,0x1
    2920:	84 84 00 00 	l.lwz r4,0x0(r4)
    2924:	07 ff fe 61 	l.jal 22a8 <_forwardMsgRequest>
    2928:	15 00 00 00 	l.nop 0x0
    292c:	9d 60 00 01 	l.addi r11,r0,0x1
    2930:	85 21 00 00 	l.lwz r9,0x0(r1)
    2934:	84 41 00 04 	l.lwz r2,0x4(r1)
    2938:	44 00 48 00 	l.jr r9
    293c:	9c 21 00 08 	l.addi r1,r1,0x8

00002940 <_interruptHandler_NI_RX>:
    2940:	9c 21 ff d8 	l.addi r1,r1,0xffffffd8
    2944:	d4 01 10 0c 	l.sw 0xc(r1),r2
    2948:	9c 41 00 28 	l.addi r2,r1,0x28
    294c:	d4 01 48 08 	l.sw 0x8(r1),r9
    2950:	d4 01 50 10 	l.sw 0x10(r1),r10
    2954:	d4 01 60 14 	l.sw 0x14(r1),r12
    2958:	d4 01 70 18 	l.sw 0x18(r1),r14
    295c:	d4 01 80 1c 	l.sw 0x1c(r1),r16
    2960:	d4 01 90 20 	l.sw 0x20(r1),r18
    2964:	d4 01 a0 24 	l.sw 0x24(r1),r20
    2968:	1a 80 00 01 	l.movhi r20,0x1
    296c:	aa 94 26 d8 	l.ori r20,r20,0x26d8
    2970:	9c a0 00 00 	l.addi r5,r0,0x0
    2974:	84 94 00 00 	l.lwz r4,0x0(r20)
    2978:	18 60 00 01 	l.movhi r3,0x1
    297c:	a8 63 1d 41 	l.ori r3,r3,0x1d41
    2980:	19 80 00 01 	l.movhi r12,0x1
    2984:	a9 8c 4e 60 	l.ori r12,r12,0x4e60
    2988:	86 44 00 00 	l.lwz r18,0x0(r4)
    298c:	a9 cc 00 00 	l.ori r14,r12,0x0
    2990:	d4 04 28 00 	l.sw 0x0(r4),r5
    2994:	07 ff fa f2 	l.jal 155c <_prints>
    2998:	15 00 00 00 	l.nop 0x0
    299c:	84 8c 00 0c 	l.lwz r4,0xc(r12)
    29a0:	18 60 00 01 	l.movhi r3,0x1
    29a4:	a8 63 1d 68 	l.ori r3,r3,0x1d68
    29a8:	07 ff fc 57 	l.jal 1b04 <_putsv>
    29ac:	15 00 00 00 	l.nop 0x0
    29b0:	84 6c 00 0c 	l.lwz r3,0xc(r12)
    29b4:	bc 23 00 50 	l.sfnei r3,0x50
    29b8:	10 00 00 05 	l.bf 29cc <_interruptHandler_NI_RX+0x8c>
    29bc:	9c c0 00 01 	l.addi r6,r0,0x1
    29c0:	18 60 00 01 	l.movhi r3,0x1
    29c4:	a8 63 27 a0 	l.ori r3,r3,0x27a0
    29c8:	d4 03 30 00 	l.sw 0x0(r3),r6
    29cc:	84 6c 00 0c 	l.lwz r3,0xc(r12)
    29d0:	bc 03 00 30 	l.sfeqi r3,0x30
    29d4:	10 00 00 06 	l.bf 29ec <_interruptHandler_NI_RX+0xac>
    29d8:	15 00 00 00 	l.nop 0x0
    29dc:	84 6c 00 0c 	l.lwz r3,0xc(r12)
    29e0:	bc 03 00 40 	l.sfeqi r3,0x40
    29e4:	0c 00 00 29 	l.bnf 2a88 <_interruptHandler_NI_RX+0x148>
    29e8:	15 00 00 00 	l.nop 0x0
    29ec:	18 60 00 01 	l.movhi r3,0x1
    29f0:	a8 63 46 24 	l.ori r3,r3,0x4624
    29f4:	9d 00 00 01 	l.addi r8,r0,0x1
    29f8:	d4 03 40 00 	l.sw 0x0(r3),r8
    29fc:	18 60 00 01 	l.movhi r3,0x1
    2a00:	a8 63 46 30 	l.ori r3,r3,0x4630
    2a04:	84 83 00 00 	l.lwz r4,0x0(r3)
    2a08:	9c 60 00 00 	l.addi r3,r0,0x0
    2a0c:	d4 0e 18 0c 	l.sw 0xc(r14),r3
    2a10:	a9 43 00 00 	l.ori r10,r3,0x0
    2a14:	84 6e 00 04 	l.lwz r3,0x4(r14)
    2a18:	9c 63 ff fb 	l.addi r3,r3,0xfffffffb
    2a1c:	e4 a3 50 00 	l.sfleu r3,r10
    2a20:	10 00 00 0d 	l.bf 2a54 <_interruptHandler_NI_RX+0x114>
    2a24:	d4 24 18 00 	l.sw 0x800(r4),r3
    2a28:	a8 a3 00 00 	l.ori r5,r3,0x0
    2a2c:	a8 64 00 00 	l.ori r3,r4,0x0
    2a30:	18 80 00 01 	l.movhi r4,0x1
    2a34:	a8 84 4e 70 	l.ori r4,r4,0x4e70
    2a38:	84 c4 00 00 	l.lwz r6,0x0(r4)
    2a3c:	9d 4a 00 01 	l.addi r10,r10,0x1
    2a40:	d4 03 30 00 	l.sw 0x0(r3),r6
    2a44:	9c 84 00 04 	l.addi r4,r4,0x4
    2a48:	e4 6a 28 00 	l.sfgeu r10,r5
    2a4c:	0f ff ff fb 	l.bnf 2a38 <_interruptHandler_NI_RX+0xf8>
    2a50:	9c 63 00 04 	l.addi r3,r3,0x4
    2a54:	19 40 00 01 	l.movhi r10,0x1
    2a58:	a9 4a 27 b8 	l.ori r10,r10,0x27b8
    2a5c:	84 6a 00 00 	l.lwz r3,0x0(r10)
    2a60:	bc 23 00 01 	l.sfnei r3,0x1
    2a64:	0c 00 00 3c 	l.bnf 2b54 <_interruptHandler_NI_RX+0x214>
    2a68:	15 00 00 00 	l.nop 0x0
    2a6c:	18 60 00 01 	l.movhi r3,0x1
    2a70:	a8 63 27 c4 	l.ori r3,r3,0x27c4
    2a74:	9c 80 55 55 	l.addi r4,r0,0x5555
    2a78:	84 63 00 00 	l.lwz r3,0x0(r3)
    2a7c:	d4 03 20 00 	l.sw 0x0(r3),r4
    2a80:	00 00 01 38 	l.j 2f60 <_interruptHandler_NI_RX+0x620>
    2a84:	84 74 00 00 	l.lwz r3,0x0(r20)
    2a88:	84 6c 00 0c 	l.lwz r3,0xc(r12)
    2a8c:	bc 03 00 50 	l.sfeqi r3,0x50
    2a90:	13 ff ff d7 	l.bf 29ec <_interruptHandler_NI_RX+0xac>
    2a94:	15 00 00 00 	l.nop 0x0
    2a98:	84 6c 00 0c 	l.lwz r3,0xc(r12)
    2a9c:	bc 23 00 20 	l.sfnei r3,0x20
    2aa0:	0c 00 00 53 	l.bnf 2bec <_interruptHandler_NI_RX+0x2ac>
    2aa4:	15 00 00 00 	l.nop 0x0
    2aa8:	84 6c 00 0c 	l.lwz r3,0xc(r12)
    2aac:	bc 23 00 60 	l.sfnei r3,0x60
    2ab0:	0c 00 00 2f 	l.bnf 2b6c <_interruptHandler_NI_RX+0x22c>
    2ab4:	9d 00 00 01 	l.addi r8,r0,0x1
    2ab8:	84 6c 00 0c 	l.lwz r3,0xc(r12)
    2abc:	bc 23 00 61 	l.sfnei r3,0x61
    2ac0:	0c 00 00 62 	l.bnf 2c48 <_interruptHandler_NI_RX+0x308>
    2ac4:	15 00 00 00 	l.nop 0x0
    2ac8:	84 6c 00 0c 	l.lwz r3,0xc(r12)
    2acc:	bc 23 00 62 	l.sfnei r3,0x62
    2ad0:	0c 00 00 89 	l.bnf 2cf4 <_interruptHandler_NI_RX+0x3b4>
    2ad4:	15 00 00 00 	l.nop 0x0
    2ad8:	84 6c 00 0c 	l.lwz r3,0xc(r12)
    2adc:	bc 23 00 63 	l.sfnei r3,0x63
    2ae0:	0c 00 00 a7 	l.bnf 2d7c <_interruptHandler_NI_RX+0x43c>
    2ae4:	15 00 00 00 	l.nop 0x0
    2ae8:	84 6c 00 0c 	l.lwz r3,0xc(r12)
    2aec:	bc 23 00 65 	l.sfnei r3,0x65
    2af0:	0c 00 00 c2 	l.bnf 2df8 <_interruptHandler_NI_RX+0x4b8>
    2af4:	15 00 00 00 	l.nop 0x0
    2af8:	84 6c 00 0c 	l.lwz r3,0xc(r12)
    2afc:	bc 23 00 64 	l.sfnei r3,0x64
    2b00:	0c 00 00 ea 	l.bnf 2ea8 <_interruptHandler_NI_RX+0x568>
    2b04:	15 00 00 00 	l.nop 0x0
    2b08:	84 6c 00 0c 	l.lwz r3,0xc(r12)
    2b0c:	bc 23 00 66 	l.sfnei r3,0x66
    2b10:	0c 00 00 ca 	l.bnf 2e38 <_interruptHandler_NI_RX+0x4f8>
    2b14:	15 00 00 00 	l.nop 0x0
    2b18:	84 6c 00 0c 	l.lwz r3,0xc(r12)
    2b1c:	bc 23 00 67 	l.sfnei r3,0x67
    2b20:	0c 00 00 fc 	l.bnf 2f10 <_interruptHandler_NI_RX+0x5d0>
    2b24:	15 00 00 00 	l.nop 0x0
    2b28:	19 40 00 01 	l.movhi r10,0x1
    2b2c:	a9 4a 27 e4 	l.ori r10,r10,0x27e4
    2b30:	84 6a 00 00 	l.lwz r3,0x0(r10)
    2b34:	18 a0 00 01 	l.movhi r5,0x1
    2b38:	a8 a5 1d 72 	l.ori r5,r5,0x1d72
    2b3c:	d4 01 28 00 	l.sw 0x0(r1),r5
    2b40:	84 63 00 00 	l.lwz r3,0x0(r3)
    2b44:	04 00 09 dd 	l.jal 52b8 <_printf>
    2b48:	d4 01 18 04 	l.sw 0x4(r1),r3
    2b4c:	03 ff ff fa 	l.j 2b34 <_interruptHandler_NI_RX+0x1f4>
    2b50:	84 6a 00 00 	l.lwz r3,0x0(r10)
    2b54:	04 00 06 88 	l.jal 4574 <_int_disable>
    2b58:	9c 60 00 02 	l.addi r3,r0,0x2
    2b5c:	9d 00 00 00 	l.addi r8,r0,0x0
    2b60:	d4 0a 40 00 	l.sw 0x0(r10),r8
    2b64:	03 ff ff c2 	l.j 2a6c <_interruptHandler_NI_RX+0x12c>
    2b68:	15 00 00 00 	l.nop 0x0
    2b6c:	18 e0 00 01 	l.movhi r7,0x1
    2b70:	a8 e7 27 a8 	l.ori r7,r7,0x27a8
    2b74:	18 c0 00 01 	l.movhi r6,0x1
    2b78:	a8 c6 80 18 	l.ori r6,r6,0x8018
    2b7c:	d4 07 40 00 	l.sw 0x0(r7),r8
    2b80:	9d 40 00 00 	l.addi r10,r0,0x0
    2b84:	84 6c 00 04 	l.lwz r3,0x4(r12)
    2b88:	9c 63 ff fb 	l.addi r3,r3,0xfffffffb
    2b8c:	d4 06 18 00 	l.sw 0x0(r6),r3
    2b90:	84 66 00 00 	l.lwz r3,0x0(r6)
    2b94:	e4 a3 50 00 	l.sfleu r3,r10
    2b98:	10 00 00 0c 	l.bf 2bc8 <_interruptHandler_NI_RX+0x288>
    2b9c:	9c ac 00 10 	l.addi r5,r12,0x10
    2ba0:	18 80 00 01 	l.movhi r4,0x1
    2ba4:	a8 84 44 e0 	l.ori r4,r4,0x44e0
    2ba8:	84 65 00 00 	l.lwz r3,0x0(r5)
    2bac:	9d 4a 00 01 	l.addi r10,r10,0x1
    2bb0:	d4 04 18 00 	l.sw 0x0(r4),r3
    2bb4:	9c a5 00 04 	l.addi r5,r5,0x4
    2bb8:	84 66 00 00 	l.lwz r3,0x0(r6)
    2bbc:	e4 6a 18 00 	l.sfgeu r10,r3
    2bc0:	0f ff ff fa 	l.bnf 2ba8 <_interruptHandler_NI_RX+0x268>
    2bc4:	9c 84 00 04 	l.addi r4,r4,0x4
    2bc8:	9c 80 00 01 	l.addi r4,r0,0x1
    2bcc:	d4 07 20 00 	l.sw 0x0(r7),r4
    2bd0:	18 60 00 01 	l.movhi r3,0x1
    2bd4:	a8 63 27 c4 	l.ori r3,r3,0x27c4
    2bd8:	9c a0 55 55 	l.addi r5,r0,0x5555
    2bdc:	84 63 00 00 	l.lwz r3,0x0(r3)
    2be0:	d4 03 28 00 	l.sw 0x0(r3),r5
    2be4:	00 00 00 df 	l.j 2f60 <_interruptHandler_NI_RX+0x620>
    2be8:	84 74 00 00 	l.lwz r3,0x0(r20)
    2bec:	85 4c 00 08 	l.lwz r10,0x8(r12)
    2bf0:	9c a0 00 00 	l.addi r5,r0,0x0
    2bf4:	18 c0 00 01 	l.movhi r6,0x1
    2bf8:	a8 c6 44 e0 	l.ori r6,r6,0x44e0
    2bfc:	d4 0c 28 0c 	l.sw 0xc(r12),r5
    2c00:	a8 6a 00 00 	l.ori r3,r10,0x0
    2c04:	84 8c 00 08 	l.lwz r4,0x8(r12)
    2c08:	b8 84 00 02 	l.slli r4,r4,0x2
    2c0c:	85 8c 00 10 	l.lwz r12,0x10(r12)
    2c10:	e0 84 30 00 	l.add r4,r4,r6
    2c14:	d4 04 60 00 	l.sw 0x0(r4),r12
    2c18:	07 ff ff 09 	l.jal 283c <_sendFromMsgBuffer>
    2c1c:	15 00 00 00 	l.nop 0x0
    2c20:	bc 2b 00 00 	l.sfnei r11,0x0
    2c24:	13 ff ff eb 	l.bf 2bd0 <_interruptHandler_NI_RX+0x290>
    2c28:	9c 80 00 20 	l.addi r4,r0,0x20
    2c2c:	b8 6a 00 02 	l.slli r3,r10,0x2
    2c30:	19 00 00 01 	l.movhi r8,0x1
    2c34:	a9 08 81 80 	l.ori r8,r8,0x8180
    2c38:	e0 63 40 00 	l.add r3,r3,r8
    2c3c:	d4 03 20 00 	l.sw 0x0(r3),r4
    2c40:	03 ff ff e4 	l.j 2bd0 <_interruptHandler_NI_RX+0x290>
    2c44:	15 00 00 00 	l.nop 0x0
    2c48:	18 60 00 01 	l.movhi r3,0x1
    2c4c:	a8 63 1d c6 	l.ori r3,r3,0x1dc6
    2c50:	1a 00 00 01 	l.movhi r16,0x1
    2c54:	aa 10 80 18 	l.ori r16,r16,0x8018
    2c58:	07 ff fa 41 	l.jal 155c <_prints>
    2c5c:	15 00 00 00 	l.nop 0x0
    2c60:	84 6c 00 04 	l.lwz r3,0x4(r12)
    2c64:	9d 40 00 00 	l.addi r10,r0,0x0
    2c68:	9c 63 ff fb 	l.addi r3,r3,0xfffffffb
    2c6c:	d4 10 18 00 	l.sw 0x0(r16),r3
    2c70:	84 70 00 00 	l.lwz r3,0x0(r16)
    2c74:	e4 a3 50 00 	l.sfleu r3,r10
    2c78:	10 00 00 14 	l.bf 2cc8 <_interruptHandler_NI_RX+0x388>
    2c7c:	15 00 00 00 	l.nop 0x0
    2c80:	9d cc 00 10 	l.addi r14,r12,0x10
    2c84:	19 80 00 01 	l.movhi r12,0x1
    2c88:	a9 8c 44 e0 	l.ori r12,r12,0x44e0
    2c8c:	84 ce 00 00 	l.lwz r6,0x0(r14)
    2c90:	a8 8a 00 00 	l.ori r4,r10,0x0
    2c94:	18 60 00 01 	l.movhi r3,0x1
    2c98:	a8 63 1d df 	l.ori r3,r3,0x1ddf
    2c9c:	d4 0c 30 00 	l.sw 0x0(r12),r6
    2ca0:	18 a0 00 01 	l.movhi r5,0x1
    2ca4:	a8 a5 1c 13 	l.ori r5,r5,0x1c13
    2ca8:	84 cc 00 00 	l.lwz r6,0x0(r12)
    2cac:	9d 4a 00 01 	l.addi r10,r10,0x1
    2cb0:	07 ff fb 59 	l.jal 1a14 <_putsvsv>
    2cb4:	9d ce 00 04 	l.addi r14,r14,0x4
    2cb8:	84 70 00 00 	l.lwz r3,0x0(r16)
    2cbc:	e4 6a 18 00 	l.sfgeu r10,r3
    2cc0:	0f ff ff f3 	l.bnf 2c8c <_interruptHandler_NI_RX+0x34c>
    2cc4:	9d 8c 00 04 	l.addi r12,r12,0x4
    2cc8:	18 60 00 01 	l.movhi r3,0x1
    2ccc:	a8 63 27 c4 	l.ori r3,r3,0x27c4
    2cd0:	9d 00 00 01 	l.addi r8,r0,0x1
    2cd4:	84 83 00 00 	l.lwz r4,0x0(r3)
    2cd8:	18 60 00 01 	l.movhi r3,0x1
    2cdc:	a8 63 27 b0 	l.ori r3,r3,0x27b0
    2ce0:	d4 03 40 00 	l.sw 0x0(r3),r8
    2ce4:	9c 60 55 55 	l.addi r3,r0,0x5555
    2ce8:	d4 04 18 00 	l.sw 0x0(r4),r3
    2cec:	00 00 00 9d 	l.j 2f60 <_interruptHandler_NI_RX+0x620>
    2cf0:	84 74 00 00 	l.lwz r3,0x0(r20)
    2cf4:	18 60 00 01 	l.movhi r3,0x1
    2cf8:	a8 63 1d ee 	l.ori r3,r3,0x1dee
    2cfc:	07 ff fa 18 	l.jal 155c <_prints>
    2d00:	9d 40 00 00 	l.addi r10,r0,0x0
    2d04:	84 6c 00 04 	l.lwz r3,0x4(r12)
    2d08:	18 c0 00 01 	l.movhi r6,0x1
    2d0c:	a8 c6 80 18 	l.ori r6,r6,0x8018
    2d10:	9c 63 ff fb 	l.addi r3,r3,0xfffffffb
    2d14:	d4 06 18 00 	l.sw 0x0(r6),r3
    2d18:	84 66 00 00 	l.lwz r3,0x0(r6)
    2d1c:	e4 a3 50 00 	l.sfleu r3,r10
    2d20:	10 00 00 0c 	l.bf 2d50 <_interruptHandler_NI_RX+0x410>
    2d24:	9c 8c 00 10 	l.addi r4,r12,0x10
    2d28:	18 a0 00 01 	l.movhi r5,0x1
    2d2c:	a8 a5 44 e0 	l.ori r5,r5,0x44e0
    2d30:	85 04 00 00 	l.lwz r8,0x0(r4)
    2d34:	9d 4a 00 01 	l.addi r10,r10,0x1
    2d38:	d4 05 40 00 	l.sw 0x0(r5),r8
    2d3c:	9c 84 00 04 	l.addi r4,r4,0x4
    2d40:	84 66 00 00 	l.lwz r3,0x0(r6)
    2d44:	e4 6a 18 00 	l.sfgeu r10,r3
    2d48:	0f ff ff fa 	l.bnf 2d30 <_interruptHandler_NI_RX+0x3f0>
    2d4c:	9c a5 00 04 	l.addi r5,r5,0x4
    2d50:	18 60 00 01 	l.movhi r3,0x1
    2d54:	a8 63 27 c4 	l.ori r3,r3,0x27c4
    2d58:	84 83 00 00 	l.lwz r4,0x0(r3)
    2d5c:	18 60 00 01 	l.movhi r3,0x1
    2d60:	a8 63 27 ac 	l.ori r3,r3,0x27ac
    2d64:	9c a0 00 01 	l.addi r5,r0,0x1
    2d68:	9c c0 55 55 	l.addi r6,r0,0x5555
    2d6c:	d4 03 28 00 	l.sw 0x0(r3),r5
    2d70:	d4 04 30 00 	l.sw 0x0(r4),r6
    2d74:	00 00 00 7b 	l.j 2f60 <_interruptHandler_NI_RX+0x620>
    2d78:	84 74 00 00 	l.lwz r3,0x0(r20)
    2d7c:	18 60 00 01 	l.movhi r3,0x1
    2d80:	a8 63 1e 09 	l.ori r3,r3,0x1e09
    2d84:	07 ff f9 f6 	l.jal 155c <_prints>
    2d88:	9d 40 00 00 	l.addi r10,r0,0x0
    2d8c:	84 6c 00 04 	l.lwz r3,0x4(r12)
    2d90:	18 c0 00 01 	l.movhi r6,0x1
    2d94:	a8 c6 80 18 	l.ori r6,r6,0x8018
    2d98:	9c 63 ff fb 	l.addi r3,r3,0xfffffffb
    2d9c:	d4 06 18 00 	l.sw 0x0(r6),r3
    2da0:	84 66 00 00 	l.lwz r3,0x0(r6)
    2da4:	e4 a3 50 00 	l.sfleu r3,r10
    2da8:	10 00 00 0d 	l.bf 2ddc <_interruptHandler_NI_RX+0x49c>
    2dac:	15 00 00 00 	l.nop 0x0
    2db0:	9c 8c 00 10 	l.addi r4,r12,0x10
    2db4:	18 a0 00 01 	l.movhi r5,0x1
    2db8:	a8 a5 44 e0 	l.ori r5,r5,0x44e0
    2dbc:	85 04 00 00 	l.lwz r8,0x0(r4)
    2dc0:	9d 4a 00 01 	l.addi r10,r10,0x1
    2dc4:	d4 05 40 00 	l.sw 0x0(r5),r8
    2dc8:	9c 84 00 04 	l.addi r4,r4,0x4
    2dcc:	84 66 00 00 	l.lwz r3,0x0(r6)
    2dd0:	e4 6a 18 00 	l.sfgeu r10,r3
    2dd4:	0f ff ff fa 	l.bnf 2dbc <_interruptHandler_NI_RX+0x47c>
    2dd8:	9c a5 00 04 	l.addi r5,r5,0x4
    2ddc:	18 60 00 01 	l.movhi r3,0x1
    2de0:	a8 63 27 c4 	l.ori r3,r3,0x27c4
    2de4:	84 83 00 00 	l.lwz r4,0x0(r3)
    2de8:	18 60 00 01 	l.movhi r3,0x1
    2dec:	a8 63 27 a4 	l.ori r3,r3,0x27a4
    2df0:	03 ff ff de 	l.j 2d68 <_interruptHandler_NI_RX+0x428>
    2df4:	9c a0 00 01 	l.addi r5,r0,0x1
    2df8:	85 8c 00 10 	l.lwz r12,0x10(r12)
    2dfc:	18 80 00 01 	l.movhi r4,0x1
    2e00:	a8 84 76 88 	l.ori r4,r4,0x7688
    2e04:	18 60 00 01 	l.movhi r3,0x1
    2e08:	a8 63 1e 1f 	l.ori r3,r3,0x1e1f
    2e0c:	d4 04 60 00 	l.sw 0x0(r4),r12
    2e10:	84 84 00 00 	l.lwz r4,0x0(r4)
    2e14:	07 ff fb 3c 	l.jal 1b04 <_putsv>
    2e18:	15 00 00 00 	l.nop 0x0
    2e1c:	18 60 00 01 	l.movhi r3,0x1
    2e20:	a8 63 27 c4 	l.ori r3,r3,0x27c4
    2e24:	9d 00 55 55 	l.addi r8,r0,0x5555
    2e28:	84 63 00 00 	l.lwz r3,0x0(r3)
    2e2c:	d4 03 40 00 	l.sw 0x0(r3),r8
    2e30:	00 00 00 4c 	l.j 2f60 <_interruptHandler_NI_RX+0x620>
    2e34:	84 74 00 00 	l.lwz r3,0x0(r20)
    2e38:	18 80 00 01 	l.movhi r4,0x1
    2e3c:	a8 84 76 88 	l.ori r4,r4,0x7688
    2e40:	9d cc 00 10 	l.addi r14,r12,0x10
    2e44:	84 84 00 00 	l.lwz r4,0x0(r4)
    2e48:	18 60 00 01 	l.movhi r3,0x1
    2e4c:	a8 63 1e 34 	l.ori r3,r3,0x1e34
    2e50:	19 80 00 01 	l.movhi r12,0x1
    2e54:	a9 8c 81 80 	l.ori r12,r12,0x8180
    2e58:	07 ff fb 2b 	l.jal 1b04 <_putsv>
    2e5c:	9d 40 00 00 	l.addi r10,r0,0x0
    2e60:	84 ae 00 00 	l.lwz r5,0x0(r14)
    2e64:	18 60 00 01 	l.movhi r3,0x1
    2e68:	a8 63 1c 85 	l.ori r3,r3,0x1c85
    2e6c:	9d 4a 00 01 	l.addi r10,r10,0x1
    2e70:	d4 0c 28 00 	l.sw 0x0(r12),r5
    2e74:	9d ce 00 04 	l.addi r14,r14,0x4
    2e78:	84 8c 00 00 	l.lwz r4,0x0(r12)
    2e7c:	07 ff fb 22 	l.jal 1b04 <_putsv>
    2e80:	9d 8c 00 04 	l.addi r12,r12,0x4
    2e84:	bd 4a 00 50 	l.sfgtsi r10,0x50
    2e88:	0f ff ff f6 	l.bnf 2e60 <_interruptHandler_NI_RX+0x520>
    2e8c:	9c c0 55 55 	l.addi r6,r0,0x5555
    2e90:	18 60 00 01 	l.movhi r3,0x1
    2e94:	a8 63 27 c4 	l.ori r3,r3,0x27c4
    2e98:	84 63 00 00 	l.lwz r3,0x0(r3)
    2e9c:	d4 03 30 00 	l.sw 0x0(r3),r6
    2ea0:	00 00 00 30 	l.j 2f60 <_interruptHandler_NI_RX+0x620>
    2ea4:	84 74 00 00 	l.lwz r3,0x0(r20)
    2ea8:	18 80 00 01 	l.movhi r4,0x1
    2eac:	a8 84 76 88 	l.ori r4,r4,0x7688
    2eb0:	18 60 00 01 	l.movhi r3,0x1
    2eb4:	a8 63 1e 4e 	l.ori r3,r3,0x1e4e
    2eb8:	84 84 00 00 	l.lwz r4,0x0(r4)
    2ebc:	07 ff fb 12 	l.jal 1b04 <_putsv>
    2ec0:	9d 40 00 00 	l.addi r10,r0,0x0
    2ec4:	07 ff fb 22 	l.jal 1b4c <_getEmptyIndex>
    2ec8:	15 00 00 00 	l.nop 0x0
    2ecc:	b8 8b 00 0b 	l.slli r4,r11,0xb
    2ed0:	18 c0 00 01 	l.movhi r6,0x1
    2ed4:	a8 c6 56 80 	l.ori r6,r6,0x5680
    2ed8:	a8 6b 00 00 	l.ori r3,r11,0x0
    2edc:	9c ac 00 10 	l.addi r5,r12,0x10
    2ee0:	e0 84 30 00 	l.add r4,r4,r6
    2ee4:	85 05 00 00 	l.lwz r8,0x0(r5)
    2ee8:	9d 4a 00 01 	l.addi r10,r10,0x1
    2eec:	d4 04 40 00 	l.sw 0x0(r4),r8
    2ef0:	9c a5 00 04 	l.addi r5,r5,0x4
    2ef4:	bd 4a 01 ff 	l.sfgtsi r10,0x1ff
    2ef8:	0f ff ff fb 	l.bnf 2ee4 <_interruptHandler_NI_RX+0x5a4>
    2efc:	9c 84 00 04 	l.addi r4,r4,0x4
    2f00:	07 ff fb 31 	l.jal 1bc4 <_bufferPush>
    2f04:	15 00 00 00 	l.nop 0x0
    2f08:	03 ff fe d9 	l.j 2a6c <_interruptHandler_NI_RX+0x12c>
    2f0c:	15 00 00 00 	l.nop 0x0
    2f10:	84 6c 00 10 	l.lwz r3,0x10(r12)
    2f14:	07 ff f9 a5 	l.jal 15a8 <_printi>
    2f18:	15 00 00 00 	l.nop 0x0
    2f1c:	84 8c 00 10 	l.lwz r4,0x10(r12)
    2f20:	19 00 00 01 	l.movhi r8,0x1
    2f24:	a9 08 44 e0 	l.ori r8,r8,0x44e0
    2f28:	18 60 00 01 	l.movhi r3,0x1
    2f2c:	a8 63 1e 62 	l.ori r3,r3,0x1e62
    2f30:	a4 84 ff ff 	l.andi r4,r4,0xffff
    2f34:	84 cc 00 10 	l.lwz r6,0x10(r12)
    2f38:	b8 e4 00 02 	l.slli r7,r4,0x2
    2f3c:	18 a0 00 01 	l.movhi r5,0x1
    2f40:	a8 a5 1c 13 	l.ori r5,r5,0x1c13
    2f44:	b8 c6 00 50 	l.srli r6,r6,0x10
    2f48:	e0 e7 40 00 	l.add r7,r7,r8
    2f4c:	d4 07 30 00 	l.sw 0x0(r7),r6
    2f50:	07 ff fa b1 	l.jal 1a14 <_putsvsv>
    2f54:	15 00 00 00 	l.nop 0x0
    2f58:	03 ff fe c5 	l.j 2a6c <_interruptHandler_NI_RX+0x12c>
    2f5c:	15 00 00 00 	l.nop 0x0
    2f60:	d4 03 90 00 	l.sw 0x0(r3),r18
    2f64:	85 21 00 08 	l.lwz r9,0x8(r1)
    2f68:	84 41 00 0c 	l.lwz r2,0xc(r1)
    2f6c:	85 41 00 10 	l.lwz r10,0x10(r1)
    2f70:	85 81 00 14 	l.lwz r12,0x14(r1)
    2f74:	85 c1 00 18 	l.lwz r14,0x18(r1)
    2f78:	86 01 00 1c 	l.lwz r16,0x1c(r1)
    2f7c:	86 41 00 20 	l.lwz r18,0x20(r1)
    2f80:	86 81 00 24 	l.lwz r20,0x24(r1)
    2f84:	44 00 48 00 	l.jr r9
    2f88:	9c 21 00 28 	l.addi r1,r1,0x28

00002f8c <_energyEstimation>:
    2f8c:	9c 21 ff a0 	l.addi r1,r1,0xffffffa0
    2f90:	d4 01 10 04 	l.sw 0x4(r1),r2
    2f94:	9c 41 00 60 	l.addi r2,r1,0x60
    2f98:	d4 01 48 00 	l.sw 0x0(r1),r9
    2f9c:	d4 01 50 08 	l.sw 0x8(r1),r10
    2fa0:	d4 01 60 0c 	l.sw 0xc(r1),r12
    2fa4:	d4 01 70 10 	l.sw 0x10(r1),r14
    2fa8:	d4 01 80 14 	l.sw 0x14(r1),r16
    2fac:	d4 01 90 18 	l.sw 0x18(r1),r18
    2fb0:	d4 01 a0 1c 	l.sw 0x1c(r1),r20
    2fb4:	d4 01 b0 20 	l.sw 0x20(r1),r22
    2fb8:	d4 01 c0 24 	l.sw 0x24(r1),r24
    2fbc:	d4 01 d0 28 	l.sw 0x28(r1),r26
    2fc0:	d4 01 e0 2c 	l.sw 0x2c(r1),r28
    2fc4:	d4 01 f0 30 	l.sw 0x30(r1),r30
    2fc8:	04 00 08 cb 	l.jal 52f4 <_clock>
    2fcc:	9f 40 00 0b 	l.addi r26,r0,0xb
    2fd0:	a8 6b 00 00 	l.ori r3,r11,0x0
    2fd4:	18 80 00 01 	l.movhi r4,0x1
    2fd8:	a8 84 26 ec 	l.ori r4,r4,0x26ec
    2fdc:	1a 00 00 01 	l.movhi r16,0x1
    2fe0:	aa 10 46 28 	l.ori r16,r16,0x4628
    2fe4:	85 64 00 00 	l.lwz r11,0x0(r4)
    2fe8:	1a 40 00 01 	l.movhi r18,0x1
    2fec:	aa 52 80 1c 	l.ori r18,r18,0x801c
    2ff0:	1a c0 00 01 	l.movhi r22,0x1
    2ff4:	aa d6 3a 28 	l.ori r22,r22,0x3a28
    2ff8:	e2 83 58 02 	l.sub r20,r3,r11
    2ffc:	1b 00 00 01 	l.movhi r24,0x1
    3000:	ab 18 3a 24 	l.ori r24,r24,0x3a24
    3004:	07 ff f8 0b 	l.jal 1030 <_read_class_inst>
    3008:	d4 04 18 00 	l.sw 0x0(r4),r3
    300c:	18 60 00 01 	l.movhi r3,0x1
    3010:	a8 63 44 d4 	l.ori r3,r3,0x44d4
    3014:	84 90 00 00 	l.lwz r4,0x0(r16)
    3018:	1b 80 00 01 	l.movhi r28,0x1
    301c:	ab 9c 3a 20 	l.ori r28,r28,0x3a20
    3020:	1b c0 00 01 	l.movhi r30,0x1
    3024:	ab de 46 34 	l.ori r30,r30,0x4634
    3028:	84 a3 00 00 	l.lwz r5,0x0(r3)
    302c:	b9 e4 00 46 	l.srli r15,r4,0x6
    3030:	84 f2 00 00 	l.lwz r7,0x0(r18)
    3034:	e0 64 28 00 	l.add r3,r4,r5
    3038:	b9 a5 00 46 	l.srli r13,r5,0x6
    303c:	85 16 00 00 	l.lwz r8,0x0(r22)
    3040:	e0 63 38 00 	l.add r3,r3,r7
    3044:	b9 87 00 46 	l.srli r12,r7,0x6
    3048:	85 38 00 00 	l.lwz r9,0x0(r24)
    304c:	e0 63 40 00 	l.add r3,r3,r8
    3050:	b9 68 00 46 	l.srli r11,r8,0x6
    3054:	85 dc 00 00 	l.lwz r14,0x0(r28)
    3058:	e0 63 48 00 	l.add r3,r3,r9
    305c:	18 a0 00 01 	l.movhi r5,0x1
    3060:	a8 a5 30 80 	l.ori r5,r5,0x3080
    3064:	84 de 00 00 	l.lwz r6,0x0(r30)
    3068:	18 80 00 01 	l.movhi r4,0x1
    306c:	a8 84 30 88 	l.ori r4,r4,0x3088
    3070:	e0 63 70 00 	l.add r3,r3,r14
    3074:	85 05 00 00 	l.lwz r8,0x0(r5)
    3078:	e0 63 30 00 	l.add r3,r3,r6
    307c:	b9 49 00 46 	l.srli r10,r9,0x6
    3080:	84 e4 00 00 	l.lwz r7,0x0(r4)
    3084:	18 a0 00 01 	l.movhi r5,0x1
    3088:	a8 a5 82 c4 	l.ori r5,r5,0x82c4
    308c:	b8 c6 00 46 	l.srli r6,r6,0x6
    3090:	e0 63 38 00 	l.add r3,r3,r7
    3094:	84 85 00 00 	l.lwz r4,0x0(r5)
    3098:	e0 63 40 00 	l.add r3,r3,r8
    309c:	b8 e7 00 46 	l.srli r7,r7,0x6
    30a0:	b8 ae 00 46 	l.srli r5,r14,0x6
    30a4:	b9 24 00 46 	l.srli r9,r4,0x6
    30a8:	b9 08 00 46 	l.srli r8,r8,0x6
    30ac:	e0 63 20 00 	l.add r3,r3,r4
    30b0:	d7 e2 7f d4 	l.sw 0xffffffd4(r2),r15
    30b4:	d7 e2 6f d8 	l.sw 0xffffffd8(r2),r13
    30b8:	d7 e2 2f e8 	l.sw 0xffffffe8(r2),r5
    30bc:	d7 e2 4f f8 	l.sw 0xfffffff8(r2),r9
    30c0:	d7 e2 47 f4 	l.sw 0xfffffff4(r2),r8
    30c4:	d7 e2 3f f0 	l.sw 0xfffffff0(r2),r7
    30c8:	d7 e2 37 ec 	l.sw 0xffffffec(r2),r6
    30cc:	d7 e2 67 dc 	l.sw 0xffffffdc(r2),r12
    30d0:	d7 e2 57 e4 	l.sw 0xffffffe4(r2),r10
    30d4:	d7 e2 1f fc 	l.sw 0xfffffffc(r2),r3
    30d8:	07 ff f8 2c 	l.jal 1188 <_estimateNoCActivity>
    30dc:	d7 e2 5f e0 	l.sw 0xffffffe0(r2),r11
    30e0:	a9 4b 00 00 	l.ori r10,r11,0x0
    30e4:	18 60 00 01 	l.movhi r3,0x1
    30e8:	a8 63 1e 7a 	l.ori r3,r3,0x1e7a
    30ec:	07 ff f9 1c 	l.jal 155c <_prints>
    30f0:	e1 94 58 02 	l.sub r12,r20,r11
    30f4:	07 ff f9 2d 	l.jal 15a8 <_printi>
    30f8:	84 70 00 00 	l.lwz r3,0x0(r16)
    30fc:	18 60 00 01 	l.movhi r3,0x1
    3100:	a8 63 1e 85 	l.ori r3,r3,0x1e85
    3104:	07 ff f9 16 	l.jal 155c <_prints>
    3108:	15 00 00 00 	l.nop 0x0
    310c:	07 ff f9 27 	l.jal 15a8 <_printi>
    3110:	84 72 00 00 	l.lwz r3,0x0(r18)
    3114:	18 60 00 01 	l.movhi r3,0x1
    3118:	a8 63 1e 85 	l.ori r3,r3,0x1e85
    311c:	07 ff f9 10 	l.jal 155c <_prints>
    3120:	15 00 00 00 	l.nop 0x0
    3124:	07 ff f9 21 	l.jal 15a8 <_printi>
    3128:	84 76 00 00 	l.lwz r3,0x0(r22)
    312c:	18 60 00 01 	l.movhi r3,0x1
    3130:	a8 63 1e 85 	l.ori r3,r3,0x1e85
    3134:	07 ff f9 0a 	l.jal 155c <_prints>
    3138:	15 00 00 00 	l.nop 0x0
    313c:	07 ff f9 1b 	l.jal 15a8 <_printi>
    3140:	84 78 00 00 	l.lwz r3,0x0(r24)
    3144:	18 60 00 01 	l.movhi r3,0x1
    3148:	a8 63 1e 85 	l.ori r3,r3,0x1e85
    314c:	07 ff f9 04 	l.jal 155c <_prints>
    3150:	15 00 00 00 	l.nop 0x0
    3154:	07 ff f9 15 	l.jal 15a8 <_printi>
    3158:	84 7c 00 00 	l.lwz r3,0x0(r28)
    315c:	18 60 00 01 	l.movhi r3,0x1
    3160:	a8 63 1e 85 	l.ori r3,r3,0x1e85
    3164:	07 ff f8 fe 	l.jal 155c <_prints>
    3168:	15 00 00 00 	l.nop 0x0
    316c:	07 ff f9 0f 	l.jal 15a8 <_printi>
    3170:	84 7e 00 00 	l.lwz r3,0x0(r30)
    3174:	18 60 00 01 	l.movhi r3,0x1
    3178:	a8 63 1e 85 	l.ori r3,r3,0x1e85
    317c:	07 ff f8 f8 	l.jal 155c <_prints>
    3180:	15 00 00 00 	l.nop 0x0
    3184:	18 c0 00 01 	l.movhi r6,0x1
    3188:	a8 c6 30 88 	l.ori r6,r6,0x3088
    318c:	07 ff f9 07 	l.jal 15a8 <_printi>
    3190:	84 66 00 00 	l.lwz r3,0x0(r6)
    3194:	18 60 00 01 	l.movhi r3,0x1
    3198:	a8 63 1e 85 	l.ori r3,r3,0x1e85
    319c:	07 ff f8 f0 	l.jal 155c <_prints>
    31a0:	15 00 00 00 	l.nop 0x0
    31a4:	18 e0 00 01 	l.movhi r7,0x1
    31a8:	a8 e7 30 80 	l.ori r7,r7,0x3080
    31ac:	07 ff f8 ff 	l.jal 15a8 <_printi>
    31b0:	84 67 00 00 	l.lwz r3,0x0(r7)
    31b4:	18 60 00 01 	l.movhi r3,0x1
    31b8:	a8 63 1e 85 	l.ori r3,r3,0x1e85
    31bc:	07 ff f8 e8 	l.jal 155c <_prints>
    31c0:	15 00 00 00 	l.nop 0x0
    31c4:	19 00 00 01 	l.movhi r8,0x1
    31c8:	a9 08 44 d4 	l.ori r8,r8,0x44d4
    31cc:	07 ff f8 f7 	l.jal 15a8 <_printi>
    31d0:	84 68 00 00 	l.lwz r3,0x0(r8)
    31d4:	18 60 00 01 	l.movhi r3,0x1
    31d8:	a8 63 1e 85 	l.ori r3,r3,0x1e85
    31dc:	07 ff f8 e0 	l.jal 155c <_prints>
    31e0:	15 00 00 00 	l.nop 0x0
    31e4:	18 80 00 01 	l.movhi r4,0x1
    31e8:	a8 84 82 c4 	l.ori r4,r4,0x82c4
    31ec:	07 ff f8 ef 	l.jal 15a8 <_printi>
    31f0:	84 64 00 00 	l.lwz r3,0x0(r4)
    31f4:	18 60 00 01 	l.movhi r3,0x1
    31f8:	a8 63 1e 85 	l.ori r3,r3,0x1e85
    31fc:	07 ff f8 d8 	l.jal 155c <_prints>
    3200:	15 00 00 00 	l.nop 0x0
    3204:	18 60 00 01 	l.movhi r3,0x1
    3208:	a8 63 26 f4 	l.ori r3,r3,0x26f4
    320c:	07 ff f8 e7 	l.jal 15a8 <_printi>
    3210:	84 63 00 00 	l.lwz r3,0x0(r3)
    3214:	18 60 00 01 	l.movhi r3,0x1
    3218:	a8 63 1e 85 	l.ori r3,r3,0x1e85
    321c:	07 ff f8 d0 	l.jal 155c <_prints>
    3220:	15 00 00 00 	l.nop 0x0
    3224:	18 60 00 01 	l.movhi r3,0x1
    3228:	a8 63 26 f0 	l.ori r3,r3,0x26f0
    322c:	07 ff f8 df 	l.jal 15a8 <_printi>
    3230:	84 63 00 00 	l.lwz r3,0x0(r3)
    3234:	18 60 00 01 	l.movhi r3,0x1
    3238:	a8 63 1e 85 	l.ori r3,r3,0x1e85
    323c:	07 ff f8 c8 	l.jal 155c <_prints>
    3240:	15 00 00 00 	l.nop 0x0
    3244:	07 ff f8 d9 	l.jal 15a8 <_printi>
    3248:	a8 6a 00 00 	l.ori r3,r10,0x0
    324c:	18 60 00 01 	l.movhi r3,0x1
    3250:	a8 63 1e 85 	l.ori r3,r3,0x1e85
    3254:	07 ff f8 c2 	l.jal 155c <_prints>
    3258:	15 00 00 00 	l.nop 0x0
    325c:	07 ff f8 d3 	l.jal 15a8 <_printi>
    3260:	a8 6c 00 00 	l.ori r3,r12,0x0
    3264:	18 60 00 01 	l.movhi r3,0x1
    3268:	a8 63 1c 06 	l.ori r3,r3,0x1c06
    326c:	07 ff f8 bc 	l.jal 155c <_prints>
    3270:	15 00 00 00 	l.nop 0x0
    3274:	18 60 00 01 	l.movhi r3,0x1
    3278:	a8 63 26 e8 	l.ori r3,r3,0x26e8
    327c:	18 a0 00 01 	l.movhi r5,0x1
    3280:	a8 a5 1a 00 	l.ori r5,r5,0x1a00
    3284:	86 c3 00 00 	l.lwz r22,0x0(r3)
    3288:	18 c0 00 01 	l.movhi r6,0x1
    328c:	a8 c6 1a 3c 	l.ori r6,r6,0x1a3c
    3290:	18 e0 00 01 	l.movhi r7,0x1
    3294:	a8 e7 1a 60 	l.ori r7,r7,0x1a60
    3298:	b9 56 00 02 	l.slli r10,r22,0x2
    329c:	19 00 00 01 	l.movhi r8,0x1
    32a0:	a9 08 1a 0c 	l.ori r8,r8,0x1a0c
    32a4:	86 42 ff ec 	l.lwz r18,0xffffffec(r2)
    32a8:	e0 6a 28 00 	l.add r3,r10,r5
    32ac:	9c 80 00 0a 	l.addi r4,r0,0xa
    32b0:	e0 aa 30 00 	l.add r5,r10,r6
    32b4:	87 02 ff e8 	l.lwz r24,0xffffffe8(r2)
    32b8:	e0 ca 38 00 	l.add r6,r10,r7
    32bc:	e0 ea 40 00 	l.add r7,r10,r8
    32c0:	86 06 00 00 	l.lwz r16,0x0(r6)
    32c4:	e2 78 90 00 	l.add r19,r24,r18
    32c8:	85 03 00 00 	l.lwz r8,0x0(r3)
    32cc:	18 60 00 01 	l.movhi r3,0x1
    32d0:	a8 63 1a 30 	l.ori r3,r3,0x1a30
    32d4:	84 a5 00 00 	l.lwz r5,0x0(r5)
    32d8:	e1 2a 18 00 	l.add r9,r10,r3
    32dc:	18 60 00 01 	l.movhi r3,0x1
    32e0:	a8 63 1a 48 	l.ori r3,r3,0x1a48
    32e4:	86 27 00 00 	l.lwz r17,0x0(r7)
    32e8:	e1 6a 18 00 	l.add r11,r10,r3
    32ec:	18 60 00 01 	l.movhi r3,0x1
    32f0:	a8 63 1a 18 	l.ori r3,r3,0x1a18
    32f4:	85 eb 00 00 	l.lwz r15,0x0(r11)
    32f8:	e1 aa 18 00 	l.add r13,r10,r3
    32fc:	18 60 00 01 	l.movhi r3,0x1
    3300:	a8 63 1a 54 	l.ori r3,r3,0x1a54
    3304:	84 ed 00 00 	l.lwz r7,0x0(r13)
    3308:	e1 ca 18 00 	l.add r14,r10,r3
    330c:	18 60 00 01 	l.movhi r3,0x1
    3310:	a8 63 1a 24 	l.ori r3,r3,0x1a24
    3314:	85 6e 00 00 	l.lwz r11,0x0(r14)
    3318:	e0 ca 18 00 	l.add r6,r10,r3
    331c:	84 62 ff e0 	l.lwz r3,0xffffffe0(r2)
    3320:	e1 88 1b 06 	l.mul r12,r8,r3
    3324:	84 62 ff e4 	l.lwz r3,0xffffffe4(r2)
    3328:	e0 a5 1b 06 	l.mul r5,r5,r3
    332c:	85 09 00 00 	l.lwz r8,0x0(r9)
    3330:	85 26 00 00 	l.lwz r9,0x0(r6)
    3334:	84 62 ff d4 	l.lwz r3,0xffffffd4(r2)
    3338:	e0 ac 28 00 	l.add r5,r12,r5
    333c:	e1 08 9b 06 	l.mul r8,r8,r19
    3340:	e0 d0 1b 06 	l.mul r6,r16,r3
    3344:	84 62 ff dc 	l.lwz r3,0xffffffdc(r2)
    3348:	e0 71 1b 06 	l.mul r3,r17,r3
    334c:	e0 66 18 00 	l.add r3,r6,r3
    3350:	e0 c5 18 00 	l.add r6,r5,r3
    3354:	84 62 ff f0 	l.lwz r3,0xfffffff0(r2)
    3358:	e0 af 1b 06 	l.mul r5,r15,r3
    335c:	84 62 ff f4 	l.lwz r3,0xfffffff4(r2)
    3360:	e0 e7 1b 06 	l.mul r7,r7,r3
    3364:	e0 68 28 00 	l.add r3,r8,r5
    3368:	e0 c3 30 00 	l.add r6,r3,r6
    336c:	84 62 ff d8 	l.lwz r3,0xffffffd8(r2)
    3370:	e0 ab 1b 06 	l.mul r5,r11,r3
    3374:	84 62 ff f8 	l.lwz r3,0xfffffff8(r2)
    3378:	e0 a7 28 00 	l.add r5,r7,r5
    337c:	e1 69 1b 06 	l.mul r11,r9,r3
    3380:	e0 65 30 00 	l.add r3,r5,r6
    3384:	e1 c3 58 00 	l.add r14,r3,r11
    3388:	04 00 06 11 	l.jal 4bcc <___udivsi3>
    338c:	e0 6e d3 06 	l.mul r3,r14,r26
    3390:	18 80 00 01 	l.movhi r4,0x1
    3394:	a8 84 19 f4 	l.ori r4,r4,0x19f4
    3398:	18 c0 00 01 	l.movhi r6,0x1
    339c:	a8 c6 19 e8 	l.ori r6,r6,0x19e8
    33a0:	e0 6a 20 00 	l.add r3,r10,r4
    33a4:	e0 aa 30 00 	l.add r5,r10,r6
    33a8:	84 83 00 00 	l.lwz r4,0x0(r3)
    33ac:	b9 14 00 46 	l.srli r8,r20,0x6
    33b0:	a9 cb 00 00 	l.ori r14,r11,0x0
    33b4:	e0 c4 c3 06 	l.mul r6,r4,r24
    33b8:	84 e5 00 00 	l.lwz r7,0x0(r5)
    33bc:	18 80 00 01 	l.movhi r4,0x1
    33c0:	a8 84 26 e0 	l.ori r4,r4,0x26e0
    33c4:	84 a4 00 00 	l.lwz r5,0x0(r4)
    33c8:	e0 87 93 06 	l.mul r4,r7,r18
    33cc:	bc 05 00 00 	l.sfeqi r5,0x0
    33d0:	10 00 00 55 	l.bf 3524 <_energyEstimation+0x598>
    33d4:	e2 46 20 00 	l.add r18,r6,r4
    33d8:	e0 76 28 00 	l.add r3,r22,r5
    33dc:	18 e0 00 01 	l.movhi r7,0x1
    33e0:	a8 e7 1a 84 	l.ori r7,r7,0x1a84
    33e4:	b8 a3 00 02 	l.slli r5,r3,0x2
    33e8:	9c 80 00 0a 	l.addi r4,r0,0xa
    33ec:	18 60 00 01 	l.movhi r3,0x1
    33f0:	a8 63 26 dc 	l.ori r3,r3,0x26dc
    33f4:	86 03 00 00 	l.lwz r16,0x0(r3)
    33f8:	e0 65 38 00 	l.add r3,r5,r7
    33fc:	b9 10 00 46 	l.srli r8,r16,0x6
    3400:	84 63 00 00 	l.lwz r3,0x0(r3)
    3404:	e0 63 43 06 	l.mul r3,r3,r8
    3408:	04 00 05 f1 	l.jal 4bcc <___udivsi3>
    340c:	e0 63 d3 06 	l.mul r3,r3,r26
    3410:	19 00 00 01 	l.movhi r8,0x1
    3414:	a9 08 1a 84 	l.ori r8,r8,0x1a84
    3418:	e0 74 80 02 	l.sub r3,r20,r16
    341c:	e0 8a 40 00 	l.add r4,r10,r8
    3420:	a9 8b 00 00 	l.ori r12,r11,0x0
    3424:	b9 03 00 46 	l.srli r8,r3,0x6
    3428:	84 64 00 00 	l.lwz r3,0x0(r4)
    342c:	e0 63 43 06 	l.mul r3,r3,r8
    3430:	9c 80 00 0a 	l.addi r4,r0,0xa
    3434:	04 00 05 e6 	l.jal 4bcc <___udivsi3>
    3438:	e0 63 d3 06 	l.mul r3,r3,r26
    343c:	e1 8c 58 00 	l.add r12,r12,r11
    3440:	19 40 00 01 	l.movhi r10,0x1
    3444:	a9 4a 80 00 	l.ori r10,r10,0x8000
    3448:	84 a2 ff fc 	l.lwz r5,0xfffffffc(r2)
    344c:	9c 60 00 00 	l.addi r3,r0,0x0
    3450:	e1 6c 70 00 	l.add r11,r12,r14
    3454:	d4 0a 60 0c 	l.sw 0xc(r10),r12
    3458:	d4 0a 28 10 	l.sw 0x10(r10),r5
    345c:	d4 0a 18 04 	l.sw 0x4(r10),r3
    3460:	a8 83 00 00 	l.ori r4,r3,0x0
    3464:	d4 0a 58 00 	l.sw 0x0(r10),r11
    3468:	d4 0a 90 08 	l.sw 0x8(r10),r18
    346c:	19 80 00 01 	l.movhi r12,0x1
    3470:	a9 8c 31 f0 	l.ori r12,r12,0x31f0
    3474:	07 ff f8 57 	l.jal 15d0 <_makeAddress>
    3478:	d4 0a a0 14 	l.sw 0x14(r10),r20
    347c:	d4 0c 58 00 	l.sw 0x0(r12),r11
    3480:	9c c0 00 09 	l.addi r6,r0,0x9
    3484:	d4 0c 30 04 	l.sw 0x4(r12),r6
    3488:	04 00 07 9b 	l.jal 52f4 <_clock>
    348c:	15 00 00 00 	l.nop 0x0
    3490:	18 60 00 01 	l.movhi r3,0x1
    3494:	a8 63 76 80 	l.ori r3,r3,0x7680
    3498:	84 aa 00 00 	l.lwz r5,0x0(r10)
    349c:	9c e0 00 40 	l.addi r7,r0,0x40
    34a0:	84 63 00 00 	l.lwz r3,0x0(r3)
    34a4:	e1 6b 18 02 	l.sub r11,r11,r3
    34a8:	84 8a 00 08 	l.lwz r4,0x8(r10)
    34ac:	84 6a 00 04 	l.lwz r3,0x4(r10)
    34b0:	e0 65 18 00 	l.add r3,r5,r3
    34b4:	d4 0c 58 08 	l.sw 0x8(r12),r11
    34b8:	e0 83 20 00 	l.add r4,r3,r4
    34bc:	85 0a 00 14 	l.lwz r8,0x14(r10)
    34c0:	18 60 00 01 	l.movhi r3,0x1
    34c4:	a8 63 27 e4 	l.ori r3,r3,0x27e4
    34c8:	d4 0c 38 0c 	l.sw 0xc(r12),r7
    34cc:	84 a3 00 00 	l.lwz r5,0x0(r3)
    34d0:	d4 0c 40 10 	l.sw 0x10(r12),r8
    34d4:	85 4a 00 0c 	l.lwz r10,0xc(r10)
    34d8:	18 60 00 01 	l.movhi r3,0x1
    34dc:	a8 63 27 c8 	l.ori r3,r3,0x27c8
    34e0:	d4 0c 20 14 	l.sw 0x14(r12),r4
    34e4:	d4 0c 50 18 	l.sw 0x18(r12),r10
    34e8:	84 83 00 00 	l.lwz r4,0x0(r3)
    34ec:	84 a5 00 00 	l.lwz r5,0x0(r5)
    34f0:	18 60 00 01 	l.movhi r3,0x1
    34f4:	a8 63 46 2c 	l.ori r3,r3,0x462c
    34f8:	d4 0c 28 1c 	l.sw 0x1c(r12),r5
    34fc:	d4 03 58 00 	l.sw 0x0(r3),r11
    3500:	84 64 00 00 	l.lwz r3,0x0(r4)
    3504:	bc 23 00 ff 	l.sfnei r3,0xff
    3508:	0c 00 00 11 	l.bnf 354c <_energyEstimation+0x5c0>
    350c:	9c 80 00 01 	l.addi r4,r0,0x1
    3510:	18 60 00 01 	l.movhi r3,0x1
    3514:	a8 63 26 d4 	l.ori r3,r3,0x26d4
    3518:	d4 03 20 00 	l.sw 0x0(r3),r4
    351c:	00 00 00 0f 	l.j 3558 <_energyEstimation+0x5cc>
    3520:	15 00 00 00 	l.nop 0x0
    3524:	18 80 00 01 	l.movhi r4,0x1
    3528:	a8 84 1a 84 	l.ori r4,r4,0x1a84
    352c:	e0 6a 20 00 	l.add r3,r10,r4
    3530:	84 63 00 00 	l.lwz r3,0x0(r3)
    3534:	9c 80 00 0a 	l.addi r4,r0,0xa
    3538:	e0 63 43 06 	l.mul r3,r3,r8
    353c:	04 00 05 a4 	l.jal 4bcc <___udivsi3>
    3540:	e0 63 d3 06 	l.mul r3,r3,r26
    3544:	03 ff ff bf 	l.j 3440 <_energyEstimation+0x4b4>
    3548:	a9 8b 00 00 	l.ori r12,r11,0x0
    354c:	a8 6c 00 00 	l.ori r3,r12,0x0
    3550:	07 ff fa c8 	l.jal 2070 <_SendSlot>
    3554:	9c 80 ff fe 	l.addi r4,r0,0xfffffffe
    3558:	85 21 00 00 	l.lwz r9,0x0(r1)
    355c:	84 41 00 04 	l.lwz r2,0x4(r1)
    3560:	85 41 00 08 	l.lwz r10,0x8(r1)
    3564:	85 81 00 0c 	l.lwz r12,0xc(r1)
    3568:	85 c1 00 10 	l.lwz r14,0x10(r1)
    356c:	86 01 00 14 	l.lwz r16,0x14(r1)
    3570:	86 41 00 18 	l.lwz r18,0x18(r1)
    3574:	86 81 00 1c 	l.lwz r20,0x1c(r1)
    3578:	86 c1 00 20 	l.lwz r22,0x20(r1)
    357c:	87 01 00 24 	l.lwz r24,0x24(r1)
    3580:	87 41 00 28 	l.lwz r26,0x28(r1)
    3584:	87 81 00 2c 	l.lwz r28,0x2c(r1)
    3588:	87 c1 00 30 	l.lwz r30,0x30(r1)
    358c:	44 00 48 00 	l.jr r9
    3590:	9c 21 00 60 	l.addi r1,r1,0x60

00003594 <_interruptHandler_timer>:
    3594:	9c 21 ff f0 	l.addi r1,r1,0xfffffff0
    3598:	d4 01 10 04 	l.sw 0x4(r1),r2
    359c:	9c 41 00 10 	l.addi r2,r1,0x10
    35a0:	d4 01 48 00 	l.sw 0x0(r1),r9
    35a4:	d4 01 50 08 	l.sw 0x8(r1),r10
    35a8:	d4 01 60 0c 	l.sw 0xc(r1),r12
    35ac:	19 80 00 01 	l.movhi r12,0x1
    35b0:	a9 8c 26 d8 	l.ori r12,r12,0x26d8
    35b4:	84 6c 00 00 	l.lwz r3,0x0(r12)
    35b8:	85 43 00 00 	l.lwz r10,0x0(r3)
    35bc:	07 ff fe 74 	l.jal 2f8c <_energyEstimation>
    35c0:	15 00 00 00 	l.nop 0x0
    35c4:	18 60 00 01 	l.movhi r3,0x1
    35c8:	a8 63 27 e0 	l.ori r3,r3,0x27e0
    35cc:	9c a0 ff ff 	l.addi r5,r0,0xffffffff
    35d0:	84 63 00 00 	l.lwz r3,0x0(r3)
    35d4:	84 8c 00 00 	l.lwz r4,0x0(r12)
    35d8:	d4 03 28 00 	l.sw 0x0(r3),r5
    35dc:	d4 04 50 00 	l.sw 0x0(r4),r10
    35e0:	85 21 00 00 	l.lwz r9,0x0(r1)
    35e4:	84 41 00 04 	l.lwz r2,0x4(r1)
    35e8:	85 41 00 08 	l.lwz r10,0x8(r1)
    35ec:	85 81 00 0c 	l.lwz r12,0xc(r1)
    35f0:	44 00 48 00 	l.jr r9
    35f4:	9c 21 00 10 	l.addi r1,r1,0x10

000035f8 <_FinishApplication>:
    35f8:	9c 21 ff ec 	l.addi r1,r1,0xffffffec
    35fc:	d4 01 10 0c 	l.sw 0xc(r1),r2
    3600:	9c 41 00 14 	l.addi r2,r1,0x14
    3604:	d4 01 48 08 	l.sw 0x8(r1),r9
    3608:	d4 01 50 10 	l.sw 0x10(r1),r10
    360c:	9c c0 00 01 	l.addi r6,r0,0x1
    3610:	9c a0 00 00 	l.addi r5,r0,0x0
    3614:	18 80 00 01 	l.movhi r4,0x1
    3618:	a8 84 31 e0 	l.ori r4,r4,0x31e0
    361c:	84 64 00 00 	l.lwz r3,0x0(r4)
    3620:	9c a5 00 01 	l.addi r5,r5,0x1
    3624:	bc 03 00 00 	l.sfeqi r3,0x0
    3628:	10 00 00 03 	l.bf 3634 <_FinishApplication+0x3c>
    362c:	9c 84 00 04 	l.addi r4,r4,0x4
    3630:	9c c0 00 00 	l.addi r6,r0,0x0
    3634:	bc 45 00 03 	l.sfgtui r5,0x3
    3638:	0f ff ff f9 	l.bnf 361c <_FinishApplication+0x24>
    363c:	bc 26 00 00 	l.sfnei r6,0x0
    3640:	0f ff ff f4 	l.bnf 3610 <_FinishApplication+0x18>
    3644:	9c c0 00 01 	l.addi r6,r0,0x1
    3648:	18 80 00 01 	l.movhi r4,0x1
    364c:	a8 84 26 d8 	l.ori r4,r4,0x26d8
    3650:	9c a0 00 01 	l.addi r5,r0,0x1
    3654:	84 84 00 00 	l.lwz r4,0x0(r4)
    3658:	18 60 00 01 	l.movhi r3,0x1
    365c:	a8 63 1e 87 	l.ori r3,r3,0x1e87
    3660:	19 40 00 01 	l.movhi r10,0x1
    3664:	a9 4a 27 e4 	l.ori r10,r10,0x27e4
    3668:	d4 04 28 00 	l.sw 0x0(r4),r5
    366c:	07 ff f7 bc 	l.jal 155c <_prints>
    3670:	15 00 00 00 	l.nop 0x0
    3674:	18 60 00 01 	l.movhi r3,0x1
    3678:	a8 63 1e a8 	l.ori r3,r3,0x1ea8
    367c:	07 ff f7 b8 	l.jal 155c <_prints>
    3680:	15 00 00 00 	l.nop 0x0
    3684:	84 6a 00 00 	l.lwz r3,0x0(r10)
    3688:	84 63 00 00 	l.lwz r3,0x0(r3)
    368c:	07 ff f7 c7 	l.jal 15a8 <_printi>
    3690:	15 00 00 00 	l.nop 0x0
    3694:	18 60 00 01 	l.movhi r3,0x1
    3698:	a8 63 1c 06 	l.ori r3,r3,0x1c06
    369c:	07 ff f7 b0 	l.jal 155c <_prints>
    36a0:	15 00 00 00 	l.nop 0x0
    36a4:	18 80 00 01 	l.movhi r4,0x1
    36a8:	a8 84 1e b5 	l.ori r4,r4,0x1eb5
    36ac:	84 6a 00 00 	l.lwz r3,0x0(r10)
    36b0:	d4 01 20 00 	l.sw 0x0(r1),r4
    36b4:	84 63 00 00 	l.lwz r3,0x0(r3)
    36b8:	04 00 07 00 	l.jal 52b8 <_printf>
    36bc:	d4 01 18 04 	l.sw 0x4(r1),r3
    36c0:	18 60 00 01 	l.movhi r3,0x1
    36c4:	a8 63 27 d4 	l.ori r3,r3,0x27d4
    36c8:	84 83 00 00 	l.lwz r4,0x0(r3)
    36cc:	18 60 00 01 	l.movhi r3,0x1
    36d0:	a8 63 27 d0 	l.ori r3,r3,0x27d0
    36d4:	84 a3 00 00 	l.lwz r5,0x0(r3)
    36d8:	9c 60 00 ff 	l.addi r3,r0,0xff
    36dc:	d4 04 18 00 	l.sw 0x0(r4),r3
    36e0:	84 65 00 00 	l.lwz r3,0x0(r5)
    36e4:	bc 03 00 00 	l.sfeqi r3,0x0
    36e8:	10 00 00 06 	l.bf 3700 <_FinishApplication+0x108>
    36ec:	a8 85 00 00 	l.ori r4,r5,0x0
    36f0:	84 64 00 00 	l.lwz r3,0x0(r4)
    36f4:	bc 03 00 00 	l.sfeqi r3,0x0
    36f8:	0f ff ff fe 	l.bnf 36f0 <_FinishApplication+0xf8>
    36fc:	15 00 00 00 	l.nop 0x0
    3700:	07 ff f7 bc 	l.jal 15f0 <_ReportExecutedInstructions>
    3704:	15 00 00 00 	l.nop 0x0
    3708:	18 80 00 01 	l.movhi r4,0x1
    370c:	a8 84 1e cb 	l.ori r4,r4,0x1ecb
    3710:	84 6a 00 00 	l.lwz r3,0x0(r10)
    3714:	d4 01 20 00 	l.sw 0x0(r1),r4
    3718:	84 63 00 00 	l.lwz r3,0x0(r3)
    371c:	04 00 06 e7 	l.jal 52b8 <_printf>
    3720:	d4 01 18 04 	l.sw 0x4(r1),r3
    3724:	85 21 00 08 	l.lwz r9,0x8(r1)
    3728:	84 41 00 0c 	l.lwz r2,0xc(r1)
    372c:	85 41 00 10 	l.lwz r10,0x10(r1)
    3730:	44 00 48 00 	l.jr r9
    3734:	9c 21 00 14 	l.addi r1,r1,0x14

00003738 <_random>:
    3738:	9c 21 ff fc 	l.addi r1,r1,0xfffffffc
    373c:	d4 01 10 00 	l.sw 0x0(r1),r2
    3740:	9c 41 00 04 	l.addi r2,r1,0x4
    3744:	19 60 67 0d 	l.movhi r11,0x670d
    3748:	a9 6b e7 0d 	l.ori r11,r11,0xe70d
    374c:	84 41 00 00 	l.lwz r2,0x0(r1)
    3750:	44 00 48 00 	l.jr r9
    3754:	9c 21 00 04 	l.addi r1,r1,0x4

00003758 <_generateSpiralMatrix>:
    3758:	9c 21 ff f8 	l.addi r1,r1,0xfffffff8
    375c:	d4 01 10 04 	l.sw 0x4(r1),r2
    3760:	9c 41 00 08 	l.addi r2,r1,0x8
    3764:	d4 01 48 00 	l.sw 0x0(r1),r9
    3768:	9d a0 00 00 	l.addi r13,r0,0x0
    376c:	9d 00 00 09 	l.addi r8,r0,0x9
    3770:	a8 ed 00 00 	l.ori r7,r13,0x0
    3774:	a9 6d 00 00 	l.ori r11,r13,0x0
    3778:	a9 28 00 00 	l.ori r9,r8,0x0
    377c:	e5 6d 48 00 	l.sfges r13,r9
    3780:	10 00 00 03 	l.bf 378c <_generateSpiralMatrix+0x34>
    3784:	9c 80 00 00 	l.addi r4,r0,0x0
    3788:	9c 80 00 01 	l.addi r4,r0,0x1
    378c:	e5 6b 40 00 	l.sfges r11,r8
    3790:	10 00 00 52 	l.bf 38d8 <_generateSpiralMatrix+0x180>
    3794:	9c 60 00 00 	l.addi r3,r0,0x0
    3798:	00 00 00 50 	l.j 38d8 <_generateSpiralMatrix+0x180>
    379c:	9c 60 00 01 	l.addi r3,r0,0x1
    37a0:	10 00 00 0e 	l.bf 37d8 <_generateSpiralMatrix+0x80>
    37a4:	a8 6b 00 00 	l.ori r3,r11,0x0
    37a8:	b8 87 00 02 	l.slli r4,r7,0x2
    37ac:	18 a0 00 01 	l.movhi r5,0x1
    37b0:	a8 a5 43 90 	l.ori r5,r5,0x4390
    37b4:	b8 cd 00 08 	l.slli r6,r13,0x8
    37b8:	e0 84 28 00 	l.add r4,r4,r5
    37bc:	e0 a6 18 04 	l.or r5,r6,r3
    37c0:	9c e7 00 01 	l.addi r7,r7,0x1
    37c4:	d4 04 28 00 	l.sw 0x0(r4),r5
    37c8:	9c 63 00 01 	l.addi r3,r3,0x1
    37cc:	e5 63 40 00 	l.sfges r3,r8
    37d0:	0f ff ff fb 	l.bnf 37bc <_generateSpiralMatrix+0x64>
    37d4:	9c 84 00 04 	l.addi r4,r4,0x4
    37d8:	9d ad 00 01 	l.addi r13,r13,0x1
    37dc:	e5 6d 48 00 	l.sfges r13,r9
    37e0:	10 00 00 26 	l.bf 3878 <_generateSpiralMatrix+0x120>
    37e4:	a8 6d 00 00 	l.ori r3,r13,0x0
    37e8:	9c c8 ff ff 	l.addi r6,r8,0xffffffff
    37ec:	b8 87 00 02 	l.slli r4,r7,0x2
    37f0:	19 00 00 01 	l.movhi r8,0x1
    37f4:	a9 08 43 90 	l.ori r8,r8,0x4390
    37f8:	e0 a4 40 00 	l.add r5,r4,r8
    37fc:	b8 83 00 08 	l.slli r4,r3,0x8
    3800:	9c e7 00 01 	l.addi r7,r7,0x1
    3804:	e0 84 30 04 	l.or r4,r4,r6
    3808:	9c 63 00 01 	l.addi r3,r3,0x1
    380c:	d4 05 20 00 	l.sw 0x0(r5),r4
    3810:	e5 63 48 00 	l.sfges r3,r9
    3814:	0f ff ff fa 	l.bnf 37fc <_generateSpiralMatrix+0xa4>
    3818:	9c a5 00 04 	l.addi r5,r5,0x4
    381c:	e5 6d 48 00 	l.sfges r13,r9
    3820:	0c 00 00 1a 	l.bnf 3888 <_generateSpiralMatrix+0x130>
    3824:	a9 06 00 00 	l.ori r8,r6,0x0
    3828:	e5 6b 40 00 	l.sfges r11,r8
    382c:	13 ff ff d5 	l.bf 3780 <_generateSpiralMatrix+0x28>
    3830:	e5 6d 48 00 	l.sfges r13,r9
    3834:	9c 69 ff ff 	l.addi r3,r9,0xffffffff
    3838:	e5 83 68 00 	l.sflts r3,r13
    383c:	10 00 00 0d 	l.bf 3870 <_generateSpiralMatrix+0x118>
    3840:	b8 87 00 02 	l.slli r4,r7,0x2
    3844:	18 c0 00 01 	l.movhi r6,0x1
    3848:	a8 c6 43 90 	l.ori r6,r6,0x4390
    384c:	e0 a4 30 00 	l.add r5,r4,r6
    3850:	b8 83 00 08 	l.slli r4,r3,0x8
    3854:	9c e7 00 01 	l.addi r7,r7,0x1
    3858:	e0 84 58 04 	l.or r4,r4,r11
    385c:	9c 63 ff ff 	l.addi r3,r3,0xffffffff
    3860:	d4 05 20 00 	l.sw 0x0(r5),r4
    3864:	e5 83 68 00 	l.sflts r3,r13
    3868:	0f ff ff fa 	l.bnf 3850 <_generateSpiralMatrix+0xf8>
    386c:	9c a5 00 04 	l.addi r5,r5,0x4
    3870:	03 ff ff c3 	l.j 377c <_generateSpiralMatrix+0x24>
    3874:	9d 6b 00 01 	l.addi r11,r11,0x1
    3878:	9c c8 ff ff 	l.addi r6,r8,0xffffffff
    387c:	e5 6d 48 00 	l.sfges r13,r9
    3880:	13 ff ff ea 	l.bf 3828 <_generateSpiralMatrix+0xd0>
    3884:	a9 06 00 00 	l.ori r8,r6,0x0
    3888:	9c 66 ff ff 	l.addi r3,r6,0xffffffff
    388c:	e5 83 58 00 	l.sflts r3,r11
    3890:	10 00 00 10 	l.bf 38d0 <_generateSpiralMatrix+0x178>
    3894:	b8 87 00 02 	l.slli r4,r7,0x2
    3898:	9d 29 ff ff 	l.addi r9,r9,0xffffffff
    389c:	18 a0 00 01 	l.movhi r5,0x1
    38a0:	a8 a5 43 90 	l.ori r5,r5,0x4390
    38a4:	b8 c9 00 08 	l.slli r6,r9,0x8
    38a8:	e0 84 28 00 	l.add r4,r4,r5
    38ac:	e0 a6 18 04 	l.or r5,r6,r3
    38b0:	9c e7 00 01 	l.addi r7,r7,0x1
    38b4:	d4 04 28 00 	l.sw 0x0(r4),r5
    38b8:	9c 63 ff ff 	l.addi r3,r3,0xffffffff
    38bc:	e5 83 58 00 	l.sflts r3,r11
    38c0:	0f ff ff fb 	l.bnf 38ac <_generateSpiralMatrix+0x154>
    38c4:	9c 84 00 04 	l.addi r4,r4,0x4
    38c8:	03 ff ff d9 	l.j 382c <_generateSpiralMatrix+0xd4>
    38cc:	e5 6b 40 00 	l.sfges r11,r8
    38d0:	03 ff ff d6 	l.j 3828 <_generateSpiralMatrix+0xd0>
    38d4:	9d 29 ff ff 	l.addi r9,r9,0xffffffff
    38d8:	e0 64 18 03 	l.and r3,r4,r3
    38dc:	bc 03 00 00 	l.sfeqi r3,0x0
    38e0:	0f ff ff b0 	l.bnf 37a0 <_generateSpiralMatrix+0x48>
    38e4:	e5 6b 40 00 	l.sfges r11,r8
    38e8:	85 21 00 00 	l.lwz r9,0x0(r1)
    38ec:	84 41 00 04 	l.lwz r2,0x4(r1)
    38f0:	44 00 48 00 	l.jr r9
    38f4:	9c 21 00 08 	l.addi r1,r1,0x8

000038f8 <_generateTempMatrix>:
    38f8:	9c 21 fd 58 	l.addi r1,r1,0xfffffd58
    38fc:	d4 01 10 04 	l.sw 0x4(r1),r2
    3900:	9c 41 02 a8 	l.addi r2,r1,0x2a8
    3904:	d4 01 48 00 	l.sw 0x0(r1),r9
    3908:	d4 01 50 08 	l.sw 0x8(r1),r10
    390c:	d4 01 60 0c 	l.sw 0xc(r1),r12
    3910:	d4 01 70 10 	l.sw 0x10(r1),r14
    3914:	d4 01 80 14 	l.sw 0x14(r1),r16
    3918:	d4 01 90 18 	l.sw 0x18(r1),r18
    391c:	d4 01 a0 1c 	l.sw 0x1c(r1),r20
    3920:	a8 83 00 00 	l.ori r4,r3,0x0
    3924:	9c a0 01 44 	l.addi r5,r0,0x144
    3928:	9c 62 fd 78 	l.addi r3,r2,0xfffffd78
    392c:	04 00 06 88 	l.jal 534c <_memcpy>
    3930:	9e 80 00 50 	l.addi r20,r0,0x50
    3934:	9c 60 00 00 	l.addi r3,r0,0x0
    3938:	9e 42 ff fc 	l.addi r18,r2,0xfffffffc
    393c:	d7 e2 1e bc 	l.sw 0xfffffebc(r2),r3
    3940:	1a 00 00 01 	l.movhi r16,0x1
    3944:	aa 10 44 d0 	l.ori r16,r16,0x44d0
    3948:	9d 80 00 01 	l.addi r12,r0,0x1
    394c:	9d 40 00 04 	l.addi r10,r0,0x4
    3950:	a8 ac 00 00 	l.ori r5,r12,0x0
    3954:	9c e2 fd 7c 	l.addi r7,r2,0xfffffd7c
    3958:	e0 6a 10 00 	l.add r3,r10,r2
    395c:	84 87 00 00 	l.lwz r4,0x0(r7)
    3960:	b8 c5 00 02 	l.slli r6,r5,0x2
    3964:	84 63 fd 78 	l.lwz r3,0xfffffd78(r3)
    3968:	e4 64 18 00 	l.sfgeu r4,r3
    396c:	10 00 00 04 	l.bf 397c <_generateTempMatrix+0x84>
    3970:	9c e7 00 04 	l.addi r7,r7,0x4
    3974:	a9 46 00 00 	l.ori r10,r6,0x0
    3978:	a9 85 00 00 	l.ori r12,r5,0x0
    397c:	9c a5 00 01 	l.addi r5,r5,0x1
    3980:	bd 45 00 50 	l.sfgtsi r5,0x50
    3984:	0f ff ff f6 	l.bnf 395c <_generateTempMatrix+0x64>
    3988:	e0 6a 10 00 	l.add r3,r10,r2
    398c:	a8 6c 00 00 	l.ori r3,r12,0x0
    3990:	9c 80 00 09 	l.addi r4,r0,0x9
    3994:	04 00 04 cd 	l.jal 4cc8 <___modsi3>
    3998:	9e 94 ff ff 	l.addi r20,r20,0xffffffff
    399c:	b9 cb 00 08 	l.slli r14,r11,0x8
    39a0:	a8 6c 00 00 	l.ori r3,r12,0x0
    39a4:	04 00 04 df 	l.jal 4d20 <___divsi3>
    39a8:	9c 80 00 09 	l.addi r4,r0,0x9
    39ac:	e1 6e 58 04 	l.or r11,r14,r11
    39b0:	e0 6a 10 00 	l.add r3,r10,r2
    39b4:	d4 10 58 00 	l.sw 0x0(r16),r11
    39b8:	d4 12 58 00 	l.sw 0x0(r18),r11
    39bc:	9c 80 ff ff 	l.addi r4,r0,0xffffffff
    39c0:	9e 10 ff fc 	l.addi r16,r16,0xfffffffc
    39c4:	d7 e3 25 78 	l.sw 0xfffffd78(r3),r4
    39c8:	bd b4 00 00 	l.sflesi r20,0x0
    39cc:	0f ff ff df 	l.bnf 3948 <_generateTempMatrix+0x50>
    39d0:	9e 52 ff fc 	l.addi r18,r18,0xfffffffc
    39d4:	85 21 00 00 	l.lwz r9,0x0(r1)
    39d8:	84 41 00 04 	l.lwz r2,0x4(r1)
    39dc:	85 41 00 08 	l.lwz r10,0x8(r1)
    39e0:	85 81 00 0c 	l.lwz r12,0xc(r1)
    39e4:	85 c1 00 10 	l.lwz r14,0x10(r1)
    39e8:	86 01 00 14 	l.lwz r16,0x14(r1)
    39ec:	86 41 00 18 	l.lwz r18,0x18(r1)
    39f0:	86 81 00 1c 	l.lwz r20,0x1c(r1)
    39f4:	44 00 48 00 	l.jr r9
    39f8:	9c 21 02 a8 	l.addi r1,r1,0x2a8

000039fc <_how_many_tasks_PE_is_running>:
    39fc:	9c 21 ff fc 	l.addi r1,r1,0xfffffffc
    3a00:	d4 01 10 00 	l.sw 0x0(r1),r2
    3a04:	9c 41 00 04 	l.addi r2,r1,0x4
    3a08:	9c c0 00 00 	l.addi r6,r0,0x0
    3a0c:	84 a4 00 00 	l.lwz r5,0x0(r4)
    3a10:	9c c6 00 01 	l.addi r6,r6,0x1
    3a14:	e4 25 18 00 	l.sfne r5,r3
    3a18:	0c 00 00 07 	l.bnf 3a34 <_how_many_tasks_PE_is_running+0x38>
    3a1c:	9c 84 00 04 	l.addi r4,r4,0x4
    3a20:	bd 46 00 50 	l.sfgtsi r6,0x50
    3a24:	0f ff ff fa 	l.bnf 3a0c <_how_many_tasks_PE_is_running+0x10>
    3a28:	9d 60 00 00 	l.addi r11,r0,0x0
    3a2c:	00 00 00 03 	l.j 3a38 <_how_many_tasks_PE_is_running+0x3c>
    3a30:	15 00 00 00 	l.nop 0x0
    3a34:	9d 60 00 01 	l.addi r11,r0,0x1
    3a38:	84 41 00 00 	l.lwz r2,0x0(r1)
    3a3c:	44 00 48 00 	l.jr r9
    3a40:	9c 21 00 04 	l.addi r1,r1,0x4

00003a44 <_getSomeTaskID>:
    3a44:	9c 21 ff fc 	l.addi r1,r1,0xfffffffc
    3a48:	d4 01 10 00 	l.sw 0x0(r1),r2
    3a4c:	9c 41 00 04 	l.addi r2,r1,0x4
    3a50:	9d 60 00 00 	l.addi r11,r0,0x0
    3a54:	84 a4 00 00 	l.lwz r5,0x0(r4)
    3a58:	e4 25 18 00 	l.sfne r5,r3
    3a5c:	0c 00 00 07 	l.bnf 3a78 <_getSomeTaskID+0x34>
    3a60:	9c 84 00 04 	l.addi r4,r4,0x4
    3a64:	9d 6b 00 01 	l.addi r11,r11,0x1
    3a68:	bd 4b 00 50 	l.sfgtsi r11,0x50
    3a6c:	0f ff ff fa 	l.bnf 3a54 <_getSomeTaskID+0x10>
    3a70:	15 00 00 00 	l.nop 0x0
    3a74:	9d 60 ff ff 	l.addi r11,r0,0xffffffff
    3a78:	84 41 00 00 	l.lwz r2,0x0(r1)
    3a7c:	44 00 48 00 	l.jr r9
    3a80:	9c 21 00 04 	l.addi r1,r1,0x4

00003a84 <_temperature_migration>:
    3a84:	9c 21 ff c8 	l.addi r1,r1,0xffffffc8
    3a88:	d4 01 10 10 	l.sw 0x10(r1),r2
    3a8c:	9c 41 00 38 	l.addi r2,r1,0x38
    3a90:	d4 01 48 0c 	l.sw 0xc(r1),r9
    3a94:	d4 01 50 14 	l.sw 0x14(r1),r10
    3a98:	d4 01 60 18 	l.sw 0x18(r1),r12
    3a9c:	d4 01 70 1c 	l.sw 0x1c(r1),r14
    3aa0:	d4 01 80 20 	l.sw 0x20(r1),r16
    3aa4:	d4 01 90 24 	l.sw 0x24(r1),r18
    3aa8:	d4 01 a0 28 	l.sw 0x28(r1),r20
    3aac:	d4 01 b0 2c 	l.sw 0x2c(r1),r22
    3ab0:	d4 01 c0 30 	l.sw 0x30(r1),r24
    3ab4:	d4 01 d0 34 	l.sw 0x34(r1),r26
    3ab8:	ab 44 00 00 	l.ori r26,r4,0x0
    3abc:	aa 05 00 00 	l.ori r16,r5,0x0
    3ac0:	9d 83 00 04 	l.addi r12,r3,0x4
    3ac4:	9e c0 00 00 	l.addi r22,r0,0x0
    3ac8:	1b 00 00 01 	l.movhi r24,0x1
    3acc:	ab 18 44 d0 	l.ori r24,r24,0x44d0
    3ad0:	00 00 00 06 	l.j 3ae8 <_temperature_migration+0x64>
    3ad4:	9d c0 00 01 	l.addi r14,r0,0x1
    3ad8:	9d ce 00 01 	l.addi r14,r14,0x1
    3adc:	bd 4e 00 50 	l.sfgtsi r14,0x50
    3ae0:	10 00 00 4b 	l.bf 3c0c <_temperature_migration+0x188>
    3ae4:	a9 76 00 00 	l.ori r11,r22,0x0
    3ae8:	84 ac 00 00 	l.lwz r5,0x0(r12)
    3aec:	a8 c0 82 14 	l.ori r6,r0,0x8214
    3af0:	a8 6e 00 00 	l.ori r3,r14,0x0
    3af4:	9c 80 00 09 	l.addi r4,r0,0x9
    3af8:	e4 a5 30 00 	l.sfleu r5,r6
    3afc:	13 ff ff f7 	l.bf 3ad8 <_temperature_migration+0x54>
    3b00:	9d 8c 00 04 	l.addi r12,r12,0x4
    3b04:	04 00 04 71 	l.jal 4cc8 <___modsi3>
    3b08:	15 00 00 00 	l.nop 0x0
    3b0c:	a9 4b 00 00 	l.ori r10,r11,0x0
    3b10:	a8 6e 00 00 	l.ori r3,r14,0x0
    3b14:	04 00 04 83 	l.jal 4d20 <___divsi3>
    3b18:	9c 80 00 09 	l.addi r4,r0,0x9
    3b1c:	b8 6a 00 08 	l.slli r3,r10,0x8
    3b20:	a8 90 00 00 	l.ori r4,r16,0x0
    3b24:	e1 43 58 04 	l.or r10,r3,r11
    3b28:	07 ff ff b5 	l.jal 39fc <_how_many_tasks_PE_is_running>
    3b2c:	a8 6a 00 00 	l.ori r3,r10,0x0
    3b30:	a8 cb 00 00 	l.ori r6,r11,0x0
    3b34:	18 a0 00 01 	l.movhi r5,0x1
    3b38:	a8 a5 1e ee 	l.ori r5,r5,0x1eee
    3b3c:	18 60 00 01 	l.movhi r3,0x1
    3b40:	a8 63 1f 0c 	l.ori r3,r3,0x1f0c
    3b44:	07 ff f7 b4 	l.jal 1a14 <_putsvsv>
    3b48:	a8 8a 00 00 	l.ori r4,r10,0x0
    3b4c:	a8 6a 00 00 	l.ori r3,r10,0x0
    3b50:	07 ff ff ab 	l.jal 39fc <_how_many_tasks_PE_is_running>
    3b54:	a8 90 00 00 	l.ori r4,r16,0x0
    3b58:	a8 6a 00 00 	l.ori r3,r10,0x0
    3b5c:	bd ab 00 00 	l.sflesi r11,0x0
    3b60:	13 ff ff de 	l.bf 3ad8 <_temperature_migration+0x54>
    3b64:	a8 90 00 00 	l.ori r4,r16,0x0
    3b68:	07 ff ff b7 	l.jal 3a44 <_getSomeTaskID>
    3b6c:	86 58 00 00 	l.lwz r18,0x0(r24)
    3b70:	aa 8b 00 00 	l.ori r20,r11,0x0
    3b74:	18 a0 00 01 	l.movhi r5,0x1
    3b78:	a8 a5 1f 2c 	l.ori r5,r5,0x1f2c
    3b7c:	a8 cb 00 00 	l.ori r6,r11,0x0
    3b80:	18 60 00 01 	l.movhi r3,0x1
    3b84:	a8 63 1f 36 	l.ori r3,r3,0x1f36
    3b88:	07 ff f7 a3 	l.jal 1a14 <_putsvsv>
    3b8c:	a8 92 00 00 	l.ori r4,r18,0x0
    3b90:	18 60 00 01 	l.movhi r3,0x1
    3b94:	a8 63 1f 56 	l.ori r3,r3,0x1f56
    3b98:	d4 01 90 04 	l.sw 0x4(r1),r18
    3b9c:	d4 01 18 00 	l.sw 0x0(r1),r3
    3ba0:	04 00 05 c6 	l.jal 52b8 <_printf>
    3ba4:	d4 01 a0 08 	l.sw 0x8(r1),r20
    3ba8:	a8 72 00 00 	l.ori r3,r18,0x0
    3bac:	07 ff ff 94 	l.jal 39fc <_how_many_tasks_PE_is_running>
    3bb0:	a8 90 00 00 	l.ori r4,r16,0x0
    3bb4:	bc 2b 00 00 	l.sfnei r11,0x0
    3bb8:	13 ff ff c8 	l.bf 3ad8 <_temperature_migration+0x54>
    3bbc:	e4 12 50 00 	l.sfeq r18,r10
    3bc0:	18 60 00 01 	l.movhi r3,0x1
    3bc4:	a8 63 1f 8b 	l.ori r3,r3,0x1f8b
    3bc8:	13 ff ff c4 	l.bf 3ad8 <_temperature_migration+0x54>
    3bcc:	15 00 00 00 	l.nop 0x0
    3bd0:	07 ff f6 63 	l.jal 155c <_prints>
    3bd4:	9d ce 00 01 	l.addi r14,r14,0x1
    3bd8:	b8 d4 00 02 	l.slli r6,r20,0x2
    3bdc:	a8 8a 00 00 	l.ori r4,r10,0x0
    3be0:	9c 60 00 61 	l.addi r3,r0,0x61
    3be4:	e0 c6 80 00 	l.add r6,r6,r16
    3be8:	a8 b0 00 00 	l.ori r5,r16,0x0
    3bec:	d4 06 90 00 	l.sw 0x0(r6),r18
    3bf0:	a8 da 00 00 	l.ori r6,r26,0x0
    3bf4:	07 ff fa 4a 	l.jal 251c <_sendTaskService>
    3bf8:	9f 18 ff fc 	l.addi r24,r24,0xfffffffc
    3bfc:	bd 4e 00 50 	l.sfgtsi r14,0x50
    3c00:	0f ff ff ba 	l.bnf 3ae8 <_temperature_migration+0x64>
    3c04:	9e d6 00 01 	l.addi r22,r22,0x1
    3c08:	a9 76 00 00 	l.ori r11,r22,0x0
    3c0c:	85 21 00 0c 	l.lwz r9,0xc(r1)
    3c10:	84 41 00 10 	l.lwz r2,0x10(r1)
    3c14:	85 41 00 14 	l.lwz r10,0x14(r1)
    3c18:	85 81 00 18 	l.lwz r12,0x18(r1)
    3c1c:	85 c1 00 1c 	l.lwz r14,0x1c(r1)
    3c20:	86 01 00 20 	l.lwz r16,0x20(r1)
    3c24:	86 41 00 24 	l.lwz r18,0x24(r1)
    3c28:	86 81 00 28 	l.lwz r20,0x28(r1)
    3c2c:	86 c1 00 2c 	l.lwz r22,0x2c(r1)
    3c30:	87 01 00 30 	l.lwz r24,0x30(r1)
    3c34:	87 41 00 34 	l.lwz r26,0x34(r1)
    3c38:	44 00 48 00 	l.jr r9
    3c3c:	9c 21 00 38 	l.addi r1,r1,0x38

00003c40 <_main>:
    3c40:	9c 21 fe 3c 	l.addi r1,r1,0xfffffe3c
    3c44:	d4 01 10 10 	l.sw 0x10(r1),r2
    3c48:	9c 41 01 c4 	l.addi r2,r1,0x1c4
    3c4c:	d4 01 48 0c 	l.sw 0xc(r1),r9
    3c50:	d4 01 50 14 	l.sw 0x14(r1),r10
    3c54:	d4 01 60 18 	l.sw 0x18(r1),r12
    3c58:	d4 01 70 1c 	l.sw 0x1c(r1),r14
    3c5c:	d4 01 80 20 	l.sw 0x20(r1),r16
    3c60:	d4 01 90 24 	l.sw 0x24(r1),r18
    3c64:	d4 01 a0 28 	l.sw 0x28(r1),r20
    3c68:	d4 01 b0 2c 	l.sw 0x2c(r1),r22
    3c6c:	d4 01 c0 30 	l.sw 0x30(r1),r24
    3c70:	d4 01 d0 34 	l.sw 0x34(r1),r26
    3c74:	d4 01 e0 38 	l.sw 0x38(r1),r28
    3c78:	d4 01 f0 3c 	l.sw 0x3c(r1),r30
    3c7c:	07 ff f8 15 	l.jal 1cd0 <_OVP_init>
    3c80:	9e 00 00 00 	l.addi r16,r0,0x0
    3c84:	18 60 00 01 	l.movhi r3,0x1
    3c88:	a8 63 1f a0 	l.ori r3,r3,0x1fa0
    3c8c:	18 80 00 01 	l.movhi r4,0x1
    3c90:	a8 84 1f ba 	l.ori r4,r4,0x1fba
    3c94:	04 00 04 c8 	l.jal 4fb4 <_fopen>
    3c98:	ab 50 00 00 	l.ori r26,r16,0x0
    3c9c:	aa 4b 00 00 	l.ori r18,r11,0x0
    3ca0:	ab 10 00 00 	l.ori r24,r16,0x0
    3ca4:	aa d0 00 00 	l.ori r22,r16,0x0
    3ca8:	07 ff fe ac 	l.jal 3758 <_generateSpiralMatrix>
    3cac:	aa 90 00 00 	l.ori r20,r16,0x0
    3cb0:	9d c0 00 00 	l.addi r14,r0,0x0
    3cb4:	b8 70 00 02 	l.slli r3,r16,0x2
    3cb8:	18 c0 00 01 	l.movhi r6,0x1
    3cbc:	a8 c6 43 90 	l.ori r6,r6,0x4390
    3cc0:	18 80 00 01 	l.movhi r4,0x1
    3cc4:	a8 84 1f bc 	l.ori r4,r4,0x1fbc
    3cc8:	e0 a3 30 00 	l.add r5,r3,r6
    3ccc:	d4 01 20 00 	l.sw 0x0(r1),r4
    3cd0:	18 c0 00 01 	l.movhi r6,0x1
    3cd4:	a8 c6 7e b0 	l.ori r6,r6,0x7eb0
    3cd8:	d4 01 80 04 	l.sw 0x4(r1),r16
    3cdc:	e0 83 30 00 	l.add r4,r3,r6
    3ce0:	84 a5 00 00 	l.lwz r5,0x0(r5)
    3ce4:	18 c0 00 01 	l.movhi r6,0x1
    3ce8:	a8 c6 3a 30 	l.ori r6,r6,0x3a30
    3cec:	9d ce 00 01 	l.addi r14,r14,0x1
    3cf0:	e0 63 30 00 	l.add r3,r3,r6
    3cf4:	9e 10 00 01 	l.addi r16,r16,0x1
    3cf8:	9c c0 00 00 	l.addi r6,r0,0x0
    3cfc:	d4 04 30 00 	l.sw 0x0(r4),r6
    3d00:	9c 80 7c 47 	l.addi r4,r0,0x7c47
    3d04:	d4 03 20 00 	l.sw 0x0(r3),r4
    3d08:	04 00 05 6c 	l.jal 52b8 <_printf>
    3d0c:	d4 01 28 08 	l.sw 0x8(r1),r5
    3d10:	bd 4e 00 08 	l.sfgtsi r14,0x8
    3d14:	0f ff ff e9 	l.bnf 3cb8 <_main+0x78>
    3d18:	b8 70 00 02 	l.slli r3,r16,0x2
    3d1c:	9e 94 00 01 	l.addi r20,r20,0x1
    3d20:	bd 54 00 08 	l.sfgtsi r20,0x8
    3d24:	0f ff ff e5 	l.bnf 3cb8 <_main+0x78>
    3d28:	9d c0 00 00 	l.addi r14,r0,0x0
    3d2c:	9d 82 ff c0 	l.addi r12,r2,0xffffffc0
    3d30:	9d c2 fe 7c 	l.addi r14,r2,0xfffffe7c
    3d34:	a8 6c 00 00 	l.ori r3,r12,0x0
    3d38:	9c 80 00 40 	l.addi r4,r0,0x40
    3d3c:	04 00 05 bd 	l.jal 5430 <_fgets>
    3d40:	a8 b2 00 00 	l.ori r5,r18,0x0
    3d44:	18 80 00 01 	l.movhi r4,0x1
    3d48:	a8 84 1f d7 	l.ori r4,r4,0x1fd7
    3d4c:	bc 0b 00 00 	l.sfeqi r11,0x0
    3d50:	10 00 00 3c 	l.bf 3e40 <_main+0x200>
    3d54:	a8 6c 00 00 	l.ori r3,r12,0x0
    3d58:	04 00 06 0c 	l.jal 5588 <_strstr>
    3d5c:	15 00 00 00 	l.nop 0x0
    3d60:	18 80 00 01 	l.movhi r4,0x1
    3d64:	a8 84 1f dc 	l.ori r4,r4,0x1fdc
    3d68:	bc 0b 00 00 	l.sfeqi r11,0x0
    3d6c:	0c 00 00 10 	l.bnf 3dac <_main+0x16c>
    3d70:	a8 6c 00 00 	l.ori r3,r12,0x0
    3d74:	18 80 00 01 	l.movhi r4,0x1
    3d78:	a8 84 1e 85 	l.ori r4,r4,0x1e85
    3d7c:	bc 18 00 00 	l.sfeqi r24,0x0
    3d80:	0c 00 00 19 	l.bnf 3de4 <_main+0x1a4>
    3d84:	15 00 00 00 	l.nop 0x0
    3d88:	18 80 00 01 	l.movhi r4,0x1
    3d8c:	a8 84 1f de 	l.ori r4,r4,0x1fde
    3d90:	04 00 05 fe 	l.jal 5588 <_strstr>
    3d94:	a8 6c 00 00 	l.ori r3,r12,0x0
    3d98:	bc 0b 00 00 	l.sfeqi r11,0x0
    3d9c:	13 ff ff e6 	l.bf 3d34 <_main+0xf4>
    3da0:	15 00 00 00 	l.nop 0x0
    3da4:	03 ff ff e4 	l.j 3d34 <_main+0xf4>
    3da8:	9f 00 00 01 	l.addi r24,r0,0x1
    3dac:	04 00 06 1b 	l.jal 5618 <_strtok>
    3db0:	15 00 00 00 	l.nop 0x0
    3db4:	9c 60 00 00 	l.addi r3,r0,0x0
    3db8:	18 80 00 01 	l.movhi r4,0x1
    3dbc:	a8 84 1e 85 	l.ori r4,r4,0x1e85
    3dc0:	04 00 06 16 	l.jal 5618 <_strtok>
    3dc4:	ab 03 00 00 	l.ori r24,r3,0x0
    3dc8:	a9 4b 00 00 	l.ori r10,r11,0x0
    3dcc:	04 00 06 21 	l.jal 5650 <_strlen>
    3dd0:	a8 6b 00 00 	l.ori r3,r11,0x0
    3dd4:	e0 6b 50 00 	l.add r3,r11,r10
    3dd8:	9c a0 00 00 	l.addi r5,r0,0x0
    3ddc:	03 ff ff eb 	l.j 3d88 <_main+0x148>
    3de0:	db e3 2f ff 	l.sb 0xffffffff(r3),r5
    3de4:	04 00 06 0d 	l.jal 5618 <_strtok>
    3de8:	9e d6 00 01 	l.addi r22,r22,0x1
    3dec:	a9 4b 00 00 	l.ori r10,r11,0x0
    3df0:	04 00 06 18 	l.jal 5650 <_strlen>
    3df4:	a8 6b 00 00 	l.ori r3,r11,0x0
    3df8:	e0 6b 50 00 	l.add r3,r11,r10
    3dfc:	9c c0 00 00 	l.addi r6,r0,0x0
    3e00:	18 80 00 01 	l.movhi r4,0x1
    3e04:	a8 84 1e 85 	l.ori r4,r4,0x1e85
    3e08:	db e3 37 ff 	l.sb 0xffffffff(r3),r6
    3e0c:	04 00 06 03 	l.jal 5618 <_strtok>
    3e10:	9c 60 00 00 	l.addi r3,r0,0x0
    3e14:	a9 4b 00 00 	l.ori r10,r11,0x0
    3e18:	04 00 06 0e 	l.jal 5650 <_strlen>
    3e1c:	a8 6b 00 00 	l.ori r3,r11,0x0
    3e20:	e1 6b 50 00 	l.add r11,r11,r10
    3e24:	9c 80 00 00 	l.addi r4,r0,0x0
    3e28:	a8 6a 00 00 	l.ori r3,r10,0x0
    3e2c:	04 00 06 2b 	l.jal 56d8 <_atoi>
    3e30:	db eb 27 ff 	l.sb 0xffffffff(r11),r4
    3e34:	d4 0e 58 00 	l.sw 0x0(r14),r11
    3e38:	03 ff ff d4 	l.j 3d88 <_main+0x148>
    3e3c:	9d ce 00 04 	l.addi r14,r14,0x4
    3e40:	9d c0 00 00 	l.addi r14,r0,0x0
    3e44:	e4 b6 70 00 	l.sfleu r22,r14
    3e48:	10 00 00 13 	l.bf 3e94 <_main+0x254>
    3e4c:	bd 56 00 50 	l.sfgtsi r22,0x50
    3e50:	9d 82 fe 7c 	l.addi r12,r2,0xfffffe7c
    3e54:	19 40 00 01 	l.movhi r10,0x1
    3e58:	a9 4a 44 d0 	l.ori r10,r10,0x44d0
    3e5c:	d4 01 70 04 	l.sw 0x4(r1),r14
    3e60:	18 60 00 01 	l.movhi r3,0x1
    3e64:	a8 63 1f ee 	l.ori r3,r3,0x1fee
    3e68:	84 aa 00 00 	l.lwz r5,0x0(r10)
    3e6c:	9d ce 00 01 	l.addi r14,r14,0x1
    3e70:	d4 0c 28 00 	l.sw 0x0(r12),r5
    3e74:	9d 4a ff fc 	l.addi r10,r10,0xfffffffc
    3e78:	d4 01 28 08 	l.sw 0x8(r1),r5
    3e7c:	d4 01 18 00 	l.sw 0x0(r1),r3
    3e80:	04 00 05 0e 	l.jal 52b8 <_printf>
    3e84:	9d 8c 00 04 	l.addi r12,r12,0x4
    3e88:	e4 6e b0 00 	l.sfgeu r14,r22
    3e8c:	0f ff ff f4 	l.bnf 3e5c <_main+0x21c>
    3e90:	bd 56 00 50 	l.sfgtsi r22,0x50
    3e94:	10 00 00 0b 	l.bf 3ec0 <_main+0x280>
    3e98:	a9 d6 00 00 	l.ori r14,r22,0x0
    3e9c:	b8 76 00 02 	l.slli r3,r22,0x2
    3ea0:	e0 63 10 00 	l.add r3,r3,r2
    3ea4:	9c 63 fe 7c 	l.addi r3,r3,0xfffffe7c
    3ea8:	9c 80 00 00 	l.addi r4,r0,0x0
    3eac:	9d ce 00 01 	l.addi r14,r14,0x1
    3eb0:	d4 03 20 00 	l.sw 0x0(r3),r4
    3eb4:	bd 4e 00 50 	l.sfgtsi r14,0x50
    3eb8:	0f ff ff fd 	l.bnf 3eac <_main+0x26c>
    3ebc:	9c 63 00 04 	l.addi r3,r3,0x4
    3ec0:	9d c0 00 00 	l.addi r14,r0,0x0
    3ec4:	e4 b6 70 00 	l.sfleu r22,r14
    3ec8:	10 00 00 0d 	l.bf 3efc <_main+0x2bc>
    3ecc:	15 00 00 00 	l.nop 0x0
    3ed0:	9d 42 fe 7c 	l.addi r10,r2,0xfffffe7c
    3ed4:	a9 8a 00 00 	l.ori r12,r10,0x0
    3ed8:	84 8a 00 00 	l.lwz r4,0x0(r10)
    3edc:	9c 60 00 60 	l.addi r3,r0,0x60
    3ee0:	a8 ac 00 00 	l.ori r5,r12,0x0
    3ee4:	a8 d6 00 00 	l.ori r6,r22,0x0
    3ee8:	07 ff f9 8d 	l.jal 251c <_sendTaskService>
    3eec:	9d ce 00 01 	l.addi r14,r14,0x1
    3ef0:	e4 6e b0 00 	l.sfgeu r14,r22
    3ef4:	0f ff ff f9 	l.bnf 3ed8 <_main+0x298>
    3ef8:	9d 4a 00 04 	l.addi r10,r10,0x4
    3efc:	18 60 00 01 	l.movhi r3,0x1
    3f00:	a8 63 27 e0 	l.ori r3,r3,0x27e0
    3f04:	84 63 00 00 	l.lwz r3,0x0(r3)
    3f08:	84 63 00 00 	l.lwz r3,0x0(r3)
    3f0c:	bc 03 00 00 	l.sfeqi r3,0x0
    3f10:	10 00 00 cf 	l.bf 424c <_main+0x60c>
    3f14:	15 00 00 00 	l.nop 0x0
    3f18:	18 a0 00 01 	l.movhi r5,0x1
    3f1c:	a8 a5 27 d0 	l.ori r5,r5,0x27d0
    3f20:	84 65 00 00 	l.lwz r3,0x0(r5)
    3f24:	84 63 00 00 	l.lwz r3,0x0(r3)
    3f28:	bc 03 00 01 	l.sfeqi r3,0x1
    3f2c:	10 00 00 c8 	l.bf 424c <_main+0x60c>
    3f30:	15 00 00 00 	l.nop 0x0
    3f34:	1a 40 00 01 	l.movhi r18,0x1
    3f38:	aa 52 3b 80 	l.ori r18,r18,0x3b80
    3f3c:	1b 00 00 01 	l.movhi r24,0x1
    3f40:	ab 18 31 f0 	l.ori r24,r24,0x31f0
    3f44:	1b 80 00 01 	l.movhi r28,0x1
    3f48:	ab 9c 76 80 	l.ori r28,r28,0x7680
    3f4c:	1b c0 00 01 	l.movhi r30,0x1
    3f50:	ab de 27 c8 	l.ori r30,r30,0x27c8
    3f54:	9e 80 00 00 	l.addi r20,r0,0x0
    3f58:	9d c0 00 00 	l.addi r14,r0,0x0
    3f5c:	18 60 00 01 	l.movhi r3,0x1
    3f60:	a8 63 3b 80 	l.ori r3,r3,0x3b80
    3f64:	07 ff f7 d9 	l.jal 1ec8 <_ReceiveRaw>
    3f68:	9d ce 00 01 	l.addi r14,r14,0x1
    3f6c:	18 60 00 01 	l.movhi r3,0x1
    3f70:	a8 63 20 13 	l.ori r3,r3,0x2013
    3f74:	07 ff f5 7a 	l.jal 155c <_prints>
    3f78:	15 00 00 00 	l.nop 0x0
    3f7c:	07 ff f5 22 	l.jal 1404 <_getXpos>
    3f80:	84 72 00 0c 	l.lwz r3,0xc(r18)
    3f84:	07 ff f5 89 	l.jal 15a8 <_printi>
    3f88:	a8 6b 00 00 	l.ori r3,r11,0x0
    3f8c:	07 ff f5 26 	l.jal 1424 <_getYpos>
    3f90:	84 72 00 0c 	l.lwz r3,0xc(r18)
    3f94:	07 ff f5 85 	l.jal 15a8 <_printi>
    3f98:	a8 6b 00 00 	l.ori r3,r11,0x0
    3f9c:	18 60 00 01 	l.movhi r3,0x1
    3fa0:	a8 63 1c 06 	l.ori r3,r3,0x1c06
    3fa4:	07 ff f5 6e 	l.jal 155c <_prints>
    3fa8:	15 00 00 00 	l.nop 0x0
    3fac:	85 92 00 0c 	l.lwz r12,0xc(r18)
    3fb0:	07 ff f5 15 	l.jal 1404 <_getXpos>
    3fb4:	a8 6c 00 00 	l.ori r3,r12,0x0
    3fb8:	a9 4b 00 00 	l.ori r10,r11,0x0
    3fbc:	07 ff f5 1a 	l.jal 1424 <_getYpos>
    3fc0:	a8 6c 00 00 	l.ori r3,r12,0x0
    3fc4:	b8 6a 00 03 	l.slli r3,r10,0x3
    3fc8:	18 c0 00 01 	l.movhi r6,0x1
    3fcc:	a8 c6 30 90 	l.ori r6,r6,0x3090
    3fd0:	bd 4e 00 08 	l.sfgtsi r14,0x8
    3fd4:	e0 63 50 00 	l.add r3,r3,r10
    3fd8:	e1 63 58 00 	l.add r11,r3,r11
    3fdc:	b9 6b 00 02 	l.slli r11,r11,0x2
    3fe0:	84 72 00 04 	l.lwz r3,0x4(r18)
    3fe4:	e1 6b 30 00 	l.add r11,r11,r6
    3fe8:	0f ff ff dd 	l.bnf 3f5c <_main+0x31c>
    3fec:	d4 0b 18 00 	l.sw 0x0(r11),r3
    3ff0:	9e 94 00 01 	l.addi r20,r20,0x1
    3ff4:	bd 54 00 08 	l.sfgtsi r20,0x8
    3ff8:	0f ff ff d9 	l.bnf 3f5c <_main+0x31c>
    3ffc:	9d c0 00 00 	l.addi r14,r0,0x0
    4000:	9e 80 00 00 	l.addi r20,r0,0x0
    4004:	a8 74 00 00 	l.ori r3,r20,0x0
    4008:	a8 94 00 00 	l.ori r4,r20,0x0
    400c:	07 ff f5 71 	l.jal 15d0 <_makeAddress>
    4010:	aa 14 00 00 	l.ori r16,r20,0x0
    4014:	18 80 00 02 	l.movhi r4,0x2
    4018:	a8 84 00 00 	l.ori r4,r4,0x0
    401c:	9c a0 00 56 	l.addi r5,r0,0x56
    4020:	e1 6b 20 04 	l.or r11,r11,r4
    4024:	d4 18 58 00 	l.sw 0x0(r24),r11
    4028:	d4 18 28 04 	l.sw 0x4(r24),r5
    402c:	04 00 04 b2 	l.jal 52f4 <_clock>
    4030:	15 00 00 00 	l.nop 0x0
    4034:	84 7c 00 00 	l.lwz r3,0x0(r28)
    4038:	18 c0 00 01 	l.movhi r6,0x1
    403c:	a8 c6 46 2c 	l.ori r6,r6,0x462c
    4040:	e1 6b 18 02 	l.sub r11,r11,r3
    4044:	9c 60 00 40 	l.addi r3,r0,0x40
    4048:	d4 18 58 08 	l.sw 0x8(r24),r11
    404c:	d4 06 58 00 	l.sw 0x0(r6),r11
    4050:	d4 18 18 0c 	l.sw 0xc(r24),r3
    4054:	b8 74 00 02 	l.slli r3,r20,0x2
    4058:	b8 90 00 02 	l.slli r4,r16,0x2
    405c:	18 a0 00 01 	l.movhi r5,0x1
    4060:	a8 a5 30 90 	l.ori r5,r5,0x3090
    4064:	18 c0 00 01 	l.movhi r6,0x1
    4068:	a8 c6 32 00 	l.ori r6,r6,0x3200
    406c:	9d c0 00 00 	l.addi r14,r0,0x0
    4070:	e1 83 28 00 	l.add r12,r3,r5
    4074:	e1 44 30 00 	l.add r10,r4,r6
    4078:	84 6c 00 00 	l.lwz r3,0x0(r12)
    407c:	18 80 00 01 	l.movhi r4,0x1
    4080:	a8 84 86 a0 	l.ori r4,r4,0x86a0
    4084:	9d ce 00 01 	l.addi r14,r14,0x1
    4088:	b8 63 00 06 	l.slli r3,r3,0x6
    408c:	9e 10 00 01 	l.addi r16,r16,0x1
    4090:	04 00 02 cf 	l.jal 4bcc <___udivsi3>
    4094:	9d 8c 00 24 	l.addi r12,r12,0x24
    4098:	b8 6b 00 07 	l.slli r3,r11,0x7
    409c:	04 00 02 cc 	l.jal 4bcc <___udivsi3>
    40a0:	9c 80 00 64 	l.addi r4,r0,0x64
    40a4:	d4 0a 58 00 	l.sw 0x0(r10),r11
    40a8:	bd 4e 00 08 	l.sfgtsi r14,0x8
    40ac:	0f ff ff f3 	l.bnf 4078 <_main+0x438>
    40b0:	9d 4a 00 04 	l.addi r10,r10,0x4
    40b4:	9e 94 00 01 	l.addi r20,r20,0x1
    40b8:	bd 54 00 08 	l.sfgtsi r20,0x8
    40bc:	0f ff ff e7 	l.bnf 4058 <_main+0x418>
    40c0:	b8 74 00 02 	l.slli r3,r20,0x2
    40c4:	84 7e 00 00 	l.lwz r3,0x0(r30)
    40c8:	84 63 00 00 	l.lwz r3,0x0(r3)
    40cc:	bc 23 00 ff 	l.sfnei r3,0xff
    40d0:	0c 00 00 53 	l.bnf 421c <_main+0x5dc>
    40d4:	9c 80 00 01 	l.addi r4,r0,0x1
    40d8:	18 60 00 01 	l.movhi r3,0x1
    40dc:	a8 63 26 d4 	l.ori r3,r3,0x26d4
    40e0:	d4 03 20 00 	l.sw 0x0(r3),r4
    40e4:	18 a0 00 01 	l.movhi r5,0x1
    40e8:	a8 a5 27 a0 	l.ori r5,r5,0x27a0
    40ec:	84 65 00 00 	l.lwz r3,0x0(r5)
    40f0:	bc 03 00 00 	l.sfeqi r3,0x0
    40f4:	10 00 00 32 	l.bf 41bc <_main+0x57c>
    40f8:	15 00 00 00 	l.nop 0x0
    40fc:	18 60 00 01 	l.movhi r3,0x1
    4100:	a8 63 20 27 	l.ori r3,r3,0x2027
    4104:	19 80 00 01 	l.movhi r12,0x1
    4108:	a9 8c 46 30 	l.ori r12,r12,0x4630
    410c:	07 ff f5 14 	l.jal 155c <_prints>
    4110:	9d c0 00 00 	l.addi r14,r0,0x0
    4114:	b9 4e 00 02 	l.slli r10,r14,0x2
    4118:	84 6c 00 00 	l.lwz r3,0x0(r12)
    411c:	9d ce 00 01 	l.addi r14,r14,0x1
    4120:	e0 6a 18 00 	l.add r3,r10,r3
    4124:	07 ff f5 21 	l.jal 15a8 <_printi>
    4128:	84 63 00 00 	l.lwz r3,0x0(r3)
    412c:	84 6c 00 00 	l.lwz r3,0x0(r12)
    4130:	18 c0 00 01 	l.movhi r6,0x1
    4134:	a8 c6 3a 30 	l.ori r6,r6,0x3a30
    4138:	bd 4e 00 50 	l.sfgtsi r14,0x50
    413c:	e0 6a 18 00 	l.add r3,r10,r3
    4140:	e0 8a 30 00 	l.add r4,r10,r6
    4144:	84 63 00 00 	l.lwz r3,0x0(r3)
    4148:	0f ff ff f3 	l.bnf 4114 <_main+0x4d4>
    414c:	d4 04 18 00 	l.sw 0x0(r4),r3
    4150:	18 60 00 01 	l.movhi r3,0x1
    4154:	a8 63 1c 06 	l.ori r3,r3,0x1c06
    4158:	07 ff f5 01 	l.jal 155c <_prints>
    415c:	9d 5a 00 01 	l.addi r10,r26,0x1
    4160:	9c c0 00 00 	l.addi r6,r0,0x0
    4164:	18 a0 00 01 	l.movhi r5,0x1
    4168:	a8 a5 27 a0 	l.ori r5,r5,0x27a0
    416c:	18 60 00 01 	l.movhi r3,0x1
    4170:	a8 63 3a 30 	l.ori r3,r3,0x3a30
    4174:	07 ff fd e1 	l.jal 38f8 <_generateTempMatrix>
    4178:	d4 05 30 00 	l.sw 0x0(r5),r6
    417c:	a8 6a 00 00 	l.ori r3,r10,0x0
    4180:	04 00 03 02 	l.jal 4d88 <___umodsi3>
    4184:	9c 80 00 14 	l.addi r4,r0,0x14
    4188:	bc 2b 00 00 	l.sfnei r11,0x0
    418c:	0c 00 00 2a 	l.bnf 4234 <_main+0x5f4>
    4190:	a8 96 00 00 	l.ori r4,r22,0x0
    4194:	18 80 00 01 	l.movhi r4,0x1
    4198:	a8 84 27 d0 	l.ori r4,r4,0x27d0
    419c:	ab 4a 00 00 	l.ori r26,r10,0x0
    41a0:	84 64 00 00 	l.lwz r3,0x0(r4)
    41a4:	84 63 00 00 	l.lwz r3,0x0(r3)
    41a8:	bc 03 00 01 	l.sfeqi r3,0x1
    41ac:	0f ff ff 6a 	l.bnf 3f54 <_main+0x314>
    41b0:	15 00 00 00 	l.nop 0x0
    41b4:	00 00 00 26 	l.j 424c <_main+0x60c>
    41b8:	15 00 00 00 	l.nop 0x0
    41bc:	18 60 00 01 	l.movhi r3,0x1
    41c0:	a8 63 46 40 	l.ori r3,r3,0x4640
    41c4:	07 ff f7 41 	l.jal 1ec8 <_ReceiveRaw>
    41c8:	9d c0 00 00 	l.addi r14,r0,0x0
    41cc:	18 60 00 01 	l.movhi r3,0x1
    41d0:	a8 63 20 3a 	l.ori r3,r3,0x203a
    41d4:	07 ff f4 e2 	l.jal 155c <_prints>
    41d8:	15 00 00 00 	l.nop 0x0
    41dc:	b9 4e 00 02 	l.slli r10,r14,0x2
    41e0:	18 60 00 01 	l.movhi r3,0x1
    41e4:	a8 63 46 40 	l.ori r3,r3,0x4640
    41e8:	e1 8a 18 00 	l.add r12,r10,r3
    41ec:	9d ce 00 01 	l.addi r14,r14,0x1
    41f0:	07 ff f4 ee 	l.jal 15a8 <_printi>
    41f4:	84 6c 00 00 	l.lwz r3,0x0(r12)
    41f8:	18 80 00 01 	l.movhi r4,0x1
    41fc:	a8 84 3a 30 	l.ori r4,r4,0x3a30
    4200:	85 8c 00 00 	l.lwz r12,0x0(r12)
    4204:	e0 6a 20 00 	l.add r3,r10,r4
    4208:	bd 4e 00 50 	l.sfgtsi r14,0x50
    420c:	0f ff ff f4 	l.bnf 41dc <_main+0x59c>
    4210:	d4 03 60 00 	l.sw 0x0(r3),r12
    4214:	03 ff ff cf 	l.j 4150 <_main+0x510>
    4218:	15 00 00 00 	l.nop 0x0
    421c:	18 60 00 01 	l.movhi r3,0x1
    4220:	a8 63 31 f0 	l.ori r3,r3,0x31f0
    4224:	07 ff f7 93 	l.jal 2070 <_SendSlot>
    4228:	9c 80 ff fe 	l.addi r4,r0,0xfffffffe
    422c:	03 ff ff ae 	l.j 40e4 <_main+0x4a4>
    4230:	15 00 00 00 	l.nop 0x0
    4234:	18 60 00 01 	l.movhi r3,0x1
    4238:	a8 63 3a 30 	l.ori r3,r3,0x3a30
    423c:	07 ff fe 12 	l.jal 3a84 <_temperature_migration>
    4240:	9c a2 fe 7c 	l.addi r5,r2,0xfffffe7c
    4244:	03 ff ff d4 	l.j 4194 <_main+0x554>
    4248:	15 00 00 00 	l.nop 0x0
    424c:	07 ff fc eb 	l.jal 35f8 <_FinishApplication>
    4250:	15 00 00 00 	l.nop 0x0
    4254:	9d 60 00 01 	l.addi r11,r0,0x1
    4258:	85 21 00 0c 	l.lwz r9,0xc(r1)
    425c:	84 41 00 10 	l.lwz r2,0x10(r1)
    4260:	85 41 00 14 	l.lwz r10,0x14(r1)
    4264:	85 81 00 18 	l.lwz r12,0x18(r1)
    4268:	85 c1 00 1c 	l.lwz r14,0x1c(r1)
    426c:	86 01 00 20 	l.lwz r16,0x20(r1)
    4270:	86 41 00 24 	l.lwz r18,0x24(r1)
    4274:	86 81 00 28 	l.lwz r20,0x28(r1)
    4278:	86 c1 00 2c 	l.lwz r22,0x2c(r1)
    427c:	87 01 00 30 	l.lwz r24,0x30(r1)
    4280:	87 41 00 34 	l.lwz r26,0x34(r1)
    4284:	87 81 00 38 	l.lwz r28,0x38(r1)
    4288:	87 c1 00 3c 	l.lwz r30,0x3c(r1)
    428c:	44 00 48 00 	l.jr r9
    4290:	9c 21 01 c4 	l.addi r1,r1,0x1c4

00004294 <_defaultException>:
    4294:	9c 21 ff f8 	l.addi r1,r1,0xfffffff8
    4298:	d4 01 10 04 	l.sw 0x4(r1),r2
    429c:	9c 41 00 08 	l.addi r2,r1,0x8
    42a0:	d4 01 48 00 	l.sw 0x0(r1),r9
    42a4:	9c 60 00 01 	l.addi r3,r0,0x1
    42a8:	04 00 05 22 	l.jal 5730 <_exit>
    42ac:	15 00 00 00 	l.nop 0x0
    42b0:	85 21 00 00 	l.lwz r9,0x0(r1)
    42b4:	84 41 00 04 	l.lwz r2,0x4(r1)
    42b8:	44 00 48 00 	l.jr r9
    42bc:	9c 21 00 08 	l.addi r1,r1,0x8

000042c0 <_reset>:
    42c0:	9c 21 ff f0 	l.addi r1,r1,0xfffffff0
    42c4:	d4 01 10 04 	l.sw 0x4(r1),r2
    42c8:	9c 41 00 10 	l.addi r2,r1,0x10
    42cc:	d4 01 48 00 	l.sw 0x0(r1),r9
    42d0:	9c 60 00 00 	l.addi r3,r0,0x0
    42d4:	18 80 00 01 	l.movhi r4,0x1
    42d8:	a8 84 27 ec 	l.ori r4,r4,0x27ec
    42dc:	07 ff fe 59 	l.jal 3c40 <_main>
    42e0:	15 00 00 00 	l.nop 0x0
    42e4:	d7 e2 5f f8 	l.sw 0xfffffff8(r2),r11
    42e8:	84 62 ff f8 	l.lwz r3,0xfffffff8(r2)
    42ec:	d7 e2 1f fc 	l.sw 0xfffffffc(r2),r3
    42f0:	84 62 ff fc 	l.lwz r3,0xfffffffc(r2)
    42f4:	04 00 05 0f 	l.jal 5730 <_exit>
    42f8:	15 00 00 00 	l.nop 0x0
    42fc:	85 21 00 00 	l.lwz r9,0x0(r1)
    4300:	84 41 00 04 	l.lwz r2,0x4(r1)
    4304:	44 00 48 00 	l.jr r9
    4308:	9c 21 00 10 	l.addi r1,r1,0x10

0000430c <_int_init>:
    430c:	9c 21 ff bc 	l.addi r1,r1,0xffffffbc
    4310:	d4 01 10 00 	l.sw 0x0(r1),r2
    4314:	9c 41 00 44 	l.addi r2,r1,0x44
    4318:	9c 60 00 00 	l.addi r3,r0,0x0
    431c:	d7 e2 1f fc 	l.sw 0xfffffffc(r2),r3
    4320:	84 82 ff fc 	l.lwz r4,0xfffffffc(r2)
    4324:	d7 e2 27 f4 	l.sw 0xfffffff4(r2),r4
    4328:	84 62 ff f4 	l.lwz r3,0xfffffff4(r2)
    432c:	bd 43 00 1f 	l.sfgtsi r3,0x1f
    4330:	10 00 00 30 	l.bf 43f0 <_int_init+0xe4>
    4334:	15 00 00 00 	l.nop 0x0
    4338:	18 80 00 01 	l.movhi r4,0x1
    433c:	a8 84 82 d0 	l.ori r4,r4,0x82d0
    4340:	d7 e2 27 f0 	l.sw 0xfffffff0(r2),r4
    4344:	84 62 ff fc 	l.lwz r3,0xfffffffc(r2)
    4348:	d7 e2 1f ec 	l.sw 0xffffffec(r2),r3
    434c:	84 82 ff ec 	l.lwz r4,0xffffffec(r2)
    4350:	d7 e2 27 e8 	l.sw 0xffffffe8(r2),r4
    4354:	84 62 ff e8 	l.lwz r3,0xffffffe8(r2)
    4358:	b8 63 00 03 	l.slli r3,r3,0x3
    435c:	d7 e2 1f e4 	l.sw 0xffffffe4(r2),r3
    4360:	84 82 ff e4 	l.lwz r4,0xffffffe4(r2)
    4364:	84 62 ff f0 	l.lwz r3,0xfffffff0(r2)
    4368:	e0 84 18 00 	l.add r4,r4,r3
    436c:	d7 e2 27 e0 	l.sw 0xffffffe0(r2),r4
    4370:	9c 60 00 00 	l.addi r3,r0,0x0
    4374:	84 82 ff e0 	l.lwz r4,0xffffffe0(r2)
    4378:	d4 04 18 00 	l.sw 0x0(r4),r3
    437c:	18 80 00 01 	l.movhi r4,0x1
    4380:	a8 84 82 d0 	l.ori r4,r4,0x82d0
    4384:	d7 e2 27 dc 	l.sw 0xffffffdc(r2),r4
    4388:	84 62 ff fc 	l.lwz r3,0xfffffffc(r2)
    438c:	d7 e2 1f d8 	l.sw 0xffffffd8(r2),r3
    4390:	84 82 ff d8 	l.lwz r4,0xffffffd8(r2)
    4394:	d7 e2 27 d4 	l.sw 0xffffffd4(r2),r4
    4398:	84 62 ff d4 	l.lwz r3,0xffffffd4(r2)
    439c:	b8 63 00 03 	l.slli r3,r3,0x3
    43a0:	d7 e2 1f d0 	l.sw 0xffffffd0(r2),r3
    43a4:	84 82 ff d0 	l.lwz r4,0xffffffd0(r2)
    43a8:	84 62 ff dc 	l.lwz r3,0xffffffdc(r2)
    43ac:	e0 84 18 00 	l.add r4,r4,r3
    43b0:	d7 e2 27 cc 	l.sw 0xffffffcc(r2),r4
    43b4:	84 82 ff cc 	l.lwz r4,0xffffffcc(r2)
    43b8:	9c 84 00 04 	l.addi r4,r4,0x4
    43bc:	d7 e2 27 c8 	l.sw 0xffffffc8(r2),r4
    43c0:	9c 80 00 00 	l.addi r4,r0,0x0
    43c4:	84 62 ff c8 	l.lwz r3,0xffffffc8(r2)
    43c8:	d4 03 20 00 	l.sw 0x0(r3),r4
    43cc:	84 62 ff fc 	l.lwz r3,0xfffffffc(r2)
    43d0:	d7 e2 1f c4 	l.sw 0xffffffc4(r2),r3
    43d4:	84 82 ff c4 	l.lwz r4,0xffffffc4(r2)
    43d8:	9c 84 00 01 	l.addi r4,r4,0x1
    43dc:	d7 e2 27 c0 	l.sw 0xffffffc0(r2),r4
    43e0:	84 62 ff c0 	l.lwz r3,0xffffffc0(r2)
    43e4:	d7 e2 1f fc 	l.sw 0xfffffffc(r2),r3
    43e8:	03 ff ff ce 	l.j 4320 <_int_init+0x14>
    43ec:	15 00 00 00 	l.nop 0x0
    43f0:	9c 80 00 00 	l.addi r4,r0,0x0
    43f4:	d7 e2 27 f8 	l.sw 0xfffffff8(r2),r4
    43f8:	85 62 ff f8 	l.lwz r11,0xfffffff8(r2)
    43fc:	84 41 00 00 	l.lwz r2,0x0(r1)
    4400:	44 00 48 00 	l.jr r9
    4404:	9c 21 00 44 	l.addi r1,r1,0x44

00004408 <_int_add>:
    4408:	9c 21 ff 8c 	l.addi r1,r1,0xffffff8c
    440c:	d4 01 10 00 	l.sw 0x0(r1),r2
    4410:	9c 41 00 74 	l.addi r2,r1,0x74
    4414:	d7 e2 1f fc 	l.sw 0xfffffffc(r2),r3
    4418:	d7 e2 27 f8 	l.sw 0xfffffff8(r2),r4
    441c:	d7 e2 2f f4 	l.sw 0xfffffff4(r2),r5
    4420:	84 62 ff fc 	l.lwz r3,0xfffffffc(r2)
    4424:	d7 e2 1f e4 	l.sw 0xffffffe4(r2),r3
    4428:	84 82 ff e4 	l.lwz r4,0xffffffe4(r2)
    442c:	bc a4 00 1f 	l.sfleui r4,0x1f
    4430:	10 00 00 06 	l.bf 4448 <_int_add+0x40>
    4434:	15 00 00 00 	l.nop 0x0
    4438:	9c 60 ff ff 	l.addi r3,r0,0xffffffff
    443c:	d7 e2 1f e8 	l.sw 0xffffffe8(r2),r3
    4440:	00 00 00 49 	l.j 4564 <_int_add+0x15c>
    4444:	15 00 00 00 	l.nop 0x0
    4448:	18 80 00 01 	l.movhi r4,0x1
    444c:	a8 84 82 d0 	l.ori r4,r4,0x82d0
    4450:	d7 e2 27 e0 	l.sw 0xffffffe0(r2),r4
    4454:	84 62 ff fc 	l.lwz r3,0xfffffffc(r2)
    4458:	d7 e2 1f dc 	l.sw 0xffffffdc(r2),r3
    445c:	84 82 ff dc 	l.lwz r4,0xffffffdc(r2)
    4460:	d7 e2 27 d8 	l.sw 0xffffffd8(r2),r4
    4464:	84 62 ff d8 	l.lwz r3,0xffffffd8(r2)
    4468:	b8 63 00 03 	l.slli r3,r3,0x3
    446c:	d7 e2 1f d4 	l.sw 0xffffffd4(r2),r3
    4470:	84 82 ff d4 	l.lwz r4,0xffffffd4(r2)
    4474:	84 62 ff e0 	l.lwz r3,0xffffffe0(r2)
    4478:	e0 84 18 00 	l.add r4,r4,r3
    447c:	d7 e2 27 d0 	l.sw 0xffffffd0(r2),r4
    4480:	84 62 ff f8 	l.lwz r3,0xfffffff8(r2)
    4484:	84 82 ff d0 	l.lwz r4,0xffffffd0(r2)
    4488:	d4 04 18 00 	l.sw 0x0(r4),r3
    448c:	18 80 00 01 	l.movhi r4,0x1
    4490:	a8 84 82 d0 	l.ori r4,r4,0x82d0
    4494:	d7 e2 27 cc 	l.sw 0xffffffcc(r2),r4
    4498:	84 62 ff fc 	l.lwz r3,0xfffffffc(r2)
    449c:	d7 e2 1f c8 	l.sw 0xffffffc8(r2),r3
    44a0:	84 82 ff c8 	l.lwz r4,0xffffffc8(r2)
    44a4:	d7 e2 27 c4 	l.sw 0xffffffc4(r2),r4
    44a8:	84 62 ff c4 	l.lwz r3,0xffffffc4(r2)
    44ac:	b8 63 00 03 	l.slli r3,r3,0x3
    44b0:	d7 e2 1f c0 	l.sw 0xffffffc0(r2),r3
    44b4:	84 82 ff c0 	l.lwz r4,0xffffffc0(r2)
    44b8:	84 62 ff cc 	l.lwz r3,0xffffffcc(r2)
    44bc:	e0 84 18 00 	l.add r4,r4,r3
    44c0:	d7 e2 27 bc 	l.sw 0xffffffbc(r2),r4
    44c4:	84 82 ff bc 	l.lwz r4,0xffffffbc(r2)
    44c8:	9c 84 00 04 	l.addi r4,r4,0x4
    44cc:	d7 e2 27 b8 	l.sw 0xffffffb8(r2),r4
    44d0:	84 82 ff f4 	l.lwz r4,0xfffffff4(r2)
    44d4:	84 62 ff b8 	l.lwz r3,0xffffffb8(r2)
    44d8:	d4 03 20 00 	l.sw 0x0(r3),r4
    44dc:	9c 60 48 00 	l.addi r3,r0,0x4800
    44e0:	d7 e2 1f b0 	l.sw 0xffffffb0(r2),r3
    44e4:	84 82 ff b0 	l.lwz r4,0xffffffb0(r2)
    44e8:	b4 84 00 00 	l.mfspr r4,r4,0x0
    44ec:	d7 e2 27 b4 	l.sw 0xffffffb4(r2),r4
    44f0:	84 62 ff b4 	l.lwz r3,0xffffffb4(r2)
    44f4:	d7 e2 1f ac 	l.sw 0xffffffac(r2),r3
    44f8:	84 82 ff ac 	l.lwz r4,0xffffffac(r2)
    44fc:	d7 e2 27 ec 	l.sw 0xffffffec(r2),r4
    4500:	84 62 ff ec 	l.lwz r3,0xffffffec(r2)
    4504:	d7 e2 1f a8 	l.sw 0xffffffa8(r2),r3
    4508:	9c 80 00 01 	l.addi r4,r0,0x1
    450c:	d7 e2 27 a0 	l.sw 0xffffffa0(r2),r4
    4510:	84 62 ff fc 	l.lwz r3,0xfffffffc(r2)
    4514:	d7 e2 1f 9c 	l.sw 0xffffff9c(r2),r3
    4518:	84 82 ff a0 	l.lwz r4,0xffffffa0(r2)
    451c:	84 62 ff 9c 	l.lwz r3,0xffffff9c(r2)
    4520:	e0 84 18 08 	l.sll r4,r4,r3
    4524:	d7 e2 27 a4 	l.sw 0xffffffa4(r2),r4
    4528:	84 82 ff a8 	l.lwz r4,0xffffffa8(r2)
    452c:	84 62 ff a4 	l.lwz r3,0xffffffa4(r2)
    4530:	e0 84 18 04 	l.or r4,r4,r3
    4534:	d7 e2 27 98 	l.sw 0xffffff98(r2),r4
    4538:	84 82 ff 98 	l.lwz r4,0xffffff98(r2)
    453c:	d7 e2 27 f0 	l.sw 0xfffffff0(r2),r4
    4540:	9c 60 48 00 	l.addi r3,r0,0x4800
    4544:	d7 e2 1f 94 	l.sw 0xffffff94(r2),r3
    4548:	84 82 ff f0 	l.lwz r4,0xfffffff0(r2)
    454c:	d7 e2 27 90 	l.sw 0xffffff90(r2),r4
    4550:	84 62 ff 94 	l.lwz r3,0xffffff94(r2)
    4554:	84 82 ff 90 	l.lwz r4,0xffffff90(r2)
    4558:	c0 03 20 00 	l.mtspr r3,r4,0x0
    455c:	9c 60 00 00 	l.addi r3,r0,0x0
    4560:	d7 e2 1f e8 	l.sw 0xffffffe8(r2),r3
    4564:	85 62 ff e8 	l.lwz r11,0xffffffe8(r2)
    4568:	84 41 00 00 	l.lwz r2,0x0(r1)
    456c:	44 00 48 00 	l.jr r9
    4570:	9c 21 00 74 	l.addi r1,r1,0x74

00004574 <_int_disable>:
    4574:	9c 21 ff bc 	l.addi r1,r1,0xffffffbc
    4578:	d4 01 10 00 	l.sw 0x0(r1),r2
    457c:	9c 41 00 44 	l.addi r2,r1,0x44
    4580:	d7 e2 1f fc 	l.sw 0xfffffffc(r2),r3
    4584:	84 62 ff fc 	l.lwz r3,0xfffffffc(r2)
    4588:	d7 e2 1f ec 	l.sw 0xffffffec(r2),r3
    458c:	84 82 ff ec 	l.lwz r4,0xffffffec(r2)
    4590:	bc a4 00 1f 	l.sfleui r4,0x1f
    4594:	10 00 00 06 	l.bf 45ac <_int_disable+0x38>
    4598:	15 00 00 00 	l.nop 0x0
    459c:	9c 60 ff ff 	l.addi r3,r0,0xffffffff
    45a0:	d7 e2 1f f0 	l.sw 0xfffffff0(r2),r3
    45a4:	00 00 00 27 	l.j 4640 <_int_disable+0xcc>
    45a8:	15 00 00 00 	l.nop 0x0
    45ac:	9c 80 48 00 	l.addi r4,r0,0x4800
    45b0:	d7 e2 27 e4 	l.sw 0xffffffe4(r2),r4
    45b4:	84 62 ff e4 	l.lwz r3,0xffffffe4(r2)
    45b8:	b4 63 00 00 	l.mfspr r3,r3,0x0
    45bc:	d7 e2 1f e8 	l.sw 0xffffffe8(r2),r3
    45c0:	84 82 ff e8 	l.lwz r4,0xffffffe8(r2)
    45c4:	d7 e2 27 e0 	l.sw 0xffffffe0(r2),r4
    45c8:	84 62 ff e0 	l.lwz r3,0xffffffe0(r2)
    45cc:	d7 e2 1f f4 	l.sw 0xfffffff4(r2),r3
    45d0:	84 82 ff f4 	l.lwz r4,0xfffffff4(r2)
    45d4:	d7 e2 27 dc 	l.sw 0xffffffdc(r2),r4
    45d8:	9c 60 00 01 	l.addi r3,r0,0x1
    45dc:	d7 e2 1f d4 	l.sw 0xffffffd4(r2),r3
    45e0:	84 82 ff fc 	l.lwz r4,0xfffffffc(r2)
    45e4:	d7 e2 27 d0 	l.sw 0xffffffd0(r2),r4
    45e8:	84 62 ff d4 	l.lwz r3,0xffffffd4(r2)
    45ec:	84 82 ff d0 	l.lwz r4,0xffffffd0(r2)
    45f0:	e0 63 20 08 	l.sll r3,r3,r4
    45f4:	d7 e2 1f d8 	l.sw 0xffffffd8(r2),r3
    45f8:	84 62 ff d8 	l.lwz r3,0xffffffd8(r2)
    45fc:	ac 63 ff ff 	l.xori r3,r3,0xffffffff
    4600:	d7 e2 1f cc 	l.sw 0xffffffcc(r2),r3
    4604:	84 82 ff dc 	l.lwz r4,0xffffffdc(r2)
    4608:	84 62 ff cc 	l.lwz r3,0xffffffcc(r2)
    460c:	e0 84 18 03 	l.and r4,r4,r3
    4610:	d7 e2 27 c8 	l.sw 0xffffffc8(r2),r4
    4614:	84 82 ff c8 	l.lwz r4,0xffffffc8(r2)
    4618:	d7 e2 27 f8 	l.sw 0xfffffff8(r2),r4
    461c:	9c 60 48 00 	l.addi r3,r0,0x4800
    4620:	d7 e2 1f c4 	l.sw 0xffffffc4(r2),r3
    4624:	84 82 ff f8 	l.lwz r4,0xfffffff8(r2)
    4628:	d7 e2 27 c0 	l.sw 0xffffffc0(r2),r4
    462c:	84 62 ff c4 	l.lwz r3,0xffffffc4(r2)
    4630:	84 82 ff c0 	l.lwz r4,0xffffffc0(r2)
    4634:	c0 03 20 00 	l.mtspr r3,r4,0x0
    4638:	9c 60 00 00 	l.addi r3,r0,0x0
    463c:	d7 e2 1f f0 	l.sw 0xfffffff0(r2),r3
    4640:	85 62 ff f0 	l.lwz r11,0xfffffff0(r2)
    4644:	84 41 00 00 	l.lwz r2,0x0(r1)
    4648:	44 00 48 00 	l.jr r9
    464c:	9c 21 00 44 	l.addi r1,r1,0x44

00004650 <_int_enable>:
    4650:	9c 21 ff c0 	l.addi r1,r1,0xffffffc0
    4654:	d4 01 10 00 	l.sw 0x0(r1),r2
    4658:	9c 41 00 40 	l.addi r2,r1,0x40
    465c:	d7 e2 1f fc 	l.sw 0xfffffffc(r2),r3
    4660:	84 62 ff fc 	l.lwz r3,0xfffffffc(r2)
    4664:	d7 e2 1f ec 	l.sw 0xffffffec(r2),r3
    4668:	84 82 ff ec 	l.lwz r4,0xffffffec(r2)
    466c:	bc a4 00 1f 	l.sfleui r4,0x1f
    4670:	10 00 00 06 	l.bf 4688 <_int_enable+0x38>
    4674:	15 00 00 00 	l.nop 0x0
    4678:	9c 60 ff ff 	l.addi r3,r0,0xffffffff
    467c:	d7 e2 1f f0 	l.sw 0xfffffff0(r2),r3
    4680:	00 00 00 24 	l.j 4710 <_int_enable+0xc0>
    4684:	15 00 00 00 	l.nop 0x0
    4688:	9c 80 48 00 	l.addi r4,r0,0x4800
    468c:	d7 e2 27 e4 	l.sw 0xffffffe4(r2),r4
    4690:	84 62 ff e4 	l.lwz r3,0xffffffe4(r2)
    4694:	b4 63 00 00 	l.mfspr r3,r3,0x0
    4698:	d7 e2 1f e8 	l.sw 0xffffffe8(r2),r3
    469c:	84 82 ff e8 	l.lwz r4,0xffffffe8(r2)
    46a0:	d7 e2 27 e0 	l.sw 0xffffffe0(r2),r4
    46a4:	84 62 ff e0 	l.lwz r3,0xffffffe0(r2)
    46a8:	d7 e2 1f f4 	l.sw 0xfffffff4(r2),r3
    46ac:	84 82 ff f4 	l.lwz r4,0xfffffff4(r2)
    46b0:	d7 e2 27 dc 	l.sw 0xffffffdc(r2),r4
    46b4:	9c 60 00 01 	l.addi r3,r0,0x1
    46b8:	d7 e2 1f d4 	l.sw 0xffffffd4(r2),r3
    46bc:	84 82 ff fc 	l.lwz r4,0xfffffffc(r2)
    46c0:	d7 e2 27 d0 	l.sw 0xffffffd0(r2),r4
    46c4:	84 62 ff d4 	l.lwz r3,0xffffffd4(r2)
    46c8:	84 82 ff d0 	l.lwz r4,0xffffffd0(r2)
    46cc:	e0 63 20 08 	l.sll r3,r3,r4
    46d0:	d7 e2 1f d8 	l.sw 0xffffffd8(r2),r3
    46d4:	84 62 ff dc 	l.lwz r3,0xffffffdc(r2)
    46d8:	84 82 ff d8 	l.lwz r4,0xffffffd8(r2)
    46dc:	e0 63 20 04 	l.or r3,r3,r4
    46e0:	d7 e2 1f cc 	l.sw 0xffffffcc(r2),r3
    46e4:	84 62 ff cc 	l.lwz r3,0xffffffcc(r2)
    46e8:	d7 e2 1f f8 	l.sw 0xfffffff8(r2),r3
    46ec:	9c 80 48 00 	l.addi r4,r0,0x4800
    46f0:	d7 e2 27 c8 	l.sw 0xffffffc8(r2),r4
    46f4:	84 62 ff f8 	l.lwz r3,0xfffffff8(r2)
    46f8:	d7 e2 1f c4 	l.sw 0xffffffc4(r2),r3
    46fc:	84 82 ff c8 	l.lwz r4,0xffffffc8(r2)
    4700:	84 62 ff c4 	l.lwz r3,0xffffffc4(r2)
    4704:	c0 04 18 00 	l.mtspr r4,r3,0x0
    4708:	9c 80 00 00 	l.addi r4,r0,0x0
    470c:	d7 e2 27 f0 	l.sw 0xfffffff0(r2),r4
    4710:	85 62 ff f0 	l.lwz r11,0xfffffff0(r2)
    4714:	84 41 00 00 	l.lwz r2,0x0(r1)
    4718:	44 00 48 00 	l.jr r9
    471c:	9c 21 00 40 	l.addi r1,r1,0x40

00004720 <_int_main>:
    4720:	9c 21 ff 3c 	l.addi r1,r1,0xffffff3c
    4724:	d4 01 10 04 	l.sw 0x4(r1),r2
    4728:	9c 41 00 c4 	l.addi r2,r1,0xc4
    472c:	d4 01 48 00 	l.sw 0x0(r1),r9
    4730:	9c 60 48 02 	l.addi r3,r0,0x4802
    4734:	d7 e2 1f e8 	l.sw 0xffffffe8(r2),r3
    4738:	84 82 ff e8 	l.lwz r4,0xffffffe8(r2)
    473c:	b4 84 00 00 	l.mfspr r4,r4,0x0
    4740:	d7 e2 27 ec 	l.sw 0xffffffec(r2),r4
    4744:	84 62 ff ec 	l.lwz r3,0xffffffec(r2)
    4748:	d7 e2 1f e4 	l.sw 0xffffffe4(r2),r3
    474c:	84 82 ff e4 	l.lwz r4,0xffffffe4(r2)
    4750:	d7 e2 27 f8 	l.sw 0xfffffff8(r2),r4
    4754:	84 62 ff f8 	l.lwz r3,0xfffffff8(r2)
    4758:	d7 e2 1f e0 	l.sw 0xffffffe0(r2),r3
    475c:	84 82 ff e0 	l.lwz r4,0xffffffe0(r2)
    4760:	d7 e2 27 fc 	l.sw 0xfffffffc(r2),r4
    4764:	9c 60 00 00 	l.addi r3,r0,0x0
    4768:	d7 e2 1f f8 	l.sw 0xfffffff8(r2),r3
    476c:	9c 80 00 00 	l.addi r4,r0,0x0
    4770:	d7 e2 27 f4 	l.sw 0xfffffff4(r2),r4
    4774:	9c 60 48 02 	l.addi r3,r0,0x4802
    4778:	d7 e2 1f dc 	l.sw 0xffffffdc(r2),r3
    477c:	84 82 ff f4 	l.lwz r4,0xfffffff4(r2)
    4780:	d7 e2 27 d8 	l.sw 0xffffffd8(r2),r4
    4784:	84 62 ff dc 	l.lwz r3,0xffffffdc(r2)
    4788:	84 82 ff d8 	l.lwz r4,0xffffffd8(r2)
    478c:	c0 03 20 00 	l.mtspr r3,r4,0x0
    4790:	84 62 ff f8 	l.lwz r3,0xfffffff8(r2)
    4794:	d7 e2 1f d4 	l.sw 0xffffffd4(r2),r3
    4798:	84 82 ff d4 	l.lwz r4,0xffffffd4(r2)
    479c:	bc 44 00 1f 	l.sfgtui r4,0x1f
    47a0:	10 00 00 7c 	l.bf 4990 <_int_main+0x270>
    47a4:	15 00 00 00 	l.nop 0x0
    47a8:	9c 60 00 01 	l.addi r3,r0,0x1
    47ac:	d7 e2 1f cc 	l.sw 0xffffffcc(r2),r3
    47b0:	84 82 ff f8 	l.lwz r4,0xfffffff8(r2)
    47b4:	d7 e2 27 c8 	l.sw 0xffffffc8(r2),r4
    47b8:	84 62 ff cc 	l.lwz r3,0xffffffcc(r2)
    47bc:	84 82 ff c8 	l.lwz r4,0xffffffc8(r2)
    47c0:	e0 63 20 08 	l.sll r3,r3,r4
    47c4:	d7 e2 1f d0 	l.sw 0xffffffd0(r2),r3
    47c8:	84 62 ff fc 	l.lwz r3,0xfffffffc(r2)
    47cc:	d7 e2 1f c0 	l.sw 0xffffffc0(r2),r3
    47d0:	84 82 ff d0 	l.lwz r4,0xffffffd0(r2)
    47d4:	84 62 ff c0 	l.lwz r3,0xffffffc0(r2)
    47d8:	e0 84 18 03 	l.and r4,r4,r3
    47dc:	d7 e2 27 c4 	l.sw 0xffffffc4(r2),r4
    47e0:	84 82 ff c4 	l.lwz r4,0xffffffc4(r2)
    47e4:	bc 04 00 00 	l.sfeqi r4,0x0
    47e8:	10 00 00 61 	l.bf 496c <_int_main+0x24c>
    47ec:	15 00 00 00 	l.nop 0x0
    47f0:	18 60 00 01 	l.movhi r3,0x1
    47f4:	a8 63 82 d0 	l.ori r3,r3,0x82d0
    47f8:	d7 e2 1f bc 	l.sw 0xffffffbc(r2),r3
    47fc:	84 82 ff f8 	l.lwz r4,0xfffffff8(r2)
    4800:	d7 e2 27 b8 	l.sw 0xffffffb8(r2),r4
    4804:	84 62 ff b8 	l.lwz r3,0xffffffb8(r2)
    4808:	d7 e2 1f b4 	l.sw 0xffffffb4(r2),r3
    480c:	84 82 ff b4 	l.lwz r4,0xffffffb4(r2)
    4810:	b8 84 00 03 	l.slli r4,r4,0x3
    4814:	d7 e2 27 b0 	l.sw 0xffffffb0(r2),r4
    4818:	84 62 ff b0 	l.lwz r3,0xffffffb0(r2)
    481c:	84 82 ff bc 	l.lwz r4,0xffffffbc(r2)
    4820:	e0 63 20 00 	l.add r3,r3,r4
    4824:	d7 e2 1f ac 	l.sw 0xffffffac(r2),r3
    4828:	84 62 ff ac 	l.lwz r3,0xffffffac(r2)
    482c:	84 63 00 00 	l.lwz r3,0x0(r3)
    4830:	d7 e2 1f a8 	l.sw 0xffffffa8(r2),r3
    4834:	84 82 ff a8 	l.lwz r4,0xffffffa8(r2)
    4838:	bc 04 00 00 	l.sfeqi r4,0x0
    483c:	10 00 00 4c 	l.bf 496c <_int_main+0x24c>
    4840:	15 00 00 00 	l.nop 0x0
    4844:	18 60 00 01 	l.movhi r3,0x1
    4848:	a8 63 82 d0 	l.ori r3,r3,0x82d0
    484c:	d7 e2 1f a4 	l.sw 0xffffffa4(r2),r3
    4850:	84 82 ff f8 	l.lwz r4,0xfffffff8(r2)
    4854:	d7 e2 27 a0 	l.sw 0xffffffa0(r2),r4
    4858:	84 62 ff a0 	l.lwz r3,0xffffffa0(r2)
    485c:	d7 e2 1f 9c 	l.sw 0xffffff9c(r2),r3
    4860:	84 82 ff 9c 	l.lwz r4,0xffffff9c(r2)
    4864:	b8 84 00 03 	l.slli r4,r4,0x3
    4868:	d7 e2 27 98 	l.sw 0xffffff98(r2),r4
    486c:	84 62 ff 98 	l.lwz r3,0xffffff98(r2)
    4870:	84 82 ff a4 	l.lwz r4,0xffffffa4(r2)
    4874:	e0 63 20 00 	l.add r3,r3,r4
    4878:	d7 e2 1f 94 	l.sw 0xffffff94(r2),r3
    487c:	18 60 00 01 	l.movhi r3,0x1
    4880:	a8 63 82 d0 	l.ori r3,r3,0x82d0
    4884:	d7 e2 1f 90 	l.sw 0xffffff90(r2),r3
    4888:	84 82 ff f8 	l.lwz r4,0xfffffff8(r2)
    488c:	d7 e2 27 8c 	l.sw 0xffffff8c(r2),r4
    4890:	84 62 ff 8c 	l.lwz r3,0xffffff8c(r2)
    4894:	d7 e2 1f 88 	l.sw 0xffffff88(r2),r3
    4898:	84 82 ff 88 	l.lwz r4,0xffffff88(r2)
    489c:	b8 84 00 03 	l.slli r4,r4,0x3
    48a0:	d7 e2 27 84 	l.sw 0xffffff84(r2),r4
    48a4:	84 62 ff 84 	l.lwz r3,0xffffff84(r2)
    48a8:	84 82 ff 90 	l.lwz r4,0xffffff90(r2)
    48ac:	e0 63 20 00 	l.add r3,r3,r4
    48b0:	d7 e2 1f 80 	l.sw 0xffffff80(r2),r3
    48b4:	84 62 ff 80 	l.lwz r3,0xffffff80(r2)
    48b8:	9c 63 00 04 	l.addi r3,r3,0x4
    48bc:	d7 e2 1f 7c 	l.sw 0xffffff7c(r2),r3
    48c0:	84 82 ff 94 	l.lwz r4,0xffffff94(r2)
    48c4:	84 84 00 00 	l.lwz r4,0x0(r4)
    48c8:	d7 e2 27 78 	l.sw 0xffffff78(r2),r4
    48cc:	84 82 ff 7c 	l.lwz r4,0xffffff7c(r2)
    48d0:	84 64 00 00 	l.lwz r3,0x0(r4)
    48d4:	84 82 ff 78 	l.lwz r4,0xffffff78(r2)
    48d8:	48 00 20 00 	l.jalr r4
    48dc:	15 00 00 00 	l.nop 0x0
    48e0:	9c 60 48 02 	l.addi r3,r0,0x4802
    48e4:	d7 e2 1f 70 	l.sw 0xffffff70(r2),r3
    48e8:	84 82 ff 70 	l.lwz r4,0xffffff70(r2)
    48ec:	b4 84 00 00 	l.mfspr r4,r4,0x0
    48f0:	d7 e2 27 74 	l.sw 0xffffff74(r2),r4
    48f4:	84 62 ff 74 	l.lwz r3,0xffffff74(r2)
    48f8:	d7 e2 1f 6c 	l.sw 0xffffff6c(r2),r3
    48fc:	84 82 ff 6c 	l.lwz r4,0xffffff6c(r2)
    4900:	d7 e2 27 f0 	l.sw 0xfffffff0(r2),r4
    4904:	84 62 ff f0 	l.lwz r3,0xfffffff0(r2)
    4908:	d7 e2 1f 68 	l.sw 0xffffff68(r2),r3
    490c:	9c 80 00 01 	l.addi r4,r0,0x1
    4910:	d7 e2 27 60 	l.sw 0xffffff60(r2),r4
    4914:	84 62 ff f8 	l.lwz r3,0xfffffff8(r2)
    4918:	d7 e2 1f 5c 	l.sw 0xffffff5c(r2),r3
    491c:	84 82 ff 60 	l.lwz r4,0xffffff60(r2)
    4920:	84 62 ff 5c 	l.lwz r3,0xffffff5c(r2)
    4924:	e0 84 18 08 	l.sll r4,r4,r3
    4928:	d7 e2 27 64 	l.sw 0xffffff64(r2),r4
    492c:	84 82 ff 64 	l.lwz r4,0xffffff64(r2)
    4930:	ac 84 ff ff 	l.xori r4,r4,0xffffffff
    4934:	d7 e2 27 58 	l.sw 0xffffff58(r2),r4
    4938:	84 62 ff 68 	l.lwz r3,0xffffff68(r2)
    493c:	84 82 ff 58 	l.lwz r4,0xffffff58(r2)
    4940:	e0 63 20 03 	l.and r3,r3,r4
    4944:	d7 e2 1f 54 	l.sw 0xffffff54(r2),r3
    4948:	84 62 ff 54 	l.lwz r3,0xffffff54(r2)
    494c:	d7 e2 1f f4 	l.sw 0xfffffff4(r2),r3
    4950:	9c 80 48 02 	l.addi r4,r0,0x4802
    4954:	d7 e2 27 50 	l.sw 0xffffff50(r2),r4
    4958:	84 62 ff f4 	l.lwz r3,0xfffffff4(r2)
    495c:	d7 e2 1f 4c 	l.sw 0xffffff4c(r2),r3
    4960:	84 82 ff 50 	l.lwz r4,0xffffff50(r2)
    4964:	84 62 ff 4c 	l.lwz r3,0xffffff4c(r2)
    4968:	c0 04 18 00 	l.mtspr r4,r3,0x0
    496c:	84 82 ff f8 	l.lwz r4,0xfffffff8(r2)
    4970:	d7 e2 27 48 	l.sw 0xffffff48(r2),r4
    4974:	84 62 ff 48 	l.lwz r3,0xffffff48(r2)
    4978:	9c 63 00 01 	l.addi r3,r3,0x1
    497c:	d7 e2 1f 44 	l.sw 0xffffff44(r2),r3
    4980:	84 82 ff 44 	l.lwz r4,0xffffff44(r2)
    4984:	d7 e2 27 f8 	l.sw 0xfffffff8(r2),r4
    4988:	03 ff ff 82 	l.j 4790 <_int_main+0x70>
    498c:	15 00 00 00 	l.nop 0x0
    4990:	85 21 00 00 	l.lwz r9,0x0(r1)
    4994:	84 41 00 04 	l.lwz r2,0x4(r1)
    4998:	44 00 48 00 	l.jr r9
    499c:	9c 21 00 c4 	l.addi r1,r1,0xc4

000049a0 <_impProcessorId>:
    49a0:	9c 21 ff ec 	l.addi r1,r1,0xffffffec
    49a4:	d4 01 10 0c 	l.sw 0xc(r1),r2
    49a8:	9c 41 00 14 	l.addi r2,r1,0x14
    49ac:	d4 01 48 08 	l.sw 0x8(r1),r9
    49b0:	18 60 00 01 	l.movhi r3,0x1
    49b4:	a8 63 20 5e 	l.ori r3,r3,0x205e
    49b8:	d4 01 18 00 	l.sw 0x0(r1),r3
    49bc:	18 60 00 01 	l.movhi r3,0x1
    49c0:	a8 63 20 4f 	l.ori r3,r3,0x204f
    49c4:	d4 01 18 04 	l.sw 0x4(r1),r3
    49c8:	04 00 02 3c 	l.jal 52b8 <_printf>
    49cc:	15 00 00 00 	l.nop 0x0
    49d0:	9c 60 00 00 	l.addi r3,r0,0x0
    49d4:	d7 e2 1f fc 	l.sw 0xfffffffc(r2),r3
    49d8:	85 62 ff fc 	l.lwz r11,0xfffffffc(r2)
    49dc:	85 21 00 08 	l.lwz r9,0x8(r1)
    49e0:	84 41 00 0c 	l.lwz r2,0xc(r1)
    49e4:	44 00 48 00 	l.jr r9
    49e8:	9c 21 00 14 	l.addi r1,r1,0x14

000049ec <_impProcessorInstructionCount>:
    49ec:	9c 21 ff ec 	l.addi r1,r1,0xffffffec
    49f0:	d4 01 10 0c 	l.sw 0xc(r1),r2
    49f4:	9c 41 00 14 	l.addi r2,r1,0x14
    49f8:	d4 01 48 08 	l.sw 0x8(r1),r9
    49fc:	18 60 00 01 	l.movhi r3,0x1
    4a00:	a8 63 20 5e 	l.ori r3,r3,0x205e
    4a04:	d4 01 18 00 	l.sw 0x0(r1),r3
    4a08:	18 60 00 01 	l.movhi r3,0x1
    4a0c:	a8 63 20 c8 	l.ori r3,r3,0x20c8
    4a10:	d4 01 18 04 	l.sw 0x4(r1),r3
    4a14:	04 00 02 29 	l.jal 52b8 <_printf>
    4a18:	15 00 00 00 	l.nop 0x0
    4a1c:	9c 60 00 00 	l.addi r3,r0,0x0
    4a20:	d7 e2 1f fc 	l.sw 0xfffffffc(r2),r3
    4a24:	85 62 ff fc 	l.lwz r11,0xfffffffc(r2)
    4a28:	85 21 00 08 	l.lwz r9,0x8(r1)
    4a2c:	84 41 00 0c 	l.lwz r2,0xc(r1)
    4a30:	44 00 48 00 	l.jr r9
    4a34:	9c 21 00 14 	l.addi r1,r1,0x14

00004a38 <_impReport>:
    4a38:	9c 21 ff ec 	l.addi r1,r1,0xffffffec
    4a3c:	d4 01 10 0c 	l.sw 0xc(r1),r2
    4a40:	9c 41 00 14 	l.addi r2,r1,0x14
    4a44:	d4 01 48 08 	l.sw 0x8(r1),r9
    4a48:	d7 e2 1f fc 	l.sw 0xfffffffc(r2),r3
    4a4c:	18 60 00 01 	l.movhi r3,0x1
    4a50:	a8 63 20 5e 	l.ori r3,r3,0x205e
    4a54:	d4 01 18 00 	l.sw 0x0(r1),r3
    4a58:	18 60 00 01 	l.movhi r3,0x1
    4a5c:	a8 63 20 e5 	l.ori r3,r3,0x20e5
    4a60:	d4 01 18 04 	l.sw 0x4(r1),r3
    4a64:	04 00 02 15 	l.jal 52b8 <_printf>
    4a68:	15 00 00 00 	l.nop 0x0
    4a6c:	85 21 00 08 	l.lwz r9,0x8(r1)
    4a70:	84 41 00 0c 	l.lwz r2,0xc(r1)
    4a74:	44 00 48 00 	l.jr r9
    4a78:	9c 21 00 14 	l.addi r1,r1,0x14

00004a7c <_impExchange>:
    4a7c:	9c 21 ff e8 	l.addi r1,r1,0xffffffe8
    4a80:	d4 01 10 0c 	l.sw 0xc(r1),r2
    4a84:	9c 41 00 18 	l.addi r2,r1,0x18
    4a88:	d4 01 48 08 	l.sw 0x8(r1),r9
    4a8c:	d7 e2 1f fc 	l.sw 0xfffffffc(r2),r3
    4a90:	d7 e2 27 f8 	l.sw 0xfffffff8(r2),r4
    4a94:	18 60 00 01 	l.movhi r3,0x1
    4a98:	a8 63 20 5e 	l.ori r3,r3,0x205e
    4a9c:	d4 01 18 00 	l.sw 0x0(r1),r3
    4aa0:	18 60 00 01 	l.movhi r3,0x1
    4aa4:	a8 63 20 ef 	l.ori r3,r3,0x20ef
    4aa8:	d4 01 18 04 	l.sw 0x4(r1),r3
    4aac:	04 00 02 03 	l.jal 52b8 <_printf>
    4ab0:	15 00 00 00 	l.nop 0x0
    4ab4:	85 21 00 08 	l.lwz r9,0x8(r1)
    4ab8:	84 41 00 0c 	l.lwz r2,0xc(r1)
    4abc:	44 00 48 00 	l.jr r9
    4ac0:	9c 21 00 18 	l.addi r1,r1,0x18

00004ac4 <_impHalt>:
    4ac4:	9c 21 ff f0 	l.addi r1,r1,0xfffffff0
    4ac8:	d4 01 10 0c 	l.sw 0xc(r1),r2
    4acc:	9c 41 00 10 	l.addi r2,r1,0x10
    4ad0:	d4 01 48 08 	l.sw 0x8(r1),r9
    4ad4:	18 60 00 01 	l.movhi r3,0x1
    4ad8:	a8 63 20 5e 	l.ori r3,r3,0x205e
    4adc:	d4 01 18 00 	l.sw 0x0(r1),r3
    4ae0:	18 60 00 01 	l.movhi r3,0x1
    4ae4:	a8 63 20 fb 	l.ori r3,r3,0x20fb
    4ae8:	d4 01 18 04 	l.sw 0x4(r1),r3
    4aec:	04 00 01 f3 	l.jal 52b8 <_printf>
    4af0:	15 00 00 00 	l.nop 0x0
    4af4:	85 21 00 08 	l.lwz r9,0x8(r1)
    4af8:	84 41 00 0c 	l.lwz r2,0xc(r1)
    4afc:	44 00 48 00 	l.jr r9
    4b00:	9c 21 00 10 	l.addi r1,r1,0x10

00004b04 <_impFinish>:
    4b04:	9c 21 ff f0 	l.addi r1,r1,0xfffffff0
    4b08:	d4 01 10 0c 	l.sw 0xc(r1),r2
    4b0c:	9c 41 00 10 	l.addi r2,r1,0x10
    4b10:	d4 01 48 08 	l.sw 0x8(r1),r9
    4b14:	18 60 00 01 	l.movhi r3,0x1
    4b18:	a8 63 20 5e 	l.ori r3,r3,0x205e
    4b1c:	d4 01 18 00 	l.sw 0x0(r1),r3
    4b20:	18 60 00 01 	l.movhi r3,0x1
    4b24:	a8 63 21 03 	l.ori r3,r3,0x2103
    4b28:	d4 01 18 04 	l.sw 0x4(r1),r3
    4b2c:	04 00 01 e3 	l.jal 52b8 <_printf>
    4b30:	15 00 00 00 	l.nop 0x0
    4b34:	00 00 00 00 	l.j 4b34 <_impFinish+0x30>
    4b38:	15 00 00 00 	l.nop 0x0
    4b3c:	85 21 00 08 	l.lwz r9,0x8(r1)
    4b40:	84 41 00 0c 	l.lwz r2,0xc(r1)
    4b44:	44 00 48 00 	l.jr r9
    4b48:	9c 21 00 10 	l.addi r1,r1,0x10

00004b4c <_impMpSync>:
    4b4c:	9c 21 ff f0 	l.addi r1,r1,0xfffffff0
    4b50:	d4 01 10 0c 	l.sw 0xc(r1),r2
    4b54:	9c 41 00 10 	l.addi r2,r1,0x10
    4b58:	d4 01 48 08 	l.sw 0x8(r1),r9
    4b5c:	18 60 00 01 	l.movhi r3,0x1
    4b60:	a8 63 20 5e 	l.ori r3,r3,0x205e
    4b64:	d4 01 18 00 	l.sw 0x0(r1),r3
    4b68:	18 60 00 01 	l.movhi r3,0x1
    4b6c:	a8 63 21 0d 	l.ori r3,r3,0x210d
    4b70:	d4 01 18 04 	l.sw 0x4(r1),r3
    4b74:	04 00 01 d1 	l.jal 52b8 <_printf>
    4b78:	15 00 00 00 	l.nop 0x0
    4b7c:	85 21 00 08 	l.lwz r9,0x8(r1)
    4b80:	84 41 00 0c 	l.lwz r2,0xc(r1)
    4b84:	44 00 48 00 	l.jr r9
    4b88:	9c 21 00 10 	l.addi r1,r1,0x10

00004b8c <_impMpIdle>:
    4b8c:	9c 21 ff f0 	l.addi r1,r1,0xfffffff0
    4b90:	d4 01 10 0c 	l.sw 0xc(r1),r2
    4b94:	9c 41 00 10 	l.addi r2,r1,0x10
    4b98:	d4 01 48 08 	l.sw 0x8(r1),r9
    4b9c:	18 60 00 01 	l.movhi r3,0x1
    4ba0:	a8 63 20 5e 	l.ori r3,r3,0x205e
    4ba4:	d4 01 18 00 	l.sw 0x0(r1),r3
    4ba8:	18 60 00 01 	l.movhi r3,0x1
    4bac:	a8 63 21 17 	l.ori r3,r3,0x2117
    4bb0:	d4 01 18 04 	l.sw 0x4(r1),r3
    4bb4:	04 00 01 c1 	l.jal 52b8 <_printf>
    4bb8:	15 00 00 00 	l.nop 0x0
    4bbc:	85 21 00 08 	l.lwz r9,0x8(r1)
    4bc0:	84 41 00 0c 	l.lwz r2,0xc(r1)
    4bc4:	44 00 48 00 	l.jr r9
    4bc8:	9c 21 00 10 	l.addi r1,r1,0x10

00004bcc <___udivsi3>:
    4bcc:	9c 21 ff fc 	l.addi r1,r1,0xfffffffc
    4bd0:	d4 01 48 00 	l.sw 0x0(r1),r9
    4bd4:	9d 60 00 00 	l.addi r11,r0,0x0
    4bd8:	9d 04 00 00 	l.addi r8,r4,0x0
    4bdc:	9c a3 00 00 	l.addi r5,r3,0x0
    4be0:	e4 28 58 00 	l.sfne r8,r11
    4be4:	0c 00 00 36 	l.bnf 4cbc <___udivsi3+0xf0>
    4be8:	9c e0 00 00 	l.addi r7,r0,0x0
    4bec:	e4 48 28 00 	l.sfgtu r8,r5
    4bf0:	10 00 00 32 	l.bf 4cb8 <___udivsi3+0xec>
    4bf4:	e4 08 28 00 	l.sfeq r8,r5
    4bf8:	10 00 00 2e 	l.bf 4cb0 <___udivsi3+0xe4>
    4bfc:	e4 8b 40 00 	l.sfltu r11,r8
    4c00:	0c 00 00 0d 	l.bnf 4c34 <___udivsi3+0x68>
    4c04:	9d a0 00 20 	l.addi r13,r0,0x20
    4c08:	19 20 80 00 	l.movhi r9,0x8000
    4c0c:	9c c0 ff ff 	l.addi r6,r0,0xffffffff
    4c10:	e0 65 48 03 	l.and r3,r5,r9
    4c14:	b8 87 00 01 	l.slli r4,r7,0x1
    4c18:	9d e5 00 00 	l.addi r15,r5,0x0
    4c1c:	b8 63 00 5f 	l.srli r3,r3,0x1f
    4c20:	e1 ad 30 00 	l.add r13,r13,r6
    4c24:	e0 e4 18 04 	l.or r7,r4,r3
    4c28:	e4 87 40 00 	l.sfltu r7,r8
    4c2c:	13 ff ff f9 	l.bf 4c10 <___udivsi3+0x44>
    4c30:	b8 a5 00 01 	l.slli r5,r5,0x1
    4c34:	b8 e7 00 41 	l.srli r7,r7,0x1
    4c38:	9d ad 00 01 	l.addi r13,r13,0x1
    4c3c:	9d 20 00 00 	l.addi r9,r0,0x0
    4c40:	e4 89 68 00 	l.sfltu r9,r13
    4c44:	0c 00 00 1e 	l.bnf 4cbc <___udivsi3+0xf0>
    4c48:	9c af 00 00 	l.addi r5,r15,0x0
    4c4c:	19 e0 80 00 	l.movhi r15,0x8000
    4c50:	9e 20 00 00 	l.addi r17,r0,0x0
    4c54:	e0 65 78 03 	l.and r3,r5,r15
    4c58:	b8 87 00 01 	l.slli r4,r7,0x1
    4c5c:	b8 63 00 5f 	l.srli r3,r3,0x1f
    4c60:	e0 e4 18 04 	l.or r7,r4,r3
    4c64:	e0 c7 40 02 	l.sub r6,r7,r8
    4c68:	e0 66 78 03 	l.and r3,r6,r15
    4c6c:	b8 63 00 5f 	l.srli r3,r3,0x1f
    4c70:	9c 80 00 00 	l.addi r4,r0,0x0
    4c74:	e4 23 20 00 	l.sfne r3,r4
    4c78:	10 00 00 03 	l.bf 4c84 <___udivsi3+0xb8>
    4c7c:	b8 6b 00 01 	l.slli r3,r11,0x1
    4c80:	9c 80 00 01 	l.addi r4,r0,0x1
    4c84:	b8 a5 00 01 	l.slli r5,r5,0x1
    4c88:	e4 24 88 00 	l.sfne r4,r17
    4c8c:	0c 00 00 03 	l.bnf 4c98 <___udivsi3+0xcc>
    4c90:	e1 63 20 04 	l.or r11,r3,r4
    4c94:	9c e6 00 00 	l.addi r7,r6,0x0
    4c98:	9d 29 00 01 	l.addi r9,r9,0x1
    4c9c:	e4 89 68 00 	l.sfltu r9,r13
    4ca0:	13 ff ff ed 	l.bf 4c54 <___udivsi3+0x88>
    4ca4:	15 00 00 00 	l.nop 0x0
    4ca8:	00 00 00 05 	l.j 4cbc <___udivsi3+0xf0>
    4cac:	15 00 00 00 	l.nop 0x0
    4cb0:	00 00 00 03 	l.j 4cbc <___udivsi3+0xf0>
    4cb4:	9d 60 00 01 	l.addi r11,r0,0x1
    4cb8:	9c e5 00 00 	l.addi r7,r5,0x0
    4cbc:	85 21 00 00 	l.lwz r9,0x0(r1)
    4cc0:	44 00 48 00 	l.jr r9
    4cc4:	9c 21 00 04 	l.addi r1,r1,0x4

00004cc8 <___modsi3>:
    4cc8:	9c 21 ff f8 	l.addi r1,r1,0xfffffff8
    4ccc:	d4 01 48 00 	l.sw 0x0(r1),r9
    4cd0:	d4 01 50 04 	l.sw 0x4(r1),r10
    4cd4:	e5 83 00 00 	l.sflts r3,r0
    4cd8:	0c 00 00 04 	l.bnf 4ce8 <___modsi3+0x20>
    4cdc:	9d 40 00 00 	l.addi r10,r0,0x0
    4ce0:	9d 40 00 01 	l.addi r10,r0,0x1
    4ce4:	e0 60 18 02 	l.sub r3,r0,r3
    4ce8:	e5 84 00 00 	l.sflts r4,r0
    4cec:	0c 00 00 03 	l.bnf 4cf8 <___modsi3+0x30>
    4cf0:	15 00 00 00 	l.nop 0x0
    4cf4:	e0 80 20 02 	l.sub r4,r0,r4
    4cf8:	07 ff ff b5 	l.jal 4bcc <___udivsi3>
    4cfc:	15 00 00 00 	l.nop 0x0
    4d00:	bc 0a 00 01 	l.sfeqi r10,0x1
    4d04:	0c 00 00 03 	l.bnf 4d10 <___modsi3+0x48>
    4d08:	9d 67 00 00 	l.addi r11,r7,0x0
    4d0c:	e1 60 58 02 	l.sub r11,r0,r11
    4d10:	85 21 00 00 	l.lwz r9,0x0(r1)
    4d14:	85 41 00 04 	l.lwz r10,0x4(r1)
    4d18:	44 00 48 00 	l.jr r9
    4d1c:	9c 21 00 08 	l.addi r1,r1,0x8

00004d20 <___divsi3>:
    4d20:	9c 21 ff f8 	l.addi r1,r1,0xfffffff8
    4d24:	d4 01 48 00 	l.sw 0x0(r1),r9
    4d28:	d4 01 50 04 	l.sw 0x4(r1),r10
    4d2c:	9c a3 00 00 	l.addi r5,r3,0x0
    4d30:	9d 40 00 00 	l.addi r10,r0,0x0
    4d34:	e5 85 50 00 	l.sflts r5,r10
    4d38:	0c 00 00 04 	l.bnf 4d48 <___divsi3+0x28>
    4d3c:	9c 60 00 00 	l.addi r3,r0,0x0
    4d40:	9d 40 00 01 	l.addi r10,r0,0x1
    4d44:	e0 a0 28 02 	l.sub r5,r0,r5
    4d48:	e5 84 18 00 	l.sflts r4,r3
    4d4c:	0c 00 00 04 	l.bnf 4d5c <___divsi3+0x3c>
    4d50:	15 00 00 00 	l.nop 0x0
    4d54:	9d 4a 00 01 	l.addi r10,r10,0x1
    4d58:	e0 80 20 02 	l.sub r4,r0,r4
    4d5c:	07 ff ff 9c 	l.jal 4bcc <___udivsi3>
    4d60:	9c 65 00 00 	l.addi r3,r5,0x0
    4d64:	9c 60 00 01 	l.addi r3,r0,0x1
    4d68:	e4 0a 18 00 	l.sfeq r10,r3
    4d6c:	0c 00 00 03 	l.bnf 4d78 <___divsi3+0x58>
    4d70:	15 00 00 00 	l.nop 0x0
    4d74:	e1 60 58 02 	l.sub r11,r0,r11
    4d78:	85 21 00 00 	l.lwz r9,0x0(r1)
    4d7c:	85 41 00 04 	l.lwz r10,0x4(r1)
    4d80:	44 00 48 00 	l.jr r9
    4d84:	9c 21 00 08 	l.addi r1,r1,0x8

00004d88 <___umodsi3>:
    4d88:	9c 21 ff fc 	l.addi r1,r1,0xfffffffc
    4d8c:	d4 01 48 00 	l.sw 0x0(r1),r9
    4d90:	07 ff ff 8f 	l.jal 4bcc <___udivsi3>
    4d94:	15 00 00 00 	l.nop 0x0
    4d98:	9d 67 00 00 	l.addi r11,r7,0x0
    4d9c:	85 21 00 00 	l.lwz r9,0x0(r1)
    4da0:	44 00 48 00 	l.jr r9
    4da4:	9c 21 00 04 	l.addi r1,r1,0x4

00004da8 <__sprintf_r>:
    4da8:	9c 21 ff 9c 	l.addi r1,r1,0xffffff9c
    4dac:	d4 01 10 04 	l.sw 0x4(r1),r2
    4db0:	9c 41 00 64 	l.addi r2,r1,0x64
    4db4:	d4 01 48 00 	l.sw 0x0(r1),r9
    4db8:	a8 e4 00 00 	l.ori r7,r4,0x0
    4dbc:	84 a2 00 00 	l.lwz r5,0x0(r2)
    4dc0:	18 80 7f ff 	l.movhi r4,0x7fff
    4dc4:	a8 84 ff ff 	l.ori r4,r4,0xffff
    4dc8:	9c c2 00 04 	l.addi r6,r2,0x4
    4dcc:	d7 e2 27 ac 	l.sw 0xffffffac(r2),r4
    4dd0:	d7 e2 3f b4 	l.sw 0xffffffb4(r2),r7
    4dd4:	9c 80 02 08 	l.addi r4,r0,0x208
    4dd8:	d7 e2 3f a4 	l.sw 0xffffffa4(r2),r7
    4ddc:	df e2 27 b0 	l.sh 0xffffffb0(r2),r4
    4de0:	18 80 7f ff 	l.movhi r4,0x7fff
    4de4:	a8 84 ff ff 	l.ori r4,r4,0xffff
    4de8:	d7 e2 27 b8 	l.sw 0xffffffb8(r2),r4
    4dec:	9c 80 ff ff 	l.addi r4,r0,0xffffffff
    4df0:	df e2 27 b2 	l.sh 0xffffffb2(r2),r4
    4df4:	04 00 02 7f 	l.jal 57f0 <__vfprintf_r>
    4df8:	9c 82 ff a4 	l.addi r4,r2,0xffffffa4
    4dfc:	84 62 ff a4 	l.lwz r3,0xffffffa4(r2)
    4e00:	9c 80 00 00 	l.addi r4,r0,0x0
    4e04:	d8 03 20 00 	l.sb 0x0(r3),r4
    4e08:	85 21 00 00 	l.lwz r9,0x0(r1)
    4e0c:	84 41 00 04 	l.lwz r2,0x4(r1)
    4e10:	44 00 48 00 	l.jr r9
    4e14:	9c 21 00 64 	l.addi r1,r1,0x64

00004e18 <_sprintf>:
    4e18:	9c 21 ff 9c 	l.addi r1,r1,0xffffff9c
    4e1c:	d4 01 10 04 	l.sw 0x4(r1),r2
    4e20:	9c 41 00 64 	l.addi r2,r1,0x64
    4e24:	d4 01 48 00 	l.sw 0x0(r1),r9
    4e28:	a8 e3 00 00 	l.ori r7,r3,0x0
    4e2c:	9c 80 02 08 	l.addi r4,r0,0x208
    4e30:	18 60 7f ff 	l.movhi r3,0x7fff
    4e34:	a8 63 ff ff 	l.ori r3,r3,0xffff
    4e38:	df e2 27 b0 	l.sh 0xffffffb0(r2),r4
    4e3c:	9c c2 00 04 	l.addi r6,r2,0x4
    4e40:	9c 82 ff a4 	l.addi r4,r2,0xffffffa4
    4e44:	d7 e2 1f ac 	l.sw 0xffffffac(r2),r3
    4e48:	d7 e2 1f b8 	l.sw 0xffffffb8(r2),r3
    4e4c:	84 a2 00 00 	l.lwz r5,0x0(r2)
    4e50:	9c 60 ff ff 	l.addi r3,r0,0xffffffff
    4e54:	df e2 1f b2 	l.sh 0xffffffb2(r2),r3
    4e58:	18 60 00 01 	l.movhi r3,0x1
    4e5c:	a8 63 2b f8 	l.ori r3,r3,0x2bf8
    4e60:	d7 e2 3f b4 	l.sw 0xffffffb4(r2),r7
    4e64:	84 63 00 00 	l.lwz r3,0x0(r3)
    4e68:	04 00 02 62 	l.jal 57f0 <__vfprintf_r>
    4e6c:	d7 e2 3f a4 	l.sw 0xffffffa4(r2),r7
    4e70:	84 62 ff a4 	l.lwz r3,0xffffffa4(r2)
    4e74:	9c 80 00 00 	l.addi r4,r0,0x0
    4e78:	d8 03 20 00 	l.sb 0x0(r3),r4
    4e7c:	85 21 00 00 	l.lwz r9,0x0(r1)
    4e80:	84 41 00 04 	l.lwz r2,0x4(r1)
    4e84:	44 00 48 00 	l.jr r9
    4e88:	9c 21 00 64 	l.addi r1,r1,0x64

00004e8c <__fopen_r>:
    4e8c:	9c 21 ff e4 	l.addi r1,r1,0xffffffe4
    4e90:	d4 01 10 04 	l.sw 0x4(r1),r2
    4e94:	9c 41 00 1c 	l.addi r2,r1,0x1c
    4e98:	d4 01 48 00 	l.sw 0x0(r1),r9
    4e9c:	d4 01 50 08 	l.sw 0x8(r1),r10
    4ea0:	d4 01 60 0c 	l.sw 0xc(r1),r12
    4ea4:	d4 01 70 10 	l.sw 0x10(r1),r14
    4ea8:	d4 01 80 14 	l.sw 0x14(r1),r16
    4eac:	aa 04 00 00 	l.ori r16,r4,0x0
    4eb0:	a9 c3 00 00 	l.ori r14,r3,0x0
    4eb4:	a8 85 00 00 	l.ori r4,r5,0x0
    4eb8:	04 00 09 7b 	l.jal 74a4 <___sflags>
    4ebc:	9c a2 ff fc 	l.addi r5,r2,0xfffffffc
    4ec0:	a9 8b 00 00 	l.ori r12,r11,0x0
    4ec4:	bc 2b 00 00 	l.sfnei r11,0x0
    4ec8:	a8 6e 00 00 	l.ori r3,r14,0x0
    4ecc:	0c 00 00 32 	l.bnf 4f94 <__fopen_r+0x108>
    4ed0:	9d 60 00 00 	l.addi r11,r0,0x0
    4ed4:	04 00 0a 0f 	l.jal 7710 <___sfp>
    4ed8:	15 00 00 00 	l.nop 0x0
    4edc:	a9 4b 00 00 	l.ori r10,r11,0x0
    4ee0:	bc 2b 00 00 	l.sfnei r11,0x0
    4ee4:	a8 90 00 00 	l.ori r4,r16,0x0
    4ee8:	a8 6e 00 00 	l.ori r3,r14,0x0
    4eec:	9c c0 01 b6 	l.addi r6,r0,0x1b6
    4ef0:	0c 00 00 29 	l.bnf 4f94 <__fopen_r+0x108>
    4ef4:	9d 60 00 00 	l.addi r11,r0,0x0
    4ef8:	04 00 0a 8c 	l.jal 7928 <__open_r>
    4efc:	84 a2 ff fc 	l.lwz r5,0xfffffffc(r2)
    4f00:	b8 6c 00 48 	l.srli r3,r12,0x8
    4f04:	bd 6b 00 00 	l.sfgesi r11,0x0
    4f08:	0c 00 00 1d 	l.bnf 4f7c <__fopen_r+0xf0>
    4f0c:	a4 63 00 01 	l.andi r3,r3,0x1
    4f10:	18 80 00 00 	l.movhi r4,0x0
    4f14:	a8 84 79 9c 	l.ori r4,r4,0x799c
    4f18:	bc 03 00 00 	l.sfeqi r3,0x0
    4f1c:	d4 0a 20 20 	l.sw 0x20(r10),r4
    4f20:	dc 0a 58 0e 	l.sh 0xe(r10),r11
    4f24:	18 80 00 00 	l.movhi r4,0x0
    4f28:	a8 84 7a 10 	l.ori r4,r4,0x7a10
    4f2c:	a8 6e 00 00 	l.ori r3,r14,0x0
    4f30:	d4 0a 20 24 	l.sw 0x24(r10),r4
    4f34:	dc 0a 60 0c 	l.sh 0xc(r10),r12
    4f38:	18 80 00 00 	l.movhi r4,0x0
    4f3c:	a8 84 7a c0 	l.ori r4,r4,0x7ac0
    4f40:	9c a0 00 00 	l.addi r5,r0,0x0
    4f44:	d4 0a 20 28 	l.sw 0x28(r10),r4
    4f48:	d4 0a 50 1c 	l.sw 0x1c(r10),r10
    4f4c:	18 80 00 00 	l.movhi r4,0x0
    4f50:	a8 84 7b 30 	l.ori r4,r4,0x7b30
    4f54:	9c c0 00 02 	l.addi r6,r0,0x2
    4f58:	d4 0a 20 2c 	l.sw 0x2c(r10),r4
    4f5c:	0c 00 00 04 	l.bnf 4f6c <__fopen_r+0xe0>
    4f60:	a8 8a 00 00 	l.ori r4,r10,0x0
    4f64:	00 00 00 0c 	l.j 4f94 <__fopen_r+0x108>
    4f68:	a9 6a 00 00 	l.ori r11,r10,0x0
    4f6c:	04 00 0a fe 	l.jal 7b64 <__fseek_r>
    4f70:	15 00 00 00 	l.nop 0x0
    4f74:	00 00 00 08 	l.j 4f94 <__fopen_r+0x108>
    4f78:	a9 6a 00 00 	l.ori r11,r10,0x0
    4f7c:	04 00 09 b5 	l.jal 7650 <___sfp_lock_acquire>
    4f80:	15 00 00 00 	l.nop 0x0
    4f84:	9c 60 00 00 	l.addi r3,r0,0x0
    4f88:	04 00 09 dc 	l.jal 76f8 <___sfp_lock_release>
    4f8c:	dc 0a 18 0c 	l.sh 0xc(r10),r3
    4f90:	9d 60 00 00 	l.addi r11,r0,0x0
    4f94:	85 21 00 00 	l.lwz r9,0x0(r1)
    4f98:	84 41 00 04 	l.lwz r2,0x4(r1)
    4f9c:	85 41 00 08 	l.lwz r10,0x8(r1)
    4fa0:	85 81 00 0c 	l.lwz r12,0xc(r1)
    4fa4:	85 c1 00 10 	l.lwz r14,0x10(r1)
    4fa8:	86 01 00 14 	l.lwz r16,0x14(r1)
    4fac:	44 00 48 00 	l.jr r9
    4fb0:	9c 21 00 1c 	l.addi r1,r1,0x1c

00004fb4 <_fopen>:
    4fb4:	9c 21 ff f8 	l.addi r1,r1,0xfffffff8
    4fb8:	d4 01 10 04 	l.sw 0x4(r1),r2
    4fbc:	9c 41 00 08 	l.addi r2,r1,0x8
    4fc0:	d4 01 48 00 	l.sw 0x0(r1),r9
    4fc4:	a8 c3 00 00 	l.ori r6,r3,0x0
    4fc8:	a8 a4 00 00 	l.ori r5,r4,0x0
    4fcc:	18 60 00 01 	l.movhi r3,0x1
    4fd0:	a8 63 2b f8 	l.ori r3,r3,0x2bf8
    4fd4:	a8 86 00 00 	l.ori r4,r6,0x0
    4fd8:	07 ff ff ad 	l.jal 4e8c <__fopen_r>
    4fdc:	84 63 00 00 	l.lwz r3,0x0(r3)
    4fe0:	85 21 00 00 	l.lwz r9,0x0(r1)
    4fe4:	84 41 00 04 	l.lwz r2,0x4(r1)
    4fe8:	44 00 48 00 	l.jr r9
    4fec:	9c 21 00 08 	l.addi r1,r1,0x8

00004ff0 <_fwrite>:
    4ff0:	9c 21 ff d8 	l.addi r1,r1,0xffffffd8
    4ff4:	d4 01 10 04 	l.sw 0x4(r1),r2
    4ff8:	9c 41 00 28 	l.addi r2,r1,0x28
    4ffc:	d4 01 48 00 	l.sw 0x0(r1),r9
    5000:	d4 01 50 08 	l.sw 0x8(r1),r10
    5004:	d4 01 60 0c 	l.sw 0xc(r1),r12
    5008:	d4 01 70 10 	l.sw 0x10(r1),r14
    500c:	e1 45 23 06 	l.mul r10,r5,r4
    5010:	a9 84 00 00 	l.ori r12,r4,0x0
    5014:	d7 e2 1f ec 	l.sw 0xffffffec(r2),r3
    5018:	a9 c5 00 00 	l.ori r14,r5,0x0
    501c:	a8 66 00 00 	l.ori r3,r6,0x0
    5020:	9c 82 ff ec 	l.addi r4,r2,0xffffffec
    5024:	d7 e2 57 f0 	l.sw 0xfffffff0(r2),r10
    5028:	d7 e2 27 f4 	l.sw 0xfffffff4(r2),r4
    502c:	d7 e2 57 fc 	l.sw 0xfffffffc(r2),r10
    5030:	9c 80 00 01 	l.addi r4,r0,0x1
    5034:	d7 e2 27 f8 	l.sw 0xfffffff8(r2),r4
    5038:	04 00 0c 38 	l.jal 8118 <___sfvwrite>
    503c:	9c 82 ff f4 	l.addi r4,r2,0xfffffff4
    5040:	a8 8c 00 00 	l.ori r4,r12,0x0
    5044:	bc 2b 00 00 	l.sfnei r11,0x0
    5048:	0c 00 00 06 	l.bnf 5060 <_fwrite+0x70>
    504c:	a8 ae 00 00 	l.ori r5,r14,0x0
    5050:	84 62 ff fc 	l.lwz r3,0xfffffffc(r2)
    5054:	07 ff fe de 	l.jal 4bcc <___udivsi3>
    5058:	e0 6a 18 02 	l.sub r3,r10,r3
    505c:	a8 ab 00 00 	l.ori r5,r11,0x0
    5060:	a9 65 00 00 	l.ori r11,r5,0x0
    5064:	85 21 00 00 	l.lwz r9,0x0(r1)
    5068:	84 41 00 04 	l.lwz r2,0x4(r1)
    506c:	85 41 00 08 	l.lwz r10,0x8(r1)
    5070:	85 81 00 0c 	l.lwz r12,0xc(r1)
    5074:	85 c1 00 10 	l.lwz r14,0x10(r1)
    5078:	44 00 48 00 	l.jr r9
    507c:	9c 21 00 28 	l.addi r1,r1,0x28

00005080 <_fprintf>:
    5080:	9c 21 ff f8 	l.addi r1,r1,0xfffffff8
    5084:	d4 01 10 04 	l.sw 0x4(r1),r2
    5088:	9c 41 00 08 	l.addi r2,r1,0x8
    508c:	d4 01 48 00 	l.sw 0x0(r1),r9
    5090:	84 82 00 00 	l.lwz r4,0x0(r2)
    5094:	04 00 08 f3 	l.jal 7460 <_vfprintf>
    5098:	9c a2 00 04 	l.addi r5,r2,0x4
    509c:	85 21 00 00 	l.lwz r9,0x0(r1)
    50a0:	84 41 00 04 	l.lwz r2,0x4(r1)
    50a4:	44 00 48 00 	l.jr r9
    50a8:	9c 21 00 08 	l.addi r1,r1,0x8

000050ac <__fclose_r>:
    50ac:	9c 21 ff e8 	l.addi r1,r1,0xffffffe8
    50b0:	d4 01 10 04 	l.sw 0x4(r1),r2
    50b4:	9c 41 00 18 	l.addi r2,r1,0x18
    50b8:	d4 01 48 00 	l.sw 0x0(r1),r9
    50bc:	d4 01 50 08 	l.sw 0x8(r1),r10
    50c0:	d4 01 60 0c 	l.sw 0xc(r1),r12
    50c4:	d4 01 70 10 	l.sw 0x10(r1),r14
    50c8:	d4 01 80 14 	l.sw 0x14(r1),r16
    50cc:	a9 44 00 00 	l.ori r10,r4,0x0
    50d0:	bc 24 00 00 	l.sfnei r4,0x0
    50d4:	10 00 00 04 	l.bf 50e4 <__fclose_r+0x38>
    50d8:	a9 83 00 00 	l.ori r12,r3,0x0
    50dc:	00 00 00 56 	l.j 5234 <__fclose_r+0x188>
    50e0:	9d 60 00 00 	l.addi r11,r0,0x0
    50e4:	1a 00 00 01 	l.movhi r16,0x1
    50e8:	aa 10 2b f8 	l.ori r16,r16,0x2bf8
    50ec:	04 00 09 59 	l.jal 7650 <___sfp_lock_acquire>
    50f0:	15 00 00 00 	l.nop 0x0
    50f4:	84 70 00 00 	l.lwz r3,0x0(r16)
    50f8:	bc 03 00 00 	l.sfeqi r3,0x0
    50fc:	0c 00 00 29 	l.bnf 51a0 <__fclose_r+0xf4>
    5100:	15 00 00 00 	l.nop 0x0
    5104:	94 8a 00 0c 	l.lhz r4,0xc(r10)
    5108:	b8 64 00 10 	l.slli r3,r4,0x10
    510c:	b8 63 00 90 	l.srai r3,r3,0x10
    5110:	bc 23 00 00 	l.sfnei r3,0x0
    5114:	0c 00 00 2b 	l.bnf 51c0 <__fclose_r+0x114>
    5118:	b8 64 00 43 	l.srli r3,r4,0x3
    511c:	a4 63 00 01 	l.andi r3,r3,0x1
    5120:	bc 03 00 00 	l.sfeqi r3,0x0
    5124:	0c 00 00 3c 	l.bnf 5214 <__fclose_r+0x168>
    5128:	15 00 00 00 	l.nop 0x0
    512c:	9d c0 00 00 	l.addi r14,r0,0x0
    5130:	84 8a 00 2c 	l.lwz r4,0x2c(r10)
    5134:	bc 04 00 00 	l.sfeqi r4,0x0
    5138:	0c 00 00 30 	l.bnf 51f8 <__fclose_r+0x14c>
    513c:	15 00 00 00 	l.nop 0x0
    5140:	94 6a 00 0c 	l.lhz r3,0xc(r10)
    5144:	b8 63 00 47 	l.srli r3,r3,0x7
    5148:	a4 63 00 01 	l.andi r3,r3,0x1
    514c:	bc 03 00 00 	l.sfeqi r3,0x0
    5150:	0c 00 00 20 	l.bnf 51d0 <__fclose_r+0x124>
    5154:	15 00 00 00 	l.nop 0x0
    5158:	84 8a 00 30 	l.lwz r4,0x30(r10)
    515c:	bc 04 00 00 	l.sfeqi r4,0x0
    5160:	10 00 00 07 	l.bf 517c <__fclose_r+0xd0>
    5164:	9c 6a 00 40 	l.addi r3,r10,0x40
    5168:	e4 04 18 00 	l.sfeq r4,r3
    516c:	0c 00 00 2e 	l.bnf 5224 <__fclose_r+0x178>
    5170:	15 00 00 00 	l.nop 0x0
    5174:	9c 60 00 00 	l.addi r3,r0,0x0
    5178:	d4 0a 18 30 	l.sw 0x30(r10),r3
    517c:	84 8a 00 44 	l.lwz r4,0x44(r10)
    5180:	bc 04 00 00 	l.sfeqi r4,0x0
    5184:	0c 00 00 18 	l.bnf 51e4 <__fclose_r+0x138>
    5188:	15 00 00 00 	l.nop 0x0
    518c:	9c 60 00 00 	l.addi r3,r0,0x0
    5190:	04 00 09 5a 	l.jal 76f8 <___sfp_lock_release>
    5194:	dc 0a 18 0c 	l.sh 0xc(r10),r3
    5198:	00 00 00 27 	l.j 5234 <__fclose_r+0x188>
    519c:	a9 6e 00 00 	l.ori r11,r14,0x0
    51a0:	84 83 00 38 	l.lwz r4,0x38(r3)
    51a4:	bc 24 00 00 	l.sfnei r4,0x0
    51a8:	13 ff ff d7 	l.bf 5104 <__fclose_r+0x58>
    51ac:	15 00 00 00 	l.nop 0x0
    51b0:	04 00 09 2e 	l.jal 7668 <___sinit>
    51b4:	15 00 00 00 	l.nop 0x0
    51b8:	03 ff ff d4 	l.j 5108 <__fclose_r+0x5c>
    51bc:	94 8a 00 0c 	l.lhz r4,0xc(r10)
    51c0:	04 00 09 4e 	l.jal 76f8 <___sfp_lock_release>
    51c4:	15 00 00 00 	l.nop 0x0
    51c8:	00 00 00 1b 	l.j 5234 <__fclose_r+0x188>
    51cc:	9d 60 00 00 	l.addi r11,r0,0x0
    51d0:	84 8a 00 10 	l.lwz r4,0x10(r10)
    51d4:	04 00 0d 5f 	l.jal 8750 <__free_r>
    51d8:	a8 6c 00 00 	l.ori r3,r12,0x0
    51dc:	03 ff ff e0 	l.j 515c <__fclose_r+0xb0>
    51e0:	84 8a 00 30 	l.lwz r4,0x30(r10)
    51e4:	04 00 0d 5b 	l.jal 8750 <__free_r>
    51e8:	84 70 00 00 	l.lwz r3,0x0(r16)
    51ec:	9c 60 00 00 	l.addi r3,r0,0x0
    51f0:	03 ff ff e7 	l.j 518c <__fclose_r+0xe0>
    51f4:	d4 0a 18 44 	l.sw 0x44(r10),r3
    51f8:	48 00 20 00 	l.jalr r4
    51fc:	84 6a 00 1c 	l.lwz r3,0x1c(r10)
    5200:	bd 6b 00 00 	l.sfgesi r11,0x0
    5204:	13 ff ff cf 	l.bf 5140 <__fclose_r+0x94>
    5208:	15 00 00 00 	l.nop 0x0
    520c:	03 ff ff cd 	l.j 5140 <__fclose_r+0x94>
    5210:	9d c0 ff ff 	l.addi r14,r0,0xffffffff
    5214:	04 00 0e 13 	l.jal 8a60 <_fflush>
    5218:	a8 6a 00 00 	l.ori r3,r10,0x0
    521c:	03 ff ff c5 	l.j 5130 <__fclose_r+0x84>
    5220:	a9 cb 00 00 	l.ori r14,r11,0x0
    5224:	04 00 0d 4b 	l.jal 8750 <__free_r>
    5228:	84 70 00 00 	l.lwz r3,0x0(r16)
    522c:	03 ff ff d3 	l.j 5178 <__fclose_r+0xcc>
    5230:	9c 60 00 00 	l.addi r3,r0,0x0
    5234:	85 21 00 00 	l.lwz r9,0x0(r1)
    5238:	84 41 00 04 	l.lwz r2,0x4(r1)
    523c:	85 41 00 08 	l.lwz r10,0x8(r1)
    5240:	85 81 00 0c 	l.lwz r12,0xc(r1)
    5244:	85 c1 00 10 	l.lwz r14,0x10(r1)
    5248:	86 01 00 14 	l.lwz r16,0x14(r1)
    524c:	44 00 48 00 	l.jr r9
    5250:	9c 21 00 18 	l.addi r1,r1,0x18

00005254 <_fclose>:
    5254:	9c 21 ff f8 	l.addi r1,r1,0xfffffff8
    5258:	d4 01 10 04 	l.sw 0x4(r1),r2
    525c:	9c 41 00 08 	l.addi r2,r1,0x8
    5260:	d4 01 48 00 	l.sw 0x0(r1),r9
    5264:	a8 83 00 00 	l.ori r4,r3,0x0
    5268:	18 60 00 01 	l.movhi r3,0x1
    526c:	a8 63 2b f8 	l.ori r3,r3,0x2bf8
    5270:	07 ff ff 8f 	l.jal 50ac <__fclose_r>
    5274:	84 63 00 00 	l.lwz r3,0x0(r3)
    5278:	85 21 00 00 	l.lwz r9,0x0(r1)
    527c:	84 41 00 04 	l.lwz r2,0x4(r1)
    5280:	44 00 48 00 	l.jr r9
    5284:	9c 21 00 08 	l.addi r1,r1,0x8

00005288 <__printf_r>:
    5288:	9c 21 ff f8 	l.addi r1,r1,0xfffffff8
    528c:	d4 01 10 04 	l.sw 0x4(r1),r2
    5290:	9c 41 00 08 	l.addi r2,r1,0x8
    5294:	d4 01 48 00 	l.sw 0x0(r1),r9
    5298:	84 83 00 08 	l.lwz r4,0x8(r3)
    529c:	9c c2 00 04 	l.addi r6,r2,0x4
    52a0:	04 00 01 54 	l.jal 57f0 <__vfprintf_r>
    52a4:	84 a2 00 00 	l.lwz r5,0x0(r2)
    52a8:	85 21 00 00 	l.lwz r9,0x0(r1)
    52ac:	84 41 00 04 	l.lwz r2,0x4(r1)
    52b0:	44 00 48 00 	l.jr r9
    52b4:	9c 21 00 08 	l.addi r1,r1,0x8

000052b8 <_printf>:
    52b8:	9c 21 ff f8 	l.addi r1,r1,0xfffffff8
    52bc:	d4 01 10 04 	l.sw 0x4(r1),r2
    52c0:	9c 41 00 08 	l.addi r2,r1,0x8
    52c4:	d4 01 48 00 	l.sw 0x0(r1),r9
    52c8:	18 60 00 01 	l.movhi r3,0x1
    52cc:	a8 63 2b f8 	l.ori r3,r3,0x2bf8
    52d0:	84 82 00 00 	l.lwz r4,0x0(r2)
    52d4:	9c a2 00 04 	l.addi r5,r2,0x4
    52d8:	84 63 00 00 	l.lwz r3,0x0(r3)
    52dc:	04 00 08 61 	l.jal 7460 <_vfprintf>
    52e0:	84 63 00 08 	l.lwz r3,0x8(r3)
    52e4:	85 21 00 00 	l.lwz r9,0x0(r1)
    52e8:	84 41 00 04 	l.lwz r2,0x4(r1)
    52ec:	44 00 48 00 	l.jr r9
    52f0:	9c 21 00 08 	l.addi r1,r1,0x8

000052f4 <_clock>:
    52f4:	9c 21 ff e8 	l.addi r1,r1,0xffffffe8
    52f8:	d4 01 10 04 	l.sw 0x4(r1),r2
    52fc:	9c 41 00 18 	l.addi r2,r1,0x18
    5300:	d4 01 48 00 	l.sw 0x0(r1),r9
    5304:	18 60 00 01 	l.movhi r3,0x1
    5308:	a8 63 2b f8 	l.ori r3,r3,0x2bf8
    530c:	9c 82 ff f0 	l.addi r4,r2,0xfffffff0
    5310:	04 00 0e 22 	l.jal 8b98 <__times_r>
    5314:	84 63 00 00 	l.lwz r3,0x0(r3)
    5318:	bc 0b ff ff 	l.sfeqi r11,0xffffffff
    531c:	10 00 00 08 	l.bf 533c <_clock+0x48>
    5320:	84 62 ff f0 	l.lwz r3,0xfffffff0(r2)
    5324:	84 82 ff f4 	l.lwz r4,0xfffffff4(r2)
    5328:	e0 83 20 00 	l.add r4,r3,r4
    532c:	84 62 ff f8 	l.lwz r3,0xfffffff8(r2)
    5330:	e1 64 18 00 	l.add r11,r4,r3
    5334:	84 62 ff fc 	l.lwz r3,0xfffffffc(r2)
    5338:	e1 6b 18 00 	l.add r11,r11,r3
    533c:	85 21 00 00 	l.lwz r9,0x0(r1)
    5340:	84 41 00 04 	l.lwz r2,0x4(r1)
    5344:	44 00 48 00 	l.jr r9
    5348:	9c 21 00 18 	l.addi r1,r1,0x18

0000534c <_memcpy>:
    534c:	9c 21 ff fc 	l.addi r1,r1,0xfffffffc
    5350:	d4 01 10 00 	l.sw 0x0(r1),r2
    5354:	9c 41 00 04 	l.addi r2,r1,0x4
    5358:	bc a5 00 0f 	l.sfleui r5,0xf
    535c:	10 00 00 07 	l.bf 5378 <_memcpy+0x2c>
    5360:	a8 e3 00 00 	l.ori r7,r3,0x0
    5364:	e0 c4 18 04 	l.or r6,r4,r3
    5368:	a4 c6 00 03 	l.andi r6,r6,0x3
    536c:	bc 26 00 00 	l.sfnei r6,0x0
    5370:	0c 00 00 0e 	l.bnf 53a8 <_memcpy+0x5c>
    5374:	a8 c3 00 00 	l.ori r6,r3,0x0
    5378:	00 00 00 07 	l.j 5394 <_memcpy+0x48>
    537c:	9c a5 ff ff 	l.addi r5,r5,0xffffffff
    5380:	8c c4 00 00 	l.lbz r6,0x0(r4)
    5384:	9c a5 ff ff 	l.addi r5,r5,0xffffffff
    5388:	d8 07 30 00 	l.sb 0x0(r7),r6
    538c:	9c 84 00 01 	l.addi r4,r4,0x1
    5390:	9c e7 00 01 	l.addi r7,r7,0x1
    5394:	bc 05 ff ff 	l.sfeqi r5,0xffffffff
    5398:	0f ff ff fa 	l.bnf 5380 <_memcpy+0x34>
    539c:	a9 63 00 00 	l.ori r11,r3,0x0
    53a0:	00 00 00 21 	l.j 5424 <_memcpy+0xd8>
    53a4:	15 00 00 00 	l.nop 0x0
    53a8:	84 e4 00 00 	l.lwz r7,0x0(r4)
    53ac:	9c a5 ff f0 	l.addi r5,r5,0xfffffff0
    53b0:	d4 06 38 00 	l.sw 0x0(r6),r7
    53b4:	9c 84 00 04 	l.addi r4,r4,0x4
    53b8:	9c c6 00 04 	l.addi r6,r6,0x4
    53bc:	84 e4 00 00 	l.lwz r7,0x0(r4)
    53c0:	bc a5 00 0f 	l.sfleui r5,0xf
    53c4:	d4 06 38 00 	l.sw 0x0(r6),r7
    53c8:	9c 84 00 04 	l.addi r4,r4,0x4
    53cc:	9c c6 00 04 	l.addi r6,r6,0x4
    53d0:	84 e4 00 00 	l.lwz r7,0x0(r4)
    53d4:	9c 84 00 04 	l.addi r4,r4,0x4
    53d8:	d4 06 38 00 	l.sw 0x0(r6),r7
    53dc:	84 e4 00 00 	l.lwz r7,0x0(r4)
    53e0:	9c c6 00 04 	l.addi r6,r6,0x4
    53e4:	d4 06 38 00 	l.sw 0x0(r6),r7
    53e8:	9c 84 00 04 	l.addi r4,r4,0x4
    53ec:	0f ff ff ef 	l.bnf 53a8 <_memcpy+0x5c>
    53f0:	9c c6 00 04 	l.addi r6,r6,0x4
    53f4:	bc a5 00 03 	l.sfleui r5,0x3
    53f8:	13 ff ff e0 	l.bf 5378 <_memcpy+0x2c>
    53fc:	a8 e6 00 00 	l.ori r7,r6,0x0
    5400:	84 e4 00 00 	l.lwz r7,0x0(r4)
    5404:	9c a5 ff fc 	l.addi r5,r5,0xfffffffc
    5408:	d4 06 38 00 	l.sw 0x0(r6),r7
    540c:	9c 84 00 04 	l.addi r4,r4,0x4
    5410:	bc a5 00 03 	l.sfleui r5,0x3
    5414:	0f ff ff fb 	l.bnf 5400 <_memcpy+0xb4>
    5418:	9c c6 00 04 	l.addi r6,r6,0x4
    541c:	03 ff ff d7 	l.j 5378 <_memcpy+0x2c>
    5420:	a8 e6 00 00 	l.ori r7,r6,0x0
    5424:	84 41 00 00 	l.lwz r2,0x0(r1)
    5428:	44 00 48 00 	l.jr r9
    542c:	9c 21 00 04 	l.addi r1,r1,0x4

00005430 <_fgets>:
    5430:	9c 21 ff e0 	l.addi r1,r1,0xffffffe0
    5434:	d4 01 10 04 	l.sw 0x4(r1),r2
    5438:	9c 41 00 20 	l.addi r2,r1,0x20
    543c:	d4 01 48 00 	l.sw 0x0(r1),r9
    5440:	d4 01 50 08 	l.sw 0x8(r1),r10
    5444:	d4 01 60 0c 	l.sw 0xc(r1),r12
    5448:	d4 01 70 10 	l.sw 0x10(r1),r14
    544c:	d4 01 80 14 	l.sw 0x14(r1),r16
    5450:	d4 01 90 18 	l.sw 0x18(r1),r18
    5454:	d4 01 a0 1c 	l.sw 0x1c(r1),r20
    5458:	aa 83 00 00 	l.ori r20,r3,0x0
    545c:	bd 44 00 01 	l.sfgtsi r4,0x1
    5460:	0c 00 00 3e 	l.bnf 5558 <_fgets+0x128>
    5464:	a9 85 00 00 	l.ori r12,r5,0x0
    5468:	9d c4 ff ff 	l.addi r14,r4,0xffffffff
    546c:	00 00 00 1b 	l.j 54d8 <_fgets+0xa8>
    5470:	aa 43 00 00 	l.ori r18,r3,0x0
    5474:	86 0c 00 00 	l.lwz r16,0x0(r12)
    5478:	9c 80 00 0a 	l.addi r4,r0,0xa
    547c:	e4 6e 50 00 	l.sfgeu r14,r10
    5480:	10 00 00 03 	l.bf 548c <_fgets+0x5c>
    5484:	a8 70 00 00 	l.ori r3,r16,0x0
    5488:	a9 4e 00 00 	l.ori r10,r14,0x0
    548c:	a8 aa 00 00 	l.ori r5,r10,0x0
    5490:	04 00 0d e8 	l.jal 8c30 <_memchr>
    5494:	e1 ce 50 02 	l.sub r14,r14,r10
    5498:	a8 90 00 00 	l.ori r4,r16,0x0
    549c:	a8 72 00 00 	l.ori r3,r18,0x0
    54a0:	bc 0b 00 00 	l.sfeqi r11,0x0
    54a4:	0c 00 00 1e 	l.bnf 551c <_fgets+0xec>
    54a8:	a8 aa 00 00 	l.ori r5,r10,0x0
    54ac:	84 cc 00 04 	l.lwz r6,0x4(r12)
    54b0:	e2 52 50 00 	l.add r18,r18,r10
    54b4:	84 ec 00 00 	l.lwz r7,0x0(r12)
    54b8:	e0 c6 50 02 	l.sub r6,r6,r10
    54bc:	e0 e7 50 00 	l.add r7,r7,r10
    54c0:	d4 0c 30 04 	l.sw 0x4(r12),r6
    54c4:	07 ff ff a2 	l.jal 534c <_memcpy>
    54c8:	d4 0c 38 00 	l.sw 0x0(r12),r7
    54cc:	bc 0e 00 00 	l.sfeqi r14,0x0
    54d0:	10 00 00 0f 	l.bf 550c <_fgets+0xdc>
    54d4:	15 00 00 00 	l.nop 0x0
    54d8:	85 4c 00 04 	l.lwz r10,0x4(r12)
    54dc:	bc 2a 00 00 	l.sfnei r10,0x0
    54e0:	13 ff ff e5 	l.bf 5474 <_fgets+0x44>
    54e4:	a8 6c 00 00 	l.ori r3,r12,0x0
    54e8:	04 00 0e 22 	l.jal 8d70 <___srefill>
    54ec:	15 00 00 00 	l.nop 0x0
    54f0:	bc 0b 00 00 	l.sfeqi r11,0x0
    54f4:	0c 00 00 04 	l.bnf 5504 <_fgets+0xd4>
    54f8:	e4 32 a0 00 	l.sfne r18,r20
    54fc:	03 ff ff de 	l.j 5474 <_fgets+0x44>
    5500:	85 4c 00 04 	l.lwz r10,0x4(r12)
    5504:	0c 00 00 15 	l.bnf 5558 <_fgets+0x128>
    5508:	15 00 00 00 	l.nop 0x0
    550c:	9c 60 00 00 	l.addi r3,r0,0x0
    5510:	d8 12 18 00 	l.sb 0x0(r18),r3
    5514:	00 00 00 12 	l.j 555c <_fgets+0x12c>
    5518:	a8 74 00 00 	l.ori r3,r20,0x0
    551c:	9d 6b 00 01 	l.addi r11,r11,0x1
    5520:	84 6c 00 04 	l.lwz r3,0x4(r12)
    5524:	e1 4b 80 02 	l.sub r10,r11,r16
    5528:	a8 90 00 00 	l.ori r4,r16,0x0
    552c:	e0 63 50 02 	l.sub r3,r3,r10
    5530:	a8 aa 00 00 	l.ori r5,r10,0x0
    5534:	d4 0c 18 04 	l.sw 0x4(r12),r3
    5538:	d4 0c 58 00 	l.sw 0x0(r12),r11
    553c:	07 ff ff 84 	l.jal 534c <_memcpy>
    5540:	a8 72 00 00 	l.ori r3,r18,0x0
    5544:	e0 b2 50 00 	l.add r5,r18,r10
    5548:	9c 80 00 00 	l.addi r4,r0,0x0
    554c:	a8 74 00 00 	l.ori r3,r20,0x0
    5550:	00 00 00 03 	l.j 555c <_fgets+0x12c>
    5554:	d8 05 20 00 	l.sb 0x0(r5),r4
    5558:	9c 60 00 00 	l.addi r3,r0,0x0
    555c:	a9 63 00 00 	l.ori r11,r3,0x0
    5560:	85 21 00 00 	l.lwz r9,0x0(r1)
    5564:	84 41 00 04 	l.lwz r2,0x4(r1)
    5568:	85 41 00 08 	l.lwz r10,0x8(r1)
    556c:	85 81 00 0c 	l.lwz r12,0xc(r1)
    5570:	85 c1 00 10 	l.lwz r14,0x10(r1)
    5574:	86 01 00 14 	l.lwz r16,0x14(r1)
    5578:	86 41 00 18 	l.lwz r18,0x18(r1)
    557c:	86 81 00 1c 	l.lwz r20,0x1c(r1)
    5580:	44 00 48 00 	l.jr r9
    5584:	9c 21 00 20 	l.addi r1,r1,0x20

00005588 <_strstr>:
    5588:	9c 21 ff fc 	l.addi r1,r1,0xfffffffc
    558c:	d4 01 10 00 	l.sw 0x0(r1),r2
    5590:	9c 41 00 04 	l.addi r2,r1,0x4
    5594:	90 a3 00 00 	l.lbs r5,0x0(r3)
    5598:	bc 25 00 00 	l.sfnei r5,0x0
    559c:	10 00 00 0b 	l.bf 55c8 <_strstr+0x40>
    55a0:	bc 05 00 00 	l.sfeqi r5,0x0
    55a4:	90 84 00 00 	l.lbs r4,0x0(r4)
    55a8:	bc 04 00 00 	l.sfeqi r4,0x0
    55ac:	10 00 00 18 	l.bf 560c <_strstr+0x84>
    55b0:	a9 63 00 00 	l.ori r11,r3,0x0
    55b4:	00 00 00 15 	l.j 5608 <_strstr+0x80>
    55b8:	9c 60 00 00 	l.addi r3,r0,0x0
    55bc:	9c 63 00 01 	l.addi r3,r3,0x1
    55c0:	90 a3 00 00 	l.lbs r5,0x0(r3)
    55c4:	bc 05 00 00 	l.sfeqi r5,0x0
    55c8:	10 00 00 0f 	l.bf 5604 <_strstr+0x7c>
    55cc:	9c e0 00 00 	l.addi r7,r0,0x0
    55d0:	00 00 00 06 	l.j 55e8 <_strstr+0x60>
    55d4:	e0 a4 38 00 	l.add r5,r4,r7
    55d8:	90 a8 00 00 	l.lbs r5,0x0(r8)
    55dc:	e4 06 28 00 	l.sfeq r6,r5
    55e0:	0f ff ff f7 	l.bnf 55bc <_strstr+0x34>
    55e4:	e0 a4 38 00 	l.add r5,r4,r7
    55e8:	e1 03 38 00 	l.add r8,r3,r7
    55ec:	90 c5 00 00 	l.lbs r6,0x0(r5)
    55f0:	bc 26 00 00 	l.sfnei r6,0x0
    55f4:	13 ff ff f9 	l.bf 55d8 <_strstr+0x50>
    55f8:	9c e7 00 01 	l.addi r7,r7,0x1
    55fc:	00 00 00 04 	l.j 560c <_strstr+0x84>
    5600:	a9 63 00 00 	l.ori r11,r3,0x0
    5604:	9c 60 00 00 	l.addi r3,r0,0x0
    5608:	a9 63 00 00 	l.ori r11,r3,0x0
    560c:	84 41 00 00 	l.lwz r2,0x0(r1)
    5610:	44 00 48 00 	l.jr r9
    5614:	9c 21 00 04 	l.addi r1,r1,0x4

00005618 <_strtok>:
    5618:	9c 21 ff f8 	l.addi r1,r1,0xfffffff8
    561c:	d4 01 10 04 	l.sw 0x4(r1),r2
    5620:	9c 41 00 08 	l.addi r2,r1,0x8
    5624:	d4 01 48 00 	l.sw 0x0(r1),r9
    5628:	18 a0 00 01 	l.movhi r5,0x1
    562c:	a8 a5 2b f8 	l.ori r5,r5,0x2bf8
    5630:	9c c0 00 01 	l.addi r6,r0,0x1
    5634:	84 a5 00 00 	l.lwz r5,0x0(r5)
    5638:	04 00 0e 5b 	l.jal 8fa4 <___strtok_r>
    563c:	9c a5 00 5c 	l.addi r5,r5,0x5c
    5640:	85 21 00 00 	l.lwz r9,0x0(r1)
    5644:	84 41 00 04 	l.lwz r2,0x4(r1)
    5648:	44 00 48 00 	l.jr r9
    564c:	9c 21 00 08 	l.addi r1,r1,0x8

00005650 <_strlen>:
    5650:	9c 21 ff fc 	l.addi r1,r1,0xfffffffc
    5654:	d4 01 10 00 	l.sw 0x0(r1),r2
    5658:	9c 41 00 04 	l.addi r2,r1,0x4
    565c:	a4 83 00 03 	l.andi r4,r3,0x3
    5660:	bc 24 00 00 	l.sfnei r4,0x0
    5664:	10 00 00 16 	l.bf 56bc <_strlen+0x6c>
    5668:	a8 c3 00 00 	l.ori r6,r3,0x0
    566c:	00 00 00 04 	l.j 567c <_strlen+0x2c>
    5670:	84 83 00 00 	l.lwz r4,0x0(r3)
    5674:	9c 63 00 04 	l.addi r3,r3,0x4
    5678:	84 83 00 00 	l.lwz r4,0x0(r3)
    567c:	18 e0 fe fe 	l.movhi r7,0xfefe
    5680:	a8 e7 fe ff 	l.ori r7,r7,0xfeff
    5684:	ac a4 ff ff 	l.xori r5,r4,0xffffffff
    5688:	e0 84 38 00 	l.add r4,r4,r7
    568c:	e0 84 28 03 	l.and r4,r4,r5
    5690:	18 a0 80 80 	l.movhi r5,0x8080
    5694:	a8 a5 80 80 	l.ori r5,r5,0x8080
    5698:	e0 84 28 03 	l.and r4,r4,r5
    569c:	bc 24 00 00 	l.sfnei r4,0x0
    56a0:	0f ff ff f5 	l.bnf 5674 <_strlen+0x24>
    56a4:	15 00 00 00 	l.nop 0x0
    56a8:	90 83 00 00 	l.lbs r4,0x0(r3)
    56ac:	bc 04 00 00 	l.sfeqi r4,0x0
    56b0:	10 00 00 07 	l.bf 56cc <_strlen+0x7c>
    56b4:	e1 63 30 02 	l.sub r11,r3,r6
    56b8:	9c 63 00 01 	l.addi r3,r3,0x1
    56bc:	90 83 00 00 	l.lbs r4,0x0(r3)
    56c0:	bc 04 00 00 	l.sfeqi r4,0x0
    56c4:	0f ff ff fd 	l.bnf 56b8 <_strlen+0x68>
    56c8:	e1 63 30 02 	l.sub r11,r3,r6
    56cc:	84 41 00 00 	l.lwz r2,0x0(r1)
    56d0:	44 00 48 00 	l.jr r9
    56d4:	9c 21 00 04 	l.addi r1,r1,0x4

000056d8 <_atoi>:
    56d8:	9c 21 ff f8 	l.addi r1,r1,0xfffffff8
    56dc:	d4 01 10 04 	l.sw 0x4(r1),r2
    56e0:	9c 41 00 08 	l.addi r2,r1,0x8
    56e4:	d4 01 48 00 	l.sw 0x0(r1),r9
    56e8:	9c 80 00 00 	l.addi r4,r0,0x0
    56ec:	04 00 0f 40 	l.jal 93ec <_strtol>
    56f0:	9c a0 00 0a 	l.addi r5,r0,0xa
    56f4:	85 21 00 00 	l.lwz r9,0x0(r1)
    56f8:	84 41 00 04 	l.lwz r2,0x4(r1)
    56fc:	44 00 48 00 	l.jr r9
    5700:	9c 21 00 08 	l.addi r1,r1,0x8

00005704 <__atoi_r>:
    5704:	9c 21 ff f8 	l.addi r1,r1,0xfffffff8
    5708:	d4 01 10 04 	l.sw 0x4(r1),r2
    570c:	9c 41 00 08 	l.addi r2,r1,0x8
    5710:	d4 01 48 00 	l.sw 0x0(r1),r9
    5714:	9c a0 00 00 	l.addi r5,r0,0x0
    5718:	04 00 0e 6d 	l.jal 90cc <__strtol_r>
    571c:	9c c0 00 0a 	l.addi r6,r0,0xa
    5720:	85 21 00 00 	l.lwz r9,0x0(r1)
    5724:	84 41 00 04 	l.lwz r2,0x4(r1)
    5728:	44 00 48 00 	l.jr r9
    572c:	9c 21 00 08 	l.addi r1,r1,0x8

00005730 <_exit>:
    5730:	9c 21 ff f4 	l.addi r1,r1,0xfffffff4
    5734:	d4 01 10 04 	l.sw 0x4(r1),r2
    5738:	9c 41 00 0c 	l.addi r2,r1,0xc
    573c:	d4 01 48 00 	l.sw 0x0(r1),r9
    5740:	d4 01 50 08 	l.sw 0x8(r1),r10
    5744:	a9 43 00 00 	l.ori r10,r3,0x0
    5748:	04 00 0f 3a 	l.jal 9430 <___call_exitprocs>
    574c:	9c 80 00 00 	l.addi r4,r0,0x0
    5750:	18 60 00 01 	l.movhi r3,0x1
    5754:	a8 63 23 00 	l.ori r3,r3,0x2300
    5758:	84 63 00 00 	l.lwz r3,0x0(r3)
    575c:	84 83 00 3c 	l.lwz r4,0x3c(r3)
    5760:	bc 04 00 00 	l.sfeqi r4,0x0
    5764:	0c 00 00 04 	l.bnf 5774 <_exit+0x44>
    5768:	15 00 00 00 	l.nop 0x0
    576c:	04 00 23 d4 	l.jal e6bc <__exit>
    5770:	a8 6a 00 00 	l.ori r3,r10,0x0
    5774:	48 00 20 00 	l.jalr r4
    5778:	15 00 00 00 	l.nop 0x0
    577c:	03 ff ff fc 	l.j 576c <_exit+0x3c>
    5780:	15 00 00 00 	l.nop 0x0
    5784:	85 21 00 00 	l.lwz r9,0x0(r1)
    5788:	84 41 00 04 	l.lwz r2,0x4(r1)
    578c:	85 41 00 08 	l.lwz r10,0x8(r1)
    5790:	44 00 48 00 	l.jr r9
    5794:	9c 21 00 0c 	l.addi r1,r1,0xc

00005798 <___sprint>:
    5798:	9c 21 ff f4 	l.addi r1,r1,0xfffffff4
    579c:	d4 01 10 04 	l.sw 0x4(r1),r2
    57a0:	9c 41 00 0c 	l.addi r2,r1,0xc
    57a4:	d4 01 48 00 	l.sw 0x0(r1),r9
    57a8:	d4 01 50 08 	l.sw 0x8(r1),r10
    57ac:	84 a4 00 08 	l.lwz r5,0x8(r4)
    57b0:	9d 60 00 00 	l.addi r11,r0,0x0
    57b4:	e4 25 58 00 	l.sfne r5,r11
    57b8:	10 00 00 04 	l.bf 57c8 <___sprint+0x30>
    57bc:	a9 44 00 00 	l.ori r10,r4,0x0
    57c0:	00 00 00 07 	l.j 57dc <___sprint+0x44>
    57c4:	d4 04 58 04 	l.sw 0x4(r4),r11
    57c8:	04 00 0a 54 	l.jal 8118 <___sfvwrite>
    57cc:	15 00 00 00 	l.nop 0x0
    57d0:	9c 60 00 00 	l.addi r3,r0,0x0
    57d4:	d4 0a 18 04 	l.sw 0x4(r10),r3
    57d8:	d4 0a 18 08 	l.sw 0x8(r10),r3
    57dc:	85 21 00 00 	l.lwz r9,0x0(r1)
    57e0:	84 41 00 04 	l.lwz r2,0x4(r1)
    57e4:	85 41 00 08 	l.lwz r10,0x8(r1)
    57e8:	44 00 48 00 	l.jr r9
    57ec:	9c 21 00 0c 	l.addi r1,r1,0xc

000057f0 <__vfprintf_r>:
    57f0:	9c 21 f9 30 	l.addi r1,r1,0xfffff930
    57f4:	d4 01 10 10 	l.sw 0x10(r1),r2
    57f8:	9c 41 06 d0 	l.addi r2,r1,0x6d0
    57fc:	d4 01 48 0c 	l.sw 0xc(r1),r9
    5800:	d4 01 50 14 	l.sw 0x14(r1),r10
    5804:	d4 01 60 18 	l.sw 0x18(r1),r12
    5808:	d4 01 70 1c 	l.sw 0x1c(r1),r14
    580c:	d4 01 80 20 	l.sw 0x20(r1),r16
    5810:	d4 01 90 24 	l.sw 0x24(r1),r18
    5814:	d4 01 a0 28 	l.sw 0x28(r1),r20
    5818:	d4 01 b0 2c 	l.sw 0x2c(r1),r22
    581c:	d4 01 c0 30 	l.sw 0x30(r1),r24
    5820:	d4 01 d0 34 	l.sw 0x34(r1),r26
    5824:	d4 01 e0 38 	l.sw 0x38(r1),r28
    5828:	d4 01 f0 3c 	l.sw 0x3c(r1),r30
    582c:	d7 e2 19 9c 	l.sw 0xfffff99c(r2),r3
    5830:	ab 84 00 00 	l.ori r28,r4,0x0
    5834:	9c 60 00 00 	l.addi r3,r0,0x0
    5838:	a9 45 00 00 	l.ori r10,r5,0x0
    583c:	ab c6 00 00 	l.ori r30,r6,0x0
    5840:	04 00 0f bc 	l.jal 9730 <_localeconv>
    5844:	d7 e2 19 84 	l.sw 0xfffff984(r2),r3
    5848:	18 60 00 01 	l.movhi r3,0x1
    584c:	a8 63 2b f8 	l.ori r3,r3,0x2bf8
    5850:	84 82 f9 84 	l.lwz r4,0xfffff984(r2)
    5854:	e0 a0 00 04 	l.or r5,r0,r0
    5858:	18 c0 00 00 	l.movhi r6,0x0
    585c:	a8 c6 00 00 	l.ori r6,r6,0x0
    5860:	d7 e2 29 88 	l.sw 0xfffff988(r2),r5
    5864:	d7 e2 31 8c 	l.sw 0xfffff98c(r2),r6
    5868:	85 6b 00 00 	l.lwz r11,0x0(r11)
    586c:	84 63 00 00 	l.lwz r3,0x0(r3)
    5870:	d7 e2 59 90 	l.sw 0xfffff990(r2),r11
    5874:	d7 e2 21 7c 	l.sw 0xfffff97c(r2),r4
    5878:	bc 03 00 00 	l.sfeqi r3,0x0
    587c:	10 00 00 06 	l.bf 5894 <__vfprintf_r+0xa4>
    5880:	d7 e2 21 78 	l.sw 0xfffff978(r2),r4
    5884:	84 83 00 38 	l.lwz r4,0x38(r3)
    5888:	bc 24 00 00 	l.sfnei r4,0x0
    588c:	0c 00 00 61 	l.bnf 5a10 <__vfprintf_r+0x220>
    5890:	15 00 00 00 	l.nop 0x0
    5894:	94 9c 00 0c 	l.lhz r4,0xc(r28)
    5898:	a4 64 ff ff 	l.andi r3,r4,0xffff
    589c:	b8 63 00 43 	l.srli r3,r3,0x3
    58a0:	ac 63 00 01 	l.xori r3,r3,0x1
    58a4:	a4 63 00 01 	l.andi r3,r3,0x1
    58a8:	bc 23 00 00 	l.sfnei r3,0x0
    58ac:	10 00 00 52 	l.bf 59f4 <__vfprintf_r+0x204>
    58b0:	15 00 00 00 	l.nop 0x0
    58b4:	84 7c 00 10 	l.lwz r3,0x10(r28)
    58b8:	bc 23 00 00 	l.sfnei r3,0x0
    58bc:	0c 00 00 4e 	l.bnf 59f4 <__vfprintf_r+0x204>
    58c0:	15 00 00 00 	l.nop 0x0
    58c4:	a4 64 00 1a 	l.andi r3,r4,0x1a
    58c8:	bc 23 00 0a 	l.sfnei r3,0xa
    58cc:	10 00 00 08 	l.bf 58ec <__vfprintf_r+0xfc>
    58d0:	9c 60 00 00 	l.addi r3,r0,0x0
    58d4:	94 bc 00 0e 	l.lhz r5,0xe(r28)
    58d8:	b8 65 00 10 	l.slli r3,r5,0x10
    58dc:	b8 63 00 90 	l.srai r3,r3,0x10
    58e0:	bd 83 00 00 	l.sfltsi r3,0x0
    58e4:	0c 00 00 59 	l.bnf 5a48 <__vfprintf_r+0x258>
    58e8:	9c 60 00 00 	l.addi r3,r0,0x0
    58ec:	9d 02 ff a8 	l.addi r8,r2,0xffffffa8
    58f0:	a9 ca 00 00 	l.ori r14,r10,0x0
    58f4:	d7 e2 47 e8 	l.sw 0xffffffe8(r2),r8
    58f8:	d7 e2 1f f0 	l.sw 0xfffffff0(r2),r3
    58fc:	d7 e2 1f ec 	l.sw 0xffffffec(r2),r3
    5900:	aa 08 00 00 	l.ori r16,r8,0x0
    5904:	d7 e2 19 98 	l.sw 0xfffff998(r2),r3
    5908:	aa 4e 00 00 	l.ori r18,r14,0x0
    590c:	8c 8e 00 00 	l.lbz r4,0x0(r14)
    5910:	9c a0 00 00 	l.addi r5,r0,0x0
    5914:	b8 64 00 18 	l.slli r3,r4,0x18
    5918:	b8 63 00 98 	l.srai r3,r3,0x18
    591c:	e4 03 28 00 	l.sfeq r3,r5
    5920:	10 00 00 03 	l.bf 592c <__vfprintf_r+0x13c>
    5924:	bc 03 00 25 	l.sfeqi r3,0x25
    5928:	9c a0 00 01 	l.addi r5,r0,0x1
    592c:	10 00 00 03 	l.bf 5938 <__vfprintf_r+0x148>
    5930:	9c 60 00 00 	l.addi r3,r0,0x0
    5934:	9c 60 00 01 	l.addi r3,r0,0x1
    5938:	e0 65 18 03 	l.and r3,r5,r3
    593c:	bc 03 00 00 	l.sfeqi r3,0x0
    5940:	0f ff ff f3 	l.bnf 590c <__vfprintf_r+0x11c>
    5944:	9d ce 00 01 	l.addi r14,r14,0x1
    5948:	9d ce ff ff 	l.addi r14,r14,0xffffffff
    594c:	e1 8e 90 02 	l.sub r12,r14,r18
    5950:	bc 0c 00 00 	l.sfeqi r12,0x0
    5954:	10 00 00 10 	l.bf 5994 <__vfprintf_r+0x1a4>
    5958:	84 62 ff f0 	l.lwz r3,0xfffffff0(r2)
    595c:	e0 83 60 00 	l.add r4,r3,r12
    5960:	d4 10 90 00 	l.sw 0x0(r16),r18
    5964:	84 62 ff ec 	l.lwz r3,0xffffffec(r2)
    5968:	d4 10 60 04 	l.sw 0x4(r16),r12
    596c:	9c 63 00 01 	l.addi r3,r3,0x1
    5970:	d7 e2 27 f0 	l.sw 0xfffffff0(r2),r4
    5974:	9e 10 00 08 	l.addi r16,r16,0x8
    5978:	bd a3 00 07 	l.sflesi r3,0x7
    597c:	0c 00 00 29 	l.bnf 5a20 <__vfprintf_r+0x230>
    5980:	d7 e2 1f ec 	l.sw 0xffffffec(r2),r3
    5984:	84 a2 f9 98 	l.lwz r5,0xfffff998(r2)
    5988:	8c 8e 00 00 	l.lbz r4,0x0(r14)
    598c:	e0 a5 60 00 	l.add r5,r5,r12
    5990:	d7 e2 29 98 	l.sw 0xfffff998(r2),r5
    5994:	b8 64 00 18 	l.slli r3,r4,0x18
    5998:	b8 63 00 98 	l.srai r3,r3,0x18
    599c:	bc 23 00 00 	l.sfnei r3,0x0
    59a0:	0c 00 06 77 	l.bnf 737c <__vfprintf_r+0x1b8c>
    59a4:	9f 40 00 00 	l.addi r26,r0,0x0
    59a8:	9d ce 00 01 	l.addi r14,r14,0x1
    59ac:	d7 e2 d1 94 	l.sw 0xfffff994(r2),r26
    59b0:	9f 00 ff ff 	l.addi r24,r0,0xffffffff
    59b4:	8c 8e 00 00 	l.lbz r4,0x0(r14)
    59b8:	d7 e2 d1 80 	l.sw 0xfffff980(r2),r26
    59bc:	db e2 d7 ff 	l.sb 0xffffffff(r2),r26
    59c0:	ba c4 00 18 	l.slli r22,r4,0x18
    59c4:	ba d6 00 98 	l.srai r22,r22,0x18
    59c8:	9d ce 00 01 	l.addi r14,r14,0x1
    59cc:	9c 76 ff e0 	l.addi r3,r22,0xffffffe0
    59d0:	bc 43 00 58 	l.sfgtui r3,0x58
    59d4:	10 00 01 c2 	l.bf 60dc <__vfprintf_r+0x8ec>
    59d8:	b8 63 00 02 	l.slli r3,r3,0x2
    59dc:	18 c0 00 01 	l.movhi r6,0x1
    59e0:	a8 c6 21 4c 	l.ori r6,r6,0x214c
    59e4:	e0 63 30 00 	l.add r3,r3,r6
    59e8:	84 63 00 00 	l.lwz r3,0x0(r3)
    59ec:	44 00 18 00 	l.jr r3
    59f0:	15 00 00 00 	l.nop 0x0
    59f4:	04 00 0f 5b 	l.jal 9760 <___swsetup>
    59f8:	a8 7c 00 00 	l.ori r3,r28,0x0
    59fc:	bc 0b 00 00 	l.sfeqi r11,0x0
    5a00:	0c 00 06 89 	l.bnf 7424 <__vfprintf_r+0x1c34>
    5a04:	9d 60 ff ff 	l.addi r11,r0,0xffffffff
    5a08:	03 ff ff af 	l.j 58c4 <__vfprintf_r+0xd4>
    5a0c:	94 9c 00 0c 	l.lhz r4,0xc(r28)
    5a10:	04 00 07 16 	l.jal 7668 <___sinit>
    5a14:	15 00 00 00 	l.nop 0x0
    5a18:	03 ff ff a0 	l.j 5898 <__vfprintf_r+0xa8>
    5a1c:	94 9c 00 0c 	l.lhz r4,0xc(r28)
    5a20:	a8 7c 00 00 	l.ori r3,r28,0x0
    5a24:	07 ff ff 5d 	l.jal 5798 <___sprint>
    5a28:	9c 82 ff e8 	l.addi r4,r2,0xffffffe8
    5a2c:	bc 0b 00 00 	l.sfeqi r11,0x0
    5a30:	0c 00 03 1a 	l.bnf 6698 <__vfprintf_r+0xea8>
    5a34:	9e 02 ff a8 	l.addi r16,r2,0xffffffa8
    5a38:	03 ff ff d4 	l.j 5988 <__vfprintf_r+0x198>
    5a3c:	84 a2 f9 98 	l.lwz r5,0xfffff998(r2)
    5a40:	00 00 06 79 	l.j 7424 <__vfprintf_r+0x1c34>
    5a44:	9d 60 ff ff 	l.addi r11,r0,0xffffffff
    5a48:	9c c0 ff fd 	l.addi r6,r0,0xfffffffd
    5a4c:	df e2 2d fa 	l.sh 0xfffffdfa(r2),r5
    5a50:	e0 64 30 03 	l.and r3,r4,r6
    5a54:	9c a0 04 00 	l.addi r5,r0,0x400
    5a58:	df e2 1d f8 	l.sh 0xfffffdf8(r2),r3
    5a5c:	9c 82 f9 ec 	l.addi r4,r2,0xfffff9ec
    5a60:	9c c0 00 00 	l.addi r6,r0,0x0
    5a64:	84 7c 00 24 	l.lwz r3,0x24(r28)
    5a68:	9d 82 fd ec 	l.addi r12,r2,0xfffffdec
    5a6c:	85 1c 00 1c 	l.lwz r8,0x1c(r28)
    5a70:	d7 e2 1e 10 	l.sw 0xfffffe10(r2),r3
    5a74:	d7 e2 2d f4 	l.sw 0xfffffdf4(r2),r5
    5a78:	d7 e2 2e 00 	l.sw 0xfffffe00(r2),r5
    5a7c:	d7 e2 25 fc 	l.sw 0xfffffdfc(r2),r4
    5a80:	d7 e2 25 ec 	l.sw 0xfffffdec(r2),r4
    5a84:	d7 e2 36 04 	l.sw 0xfffffe04(r2),r6
    5a88:	84 62 f9 9c 	l.lwz r3,0xfffff99c(r2)
    5a8c:	a8 aa 00 00 	l.ori r5,r10,0x0
    5a90:	a8 de 00 00 	l.ori r6,r30,0x0
    5a94:	d7 e2 46 08 	l.sw 0xfffffe08(r2),r8
    5a98:	07 ff ff 56 	l.jal 57f0 <__vfprintf_r>
    5a9c:	a8 8c 00 00 	l.ori r4,r12,0x0
    5aa0:	bd 8b 00 00 	l.sfltsi r11,0x0
    5aa4:	0c 00 06 0b 	l.bnf 72d0 <__vfprintf_r+0x1ae0>
    5aa8:	a9 4b 00 00 	l.ori r10,r11,0x0
    5aac:	94 62 fd f8 	l.lhz r3,0xfffffdf8(r2)
    5ab0:	b8 63 00 46 	l.srli r3,r3,0x6
    5ab4:	a4 63 00 01 	l.andi r3,r3,0x1
    5ab8:	bc 03 00 00 	l.sfeqi r3,0x0
    5abc:	10 00 00 05 	l.bf 5ad0 <__vfprintf_r+0x2e0>
    5ac0:	15 00 00 00 	l.nop 0x0
    5ac4:	94 7c 00 0c 	l.lhz r3,0xc(r28)
    5ac8:	a8 63 00 40 	l.ori r3,r3,0x40
    5acc:	dc 1c 18 0c 	l.sh 0xc(r28),r3
    5ad0:	00 00 06 55 	l.j 7424 <__vfprintf_r+0x1c34>
    5ad4:	a9 6a 00 00 	l.ori r11,r10,0x0
    5ad8:	ab 5a 00 10 	l.ori r26,r26,0x10
    5adc:	b8 7a 00 44 	l.srli r3,r26,0x4
    5ae0:	a4 63 00 01 	l.andi r3,r3,0x1
    5ae4:	bc 03 00 00 	l.sfeqi r3,0x0
    5ae8:	0c 00 03 9c 	l.bnf 6958 <__vfprintf_r+0x1168>
    5aec:	b8 7a 00 46 	l.srli r3,r26,0x6
    5af0:	a4 63 00 01 	l.andi r3,r3,0x1
    5af4:	bc 03 00 00 	l.sfeqi r3,0x0
    5af8:	10 00 03 98 	l.bf 6958 <__vfprintf_r+0x1168>
    5afc:	15 00 00 00 	l.nop 0x0
    5b00:	95 5e 00 02 	l.lhz r10,0x2(r30)
    5b04:	9f de 00 04 	l.addi r30,r30,0x4
    5b08:	9c a0 00 01 	l.addi r5,r0,0x1
    5b0c:	9c 60 00 00 	l.addi r3,r0,0x0
    5b10:	db e2 1f ff 	l.sb 0xffffffff(r2),r3
    5b14:	bd 98 00 00 	l.sfltsi r24,0x0
    5b18:	10 00 00 04 	l.bf 5b28 <__vfprintf_r+0x338>
    5b1c:	d7 e2 c1 80 	l.sw 0xfffff980(r2),r24
    5b20:	9c 80 ff 7f 	l.addi r4,r0,0xffffff7f
    5b24:	e3 5a 20 03 	l.and r26,r26,r4
    5b28:	9c 80 00 00 	l.addi r4,r0,0x0
    5b2c:	e4 0a 20 00 	l.sfeq r10,r4
    5b30:	10 00 00 03 	l.bf 5b3c <__vfprintf_r+0x34c>
    5b34:	9e 42 ff a8 	l.addi r18,r2,0xffffffa8
    5b38:	9c 80 00 01 	l.addi r4,r0,0x1
    5b3c:	84 c2 f9 80 	l.lwz r6,0xfffff980(r2)
    5b40:	9c 60 00 00 	l.addi r3,r0,0x0
    5b44:	e4 06 18 00 	l.sfeq r6,r3
    5b48:	10 00 00 04 	l.bf 5b58 <__vfprintf_r+0x368>
    5b4c:	e0 64 18 04 	l.or r3,r4,r3
    5b50:	9c 60 00 01 	l.addi r3,r0,0x1
    5b54:	e0 64 18 04 	l.or r3,r4,r3
    5b58:	bc 03 00 00 	l.sfeqi r3,0x0
    5b5c:	10 00 02 c0 	l.bf 665c <__vfprintf_r+0xe6c>
    5b60:	bc 25 00 00 	l.sfnei r5,0x0
    5b64:	bc 05 00 01 	l.sfeqi r5,0x1
    5b68:	10 00 01 11 	l.bf 5fac <__vfprintf_r+0x7bc>
    5b6c:	bc aa 00 09 	l.sfleui r10,0x9
    5b70:	bd 45 00 01 	l.sfgtsi r5,0x1
    5b74:	10 00 03 a9 	l.bf 6a18 <__vfprintf_r+0x1228>
    5b78:	bc 05 00 02 	l.sfeqi r5,0x2
    5b7c:	bc 05 00 00 	l.sfeqi r5,0x0
    5b80:	10 00 01 1c 	l.bf 5ff0 <__vfprintf_r+0x800>
    5b84:	a4 6a 00 07 	l.andi r3,r10,0x7
    5b88:	1a 40 00 01 	l.movhi r18,0x1
    5b8c:	aa 52 22 b0 	l.ori r18,r18,0x22b0
    5b90:	07 ff fe b0 	l.jal 5650 <_strlen>
    5b94:	a8 72 00 00 	l.ori r3,r18,0x0
    5b98:	aa 8b 00 00 	l.ori r20,r11,0x0
    5b9c:	85 02 f9 80 	l.lwz r8,0xfffff980(r2)
    5ba0:	e5 74 40 00 	l.sfges r20,r8
    5ba4:	10 00 00 03 	l.bf 5bb0 <__vfprintf_r+0x3c0>
    5ba8:	ab 14 00 00 	l.ori r24,r20,0x0
    5bac:	ab 08 00 00 	l.ori r24,r8,0x0
    5bb0:	8c 82 ff ff 	l.lbz r4,0xffffffff(r2)
    5bb4:	b8 64 00 18 	l.slli r3,r4,0x18
    5bb8:	b8 63 00 98 	l.srai r3,r3,0x18
    5bbc:	bc 03 00 00 	l.sfeqi r3,0x0
    5bc0:	10 00 02 2b 	l.bf 646c <__vfprintf_r+0xc7c>
    5bc4:	b8 7a 00 41 	l.srli r3,r26,0x1
    5bc8:	9f 18 00 01 	l.addi r24,r24,0x1
    5bcc:	a5 9a 00 84 	l.andi r12,r26,0x84
    5bd0:	bc 2c 00 00 	l.sfnei r12,0x0
    5bd4:	10 00 00 27 	l.bf 5c70 <__vfprintf_r+0x480>
    5bd8:	84 62 f9 94 	l.lwz r3,0xfffff994(r2)
    5bdc:	e1 43 c0 02 	l.sub r10,r3,r24
    5be0:	bd aa 00 00 	l.sflesi r10,0x0
    5be4:	10 00 00 23 	l.bf 5c70 <__vfprintf_r+0x480>
    5be8:	bd aa 00 10 	l.sflesi r10,0x10
    5bec:	10 00 00 14 	l.bf 5c3c <__vfprintf_r+0x44c>
    5bf0:	84 62 ff f0 	l.lwz r3,0xfffffff0(r2)
    5bf4:	18 80 00 01 	l.movhi r4,0x1
    5bf8:	a8 84 21 24 	l.ori r4,r4,0x2124
    5bfc:	84 62 ff f0 	l.lwz r3,0xfffffff0(r2)
    5c00:	9c a0 00 10 	l.addi r5,r0,0x10
    5c04:	d4 10 20 00 	l.sw 0x0(r16),r4
    5c08:	d4 10 28 04 	l.sw 0x4(r16),r5
    5c0c:	e0 83 28 00 	l.add r4,r3,r5
    5c10:	9e 10 00 08 	l.addi r16,r16,0x8
    5c14:	84 62 ff ec 	l.lwz r3,0xffffffec(r2)
    5c18:	9c 63 00 01 	l.addi r3,r3,0x1
    5c1c:	d7 e2 27 f0 	l.sw 0xfffffff0(r2),r4
    5c20:	bd a3 00 07 	l.sflesi r3,0x7
    5c24:	0c 00 00 ea 	l.bnf 5fcc <__vfprintf_r+0x7dc>
    5c28:	d7 e2 1f ec 	l.sw 0xffffffec(r2),r3
    5c2c:	9d 4a ff f0 	l.addi r10,r10,0xfffffff0
    5c30:	bd aa 00 10 	l.sflesi r10,0x10
    5c34:	0f ff ff f0 	l.bnf 5bf4 <__vfprintf_r+0x404>
    5c38:	84 62 ff f0 	l.lwz r3,0xfffffff0(r2)
    5c3c:	18 c0 00 01 	l.movhi r6,0x1
    5c40:	a8 c6 21 24 	l.ori r6,r6,0x2124
    5c44:	e0 83 50 00 	l.add r4,r3,r10
    5c48:	d4 10 30 00 	l.sw 0x0(r16),r6
    5c4c:	84 62 ff ec 	l.lwz r3,0xffffffec(r2)
    5c50:	d4 10 50 04 	l.sw 0x4(r16),r10
    5c54:	9c 63 00 01 	l.addi r3,r3,0x1
    5c58:	d7 e2 27 f0 	l.sw 0xfffffff0(r2),r4
    5c5c:	9e 10 00 08 	l.addi r16,r16,0x8
    5c60:	bd a3 00 07 	l.sflesi r3,0x7
    5c64:	0c 00 03 7a 	l.bnf 6a4c <__vfprintf_r+0x125c>
    5c68:	d7 e2 1f ec 	l.sw 0xffffffec(r2),r3
    5c6c:	8c 82 ff ff 	l.lbz r4,0xffffffff(r2)
    5c70:	b8 64 00 18 	l.slli r3,r4,0x18
    5c74:	b8 63 00 98 	l.srai r3,r3,0x18
    5c78:	bc 03 00 00 	l.sfeqi r3,0x0
    5c7c:	10 00 02 02 	l.bf 6484 <__vfprintf_r+0xc94>
    5c80:	b8 7a 00 41 	l.srli r3,r26,0x1
    5c84:	84 62 ff f0 	l.lwz r3,0xfffffff0(r2)
    5c88:	9d 00 00 01 	l.addi r8,r0,0x1
    5c8c:	e0 83 40 00 	l.add r4,r3,r8
    5c90:	d4 10 40 04 	l.sw 0x4(r16),r8
    5c94:	9c 62 ff ff 	l.addi r3,r2,0xffffffff
    5c98:	d7 e2 27 f0 	l.sw 0xfffffff0(r2),r4
    5c9c:	d4 10 18 00 	l.sw 0x0(r16),r3
    5ca0:	84 62 ff ec 	l.lwz r3,0xffffffec(r2)
    5ca4:	9e 10 00 08 	l.addi r16,r16,0x8
    5ca8:	e0 63 40 00 	l.add r3,r3,r8
    5cac:	bd a3 00 07 	l.sflesi r3,0x7
    5cb0:	0c 00 02 09 	l.bnf 64d4 <__vfprintf_r+0xce4>
    5cb4:	d7 e2 1f ec 	l.sw 0xffffffec(r2),r3
    5cb8:	bc 2c 00 80 	l.sfnei r12,0x80
    5cbc:	10 00 00 2e 	l.bf 5d74 <__vfprintf_r+0x584>
    5cc0:	84 c2 f9 80 	l.lwz r6,0xfffff980(r2)
    5cc4:	85 02 f9 94 	l.lwz r8,0xfffff994(r2)
    5cc8:	e1 48 c0 02 	l.sub r10,r8,r24
    5ccc:	bd aa 00 00 	l.sflesi r10,0x0
    5cd0:	10 00 00 29 	l.bf 5d74 <__vfprintf_r+0x584>
    5cd4:	bd aa 00 10 	l.sflesi r10,0x10
    5cd8:	10 00 00 14 	l.bf 5d28 <__vfprintf_r+0x538>
    5cdc:	84 62 ff f0 	l.lwz r3,0xfffffff0(r2)
    5ce0:	18 60 00 01 	l.movhi r3,0x1
    5ce4:	a8 63 21 34 	l.ori r3,r3,0x2134
    5ce8:	9c 80 00 10 	l.addi r4,r0,0x10
    5cec:	d4 10 18 00 	l.sw 0x0(r16),r3
    5cf0:	d4 10 20 04 	l.sw 0x4(r16),r4
    5cf4:	84 62 ff f0 	l.lwz r3,0xfffffff0(r2)
    5cf8:	9e 10 00 08 	l.addi r16,r16,0x8
    5cfc:	e0 83 20 00 	l.add r4,r3,r4
    5d00:	84 62 ff ec 	l.lwz r3,0xffffffec(r2)
    5d04:	9c 63 00 01 	l.addi r3,r3,0x1
    5d08:	d7 e2 27 f0 	l.sw 0xfffffff0(r2),r4
    5d0c:	bd a3 00 07 	l.sflesi r3,0x7
    5d10:	0c 00 01 bf 	l.bnf 640c <__vfprintf_r+0xc1c>
    5d14:	d7 e2 1f ec 	l.sw 0xffffffec(r2),r3
    5d18:	9d 4a ff f0 	l.addi r10,r10,0xfffffff0
    5d1c:	bd aa 00 10 	l.sflesi r10,0x10
    5d20:	0f ff ff f0 	l.bnf 5ce0 <__vfprintf_r+0x4f0>
    5d24:	84 62 ff f0 	l.lwz r3,0xfffffff0(r2)
    5d28:	18 a0 00 01 	l.movhi r5,0x1
    5d2c:	a8 a5 21 34 	l.ori r5,r5,0x2134
    5d30:	e0 83 50 00 	l.add r4,r3,r10
    5d34:	d4 10 28 00 	l.sw 0x0(r16),r5
    5d38:	84 62 ff ec 	l.lwz r3,0xffffffec(r2)
    5d3c:	d4 10 50 04 	l.sw 0x4(r16),r10
    5d40:	9c 63 00 01 	l.addi r3,r3,0x1
    5d44:	d7 e2 27 f0 	l.sw 0xfffffff0(r2),r4
    5d48:	9e 10 00 08 	l.addi r16,r16,0x8
    5d4c:	bd a3 00 07 	l.sflesi r3,0x7
    5d50:	10 00 00 08 	l.bf 5d70 <__vfprintf_r+0x580>
    5d54:	d7 e2 1f ec 	l.sw 0xffffffec(r2),r3
    5d58:	a8 7c 00 00 	l.ori r3,r28,0x0
    5d5c:	07 ff fe 8f 	l.jal 5798 <___sprint>
    5d60:	9c 82 ff e8 	l.addi r4,r2,0xffffffe8
    5d64:	bc 0b 00 00 	l.sfeqi r11,0x0
    5d68:	0c 00 02 4c 	l.bnf 6698 <__vfprintf_r+0xea8>
    5d6c:	9e 02 ff a8 	l.addi r16,r2,0xffffffa8
    5d70:	84 c2 f9 80 	l.lwz r6,0xfffff980(r2)
    5d74:	e1 46 a0 02 	l.sub r10,r6,r20
    5d78:	bd aa 00 00 	l.sflesi r10,0x0
    5d7c:	10 00 00 2a 	l.bf 5e24 <__vfprintf_r+0x634>
    5d80:	b8 7a 00 48 	l.srli r3,r26,0x8
    5d84:	bd aa 00 10 	l.sflesi r10,0x10
    5d88:	10 00 00 13 	l.bf 5dd4 <__vfprintf_r+0x5e4>
    5d8c:	9c 60 00 10 	l.addi r3,r0,0x10
    5d90:	19 00 00 01 	l.movhi r8,0x1
    5d94:	a9 08 21 34 	l.ori r8,r8,0x2134
    5d98:	d4 10 18 04 	l.sw 0x4(r16),r3
    5d9c:	d4 10 40 00 	l.sw 0x0(r16),r8
    5da0:	84 62 ff f0 	l.lwz r3,0xfffffff0(r2)
    5da4:	9e 10 00 08 	l.addi r16,r16,0x8
    5da8:	9c 83 00 10 	l.addi r4,r3,0x10
    5dac:	84 62 ff ec 	l.lwz r3,0xffffffec(r2)
    5db0:	9c 63 00 01 	l.addi r3,r3,0x1
    5db4:	d7 e2 27 f0 	l.sw 0xfffffff0(r2),r4
    5db8:	bd a3 00 07 	l.sflesi r3,0x7
    5dbc:	0c 00 01 9c 	l.bnf 642c <__vfprintf_r+0xc3c>
    5dc0:	d7 e2 1f ec 	l.sw 0xffffffec(r2),r3
    5dc4:	9d 4a ff f0 	l.addi r10,r10,0xfffffff0
    5dc8:	bd aa 00 10 	l.sflesi r10,0x10
    5dcc:	0f ff ff f1 	l.bnf 5d90 <__vfprintf_r+0x5a0>
    5dd0:	9c 60 00 10 	l.addi r3,r0,0x10
    5dd4:	18 80 00 01 	l.movhi r4,0x1
    5dd8:	a8 84 21 34 	l.ori r4,r4,0x2134
    5ddc:	84 62 ff f0 	l.lwz r3,0xfffffff0(r2)
    5de0:	d4 10 20 00 	l.sw 0x0(r16),r4
    5de4:	d4 10 50 04 	l.sw 0x4(r16),r10
    5de8:	e0 83 50 00 	l.add r4,r3,r10
    5dec:	9e 10 00 08 	l.addi r16,r16,0x8
    5df0:	84 62 ff ec 	l.lwz r3,0xffffffec(r2)
    5df4:	9c 63 00 01 	l.addi r3,r3,0x1
    5df8:	d7 e2 27 f0 	l.sw 0xfffffff0(r2),r4
    5dfc:	bd a3 00 07 	l.sflesi r3,0x7
    5e00:	10 00 00 08 	l.bf 5e20 <__vfprintf_r+0x630>
    5e04:	d7 e2 1f ec 	l.sw 0xffffffec(r2),r3
    5e08:	a8 7c 00 00 	l.ori r3,r28,0x0
    5e0c:	07 ff fe 63 	l.jal 5798 <___sprint>
    5e10:	9c 82 ff e8 	l.addi r4,r2,0xffffffe8
    5e14:	bc 0b 00 00 	l.sfeqi r11,0x0
    5e18:	0c 00 02 20 	l.bnf 6698 <__vfprintf_r+0xea8>
    5e1c:	9e 02 ff a8 	l.addi r16,r2,0xffffffa8
    5e20:	b8 7a 00 48 	l.srli r3,r26,0x8
    5e24:	ac 63 00 01 	l.xori r3,r3,0x1
    5e28:	a4 63 00 01 	l.andi r3,r3,0x1
    5e2c:	bc 03 00 00 	l.sfeqi r3,0x0
    5e30:	10 00 01 b1 	l.bf 64f4 <__vfprintf_r+0xd04>
    5e34:	bd b6 00 65 	l.sflesi r22,0x65
    5e38:	84 62 ff f0 	l.lwz r3,0xfffffff0(r2)
    5e3c:	e0 83 a0 00 	l.add r4,r3,r20
    5e40:	d4 10 90 00 	l.sw 0x0(r16),r18
    5e44:	84 62 ff ec 	l.lwz r3,0xffffffec(r2)
    5e48:	d4 10 a0 04 	l.sw 0x4(r16),r20
    5e4c:	9c 63 00 01 	l.addi r3,r3,0x1
    5e50:	d7 e2 27 f0 	l.sw 0xfffffff0(r2),r4
    5e54:	9e 10 00 08 	l.addi r16,r16,0x8
    5e58:	d7 e2 1f ec 	l.sw 0xffffffec(r2),r3
    5e5c:	bd a3 00 07 	l.sflesi r3,0x7
    5e60:	0c 00 02 1a 	l.bnf 66c8 <__vfprintf_r+0xed8>
    5e64:	a8 7c 00 00 	l.ori r3,r28,0x0
    5e68:	b8 7a 00 42 	l.srli r3,r26,0x2
    5e6c:	a4 63 00 01 	l.andi r3,r3,0x1
    5e70:	bc 03 00 00 	l.sfeqi r3,0x0
    5e74:	10 00 00 2e 	l.bf 5f2c <__vfprintf_r+0x73c>
    5e78:	84 c2 f9 94 	l.lwz r6,0xfffff994(r2)
    5e7c:	85 02 f9 94 	l.lwz r8,0xfffff994(r2)
    5e80:	e1 48 c0 02 	l.sub r10,r8,r24
    5e84:	bd aa 00 00 	l.sflesi r10,0x0
    5e88:	10 00 00 2a 	l.bf 5f30 <__vfprintf_r+0x740>
    5e8c:	e5 78 30 00 	l.sfges r24,r6
    5e90:	bd aa 00 10 	l.sflesi r10,0x10
    5e94:	10 00 00 14 	l.bf 5ee4 <__vfprintf_r+0x6f4>
    5e98:	84 62 ff f0 	l.lwz r3,0xfffffff0(r2)
    5e9c:	18 60 00 01 	l.movhi r3,0x1
    5ea0:	a8 63 21 24 	l.ori r3,r3,0x2124
    5ea4:	9c 80 00 10 	l.addi r4,r0,0x10
    5ea8:	d4 10 18 00 	l.sw 0x0(r16),r3
    5eac:	d4 10 20 04 	l.sw 0x4(r16),r4
    5eb0:	84 62 ff f0 	l.lwz r3,0xfffffff0(r2)
    5eb4:	9e 10 00 08 	l.addi r16,r16,0x8
    5eb8:	e0 83 20 00 	l.add r4,r3,r4
    5ebc:	84 62 ff ec 	l.lwz r3,0xffffffec(r2)
    5ec0:	9c 63 00 01 	l.addi r3,r3,0x1
    5ec4:	d7 e2 27 f0 	l.sw 0xfffffff0(r2),r4
    5ec8:	bd a3 00 07 	l.sflesi r3,0x7
    5ecc:	0c 00 01 60 	l.bnf 644c <__vfprintf_r+0xc5c>
    5ed0:	d7 e2 1f ec 	l.sw 0xffffffec(r2),r3
    5ed4:	9d 4a ff f0 	l.addi r10,r10,0xfffffff0
    5ed8:	bd aa 00 10 	l.sflesi r10,0x10
    5edc:	0f ff ff f0 	l.bnf 5e9c <__vfprintf_r+0x6ac>
    5ee0:	84 62 ff f0 	l.lwz r3,0xfffffff0(r2)
    5ee4:	18 a0 00 01 	l.movhi r5,0x1
    5ee8:	a8 a5 21 24 	l.ori r5,r5,0x2124
    5eec:	e0 83 50 00 	l.add r4,r3,r10
    5ef0:	d4 10 28 00 	l.sw 0x0(r16),r5
    5ef4:	84 62 ff ec 	l.lwz r3,0xffffffec(r2)
    5ef8:	9c 63 00 01 	l.addi r3,r3,0x1
    5efc:	d4 10 50 04 	l.sw 0x4(r16),r10
    5f00:	d7 e2 27 f0 	l.sw 0xfffffff0(r2),r4
    5f04:	bd a3 00 07 	l.sflesi r3,0x7
    5f08:	10 00 00 08 	l.bf 5f28 <__vfprintf_r+0x738>
    5f0c:	d7 e2 1f ec 	l.sw 0xffffffec(r2),r3
    5f10:	a8 7c 00 00 	l.ori r3,r28,0x0
    5f14:	07 ff fe 21 	l.jal 5798 <___sprint>
    5f18:	9c 82 ff e8 	l.addi r4,r2,0xffffffe8
    5f1c:	bc 0b 00 00 	l.sfeqi r11,0x0
    5f20:	0c 00 01 df 	l.bnf 669c <__vfprintf_r+0xeac>
    5f24:	85 02 f9 78 	l.lwz r8,0xfffff978(r2)
    5f28:	84 c2 f9 94 	l.lwz r6,0xfffff994(r2)
    5f2c:	e5 78 30 00 	l.sfges r24,r6
    5f30:	10 00 00 03 	l.bf 5f3c <__vfprintf_r+0x74c>
    5f34:	a8 78 00 00 	l.ori r3,r24,0x0
    5f38:	a8 66 00 00 	l.ori r3,r6,0x0
    5f3c:	85 02 f9 98 	l.lwz r8,0xfffff998(r2)
    5f40:	e1 08 18 00 	l.add r8,r8,r3
    5f44:	84 62 ff f0 	l.lwz r3,0xfffffff0(r2)
    5f48:	bc 03 00 00 	l.sfeqi r3,0x0
    5f4c:	0c 00 01 cd 	l.bnf 6680 <__vfprintf_r+0xe90>
    5f50:	d7 e2 41 98 	l.sw 0xfffff998(r2),r8
    5f54:	84 82 f9 78 	l.lwz r4,0xfffff978(r2)
    5f58:	9c 60 00 00 	l.addi r3,r0,0x0
    5f5c:	9e 02 ff a8 	l.addi r16,r2,0xffffffa8
    5f60:	e4 04 18 00 	l.sfeq r4,r3
    5f64:	13 ff fe 69 	l.bf 5908 <__vfprintf_r+0x118>
    5f68:	d7 e2 1f ec 	l.sw 0xffffffec(r2),r3
    5f6c:	9c a0 00 00 	l.addi r5,r0,0x0
    5f70:	84 62 f9 9c 	l.lwz r3,0xfffff99c(r2)
    5f74:	04 00 09 f7 	l.jal 8750 <__free_r>
    5f78:	d7 e2 29 78 	l.sw 0xfffff978(r2),r5
    5f7c:	03 ff fe 64 	l.j 590c <__vfprintf_r+0x11c>
    5f80:	aa 4e 00 00 	l.ori r18,r14,0x0
    5f84:	9c 80 00 0a 	l.addi r4,r0,0xa
    5f88:	07 ff fb 80 	l.jal 4d88 <___umodsi3>
    5f8c:	9e 52 ff ff 	l.addi r18,r18,0xffffffff
    5f90:	9d 6b 00 30 	l.addi r11,r11,0x30
    5f94:	a8 6a 00 00 	l.ori r3,r10,0x0
    5f98:	d8 12 58 00 	l.sb 0x0(r18),r11
    5f9c:	07 ff fb 0c 	l.jal 4bcc <___udivsi3>
    5fa0:	9c 80 00 0a 	l.addi r4,r0,0xa
    5fa4:	a9 4b 00 00 	l.ori r10,r11,0x0
    5fa8:	bc aa 00 09 	l.sfleui r10,0x9
    5fac:	0f ff ff f6 	l.bnf 5f84 <__vfprintf_r+0x794>
    5fb0:	a8 6a 00 00 	l.ori r3,r10,0x0
    5fb4:	9e 52 ff ff 	l.addi r18,r18,0xffffffff
    5fb8:	9c 6a 00 30 	l.addi r3,r10,0x30
    5fbc:	d8 12 18 00 	l.sb 0x0(r18),r3
    5fc0:	e0 82 90 02 	l.sub r4,r2,r18
    5fc4:	03 ff fe f6 	l.j 5b9c <__vfprintf_r+0x3ac>
    5fc8:	9e 84 ff a8 	l.addi r20,r4,0xffffffa8
    5fcc:	a8 7c 00 00 	l.ori r3,r28,0x0
    5fd0:	07 ff fd f2 	l.jal 5798 <___sprint>
    5fd4:	9c 82 ff e8 	l.addi r4,r2,0xffffffe8
    5fd8:	bc 0b 00 00 	l.sfeqi r11,0x0
    5fdc:	0c 00 01 af 	l.bnf 6698 <__vfprintf_r+0xea8>
    5fe0:	9e 02 ff a8 	l.addi r16,r2,0xffffffa8
    5fe4:	03 ff ff 13 	l.j 5c30 <__vfprintf_r+0x440>
    5fe8:	9d 4a ff f0 	l.addi r10,r10,0xfffffff0
    5fec:	a4 6a 00 07 	l.andi r3,r10,0x7
    5ff0:	9e 52 ff ff 	l.addi r18,r18,0xffffffff
    5ff4:	b9 4a 00 43 	l.srli r10,r10,0x3
    5ff8:	9c 63 00 30 	l.addi r3,r3,0x30
    5ffc:	bc 0a 00 00 	l.sfeqi r10,0x0
    6000:	0f ff ff fb 	l.bnf 5fec <__vfprintf_r+0x7fc>
    6004:	d8 12 18 00 	l.sb 0x0(r18),r3
    6008:	a4 9a 00 01 	l.andi r4,r26,0x1
    600c:	bc 04 00 00 	l.sfeqi r4,0x0
    6010:	13 ff ff ed 	l.bf 5fc4 <__vfprintf_r+0x7d4>
    6014:	e0 82 90 02 	l.sub r4,r2,r18
    6018:	bc 03 00 30 	l.sfeqi r3,0x30
    601c:	13 ff ff ea 	l.bf 5fc4 <__vfprintf_r+0x7d4>
    6020:	9d 00 00 30 	l.addi r8,r0,0x30
    6024:	9e 52 ff ff 	l.addi r18,r18,0xffffffff
    6028:	03 ff ff e6 	l.j 5fc0 <__vfprintf_r+0x7d0>
    602c:	d8 12 40 00 	l.sb 0x0(r18),r8
    6030:	ab 5a 00 10 	l.ori r26,r26,0x10
    6034:	b8 7a 00 44 	l.srli r3,r26,0x4
    6038:	a4 63 00 01 	l.andi r3,r3,0x1
    603c:	bc 03 00 00 	l.sfeqi r3,0x0
    6040:	0c 00 02 48 	l.bnf 6960 <__vfprintf_r+0x1170>
    6044:	b8 7a 00 46 	l.srli r3,r26,0x6
    6048:	a4 63 00 01 	l.andi r3,r3,0x1
    604c:	bc 03 00 00 	l.sfeqi r3,0x0
    6050:	10 00 02 44 	l.bf 6960 <__vfprintf_r+0x1170>
    6054:	15 00 00 00 	l.nop 0x0
    6058:	99 5e 00 02 	l.lhs r10,0x2(r30)
    605c:	bd 6a 00 00 	l.sfgesi r10,0x0
    6060:	10 00 00 05 	l.bf 6074 <__vfprintf_r+0x884>
    6064:	9f de 00 04 	l.addi r30,r30,0x4
    6068:	9c a0 00 2d 	l.addi r5,r0,0x2d
    606c:	e1 40 50 02 	l.sub r10,r0,r10
    6070:	db e2 2f ff 	l.sb 0xffffffff(r2),r5
    6074:	03 ff fe a8 	l.j 5b14 <__vfprintf_r+0x324>
    6078:	9c a0 00 01 	l.addi r5,r0,0x1
    607c:	ab 5a 00 10 	l.ori r26,r26,0x10
    6080:	b8 7a 00 44 	l.srli r3,r26,0x4
    6084:	a4 63 00 01 	l.andi r3,r3,0x1
    6088:	bc 03 00 00 	l.sfeqi r3,0x0
    608c:	0c 00 02 37 	l.bnf 6968 <__vfprintf_r+0x1178>
    6090:	b8 7a 00 46 	l.srli r3,r26,0x6
    6094:	a4 63 00 01 	l.andi r3,r3,0x1
    6098:	bc 03 00 00 	l.sfeqi r3,0x0
    609c:	10 00 02 33 	l.bf 6968 <__vfprintf_r+0x1178>
    60a0:	15 00 00 00 	l.nop 0x0
    60a4:	95 5e 00 02 	l.lhz r10,0x2(r30)
    60a8:	9f de 00 04 	l.addi r30,r30,0x4
    60ac:	03 ff fe 98 	l.j 5b0c <__vfprintf_r+0x31c>
    60b0:	9c a0 00 00 	l.addi r5,r0,0x0
    60b4:	84 7e 00 00 	l.lwz r3,0x0(r30)
    60b8:	9f de 00 04 	l.addi r30,r30,0x4
    60bc:	bd 83 00 00 	l.sfltsi r3,0x0
    60c0:	0c 00 00 14 	l.bnf 6110 <__vfprintf_r+0x920>
    60c4:	d7 e2 19 94 	l.sw 0xfffff994(r2),r3
    60c8:	e0 60 18 02 	l.sub r3,r0,r3
    60cc:	d7 e2 19 94 	l.sw 0xfffff994(r2),r3
    60d0:	8c 8e 00 00 	l.lbz r4,0x0(r14)
    60d4:	03 ff fe 3b 	l.j 59c0 <__vfprintf_r+0x1d0>
    60d8:	ab 5a 00 04 	l.ori r26,r26,0x4
    60dc:	bc 36 00 00 	l.sfnei r22,0x0
    60e0:	0c 00 04 a7 	l.bnf 737c <__vfprintf_r+0x1b8c>
    60e4:	9e 42 fe 4c 	l.addi r18,r2,0xfffffe4c
    60e8:	9c c0 00 00 	l.addi r6,r0,0x0
    60ec:	d8 12 b0 00 	l.sb 0x0(r18),r22
    60f0:	9e 80 00 01 	l.addi r20,r0,0x1
    60f4:	03 ff fe aa 	l.j 5b9c <__vfprintf_r+0x3ac>
    60f8:	db e2 37 ff 	l.sb 0xffffffff(r2),r6
    60fc:	90 62 ff ff 	l.lbs r3,0xffffffff(r2)
    6100:	bc 23 00 00 	l.sfnei r3,0x0
    6104:	10 00 00 03 	l.bf 6110 <__vfprintf_r+0x920>
    6108:	9d 00 00 20 	l.addi r8,r0,0x20
    610c:	db e2 47 ff 	l.sb 0xffffffff(r2),r8
    6110:	03 ff fe 2c 	l.j 59c0 <__vfprintf_r+0x1d0>
    6114:	8c 8e 00 00 	l.lbz r4,0x0(r14)
    6118:	85 5e 00 00 	l.lwz r10,0x0(r30)
    611c:	18 c0 00 01 	l.movhi r6,0x1
    6120:	a8 c6 22 ca 	l.ori r6,r6,0x22ca
    6124:	ab 5a 00 02 	l.ori r26,r26,0x2
    6128:	9f de 00 04 	l.addi r30,r30,0x4
    612c:	9c a0 00 02 	l.addi r5,r0,0x2
    6130:	d7 e2 31 7c 	l.sw 0xfffff97c(r2),r6
    6134:	03 ff fe 76 	l.j 5b0c <__vfprintf_r+0x31c>
    6138:	9e c0 00 78 	l.addi r22,r0,0x78
    613c:	9d 00 00 00 	l.addi r8,r0,0x0
    6140:	a8 7e 00 00 	l.ori r3,r30,0x0
    6144:	db e2 47 ff 	l.sb 0xffffffff(r2),r8
    6148:	86 43 00 00 	l.lwz r18,0x0(r3)
    614c:	bc 32 00 00 	l.sfnei r18,0x0
    6150:	10 00 02 c7 	l.bf 6c6c <__vfprintf_r+0x147c>
    6154:	9f de 00 04 	l.addi r30,r30,0x4
    6158:	1a 40 00 01 	l.movhi r18,0x1
    615c:	aa 52 22 db 	l.ori r18,r18,0x22db
    6160:	03 ff fe 8f 	l.j 5b9c <__vfprintf_r+0x3ac>
    6164:	9e 80 00 06 	l.addi r20,r0,0x6
    6168:	8c 8e 00 00 	l.lbz r4,0x0(r14)
    616c:	03 ff fe 15 	l.j 59c0 <__vfprintf_r+0x1d0>
    6170:	ab 5a 00 10 	l.ori r26,r26,0x10
    6174:	8c 8e 00 00 	l.lbz r4,0x0(r14)
    6178:	03 ff fe 12 	l.j 59c0 <__vfprintf_r+0x1d0>
    617c:	ab 5a 00 40 	l.ori r26,r26,0x40
    6180:	b8 7a 00 44 	l.srli r3,r26,0x4
    6184:	a4 63 00 01 	l.andi r3,r3,0x1
    6188:	bc 03 00 00 	l.sfeqi r3,0x0
    618c:	10 00 03 07 	l.bf 6da8 <__vfprintf_r+0x15b8>
    6190:	b8 7a 00 46 	l.srli r3,r26,0x6
    6194:	84 7e 00 00 	l.lwz r3,0x0(r30)
    6198:	85 02 f9 98 	l.lwz r8,0xfffff998(r2)
    619c:	9f de 00 04 	l.addi r30,r30,0x4
    61a0:	03 ff fd da 	l.j 5908 <__vfprintf_r+0x118>
    61a4:	d4 03 40 00 	l.sw 0x0(r3),r8
    61a8:	8c 8e 00 00 	l.lbz r4,0x0(r14)
    61ac:	b8 64 00 18 	l.slli r3,r4,0x18
    61b0:	b8 63 00 98 	l.srai r3,r3,0x18
    61b4:	bc 23 00 6c 	l.sfnei r3,0x6c
    61b8:	13 ff ff ed 	l.bf 616c <__vfprintf_r+0x97c>
    61bc:	15 00 00 00 	l.nop 0x0
    61c0:	9d ce 00 01 	l.addi r14,r14,0x1
    61c4:	ab 5a 00 10 	l.ori r26,r26,0x10
    61c8:	03 ff fd fe 	l.j 59c0 <__vfprintf_r+0x1d0>
    61cc:	8c 8e 00 00 	l.lbz r4,0x0(r14)
    61d0:	bc 38 ff ff 	l.sfnei r24,0xffffffff
    61d4:	10 00 02 e5 	l.bf 6d68 <__vfprintf_r+0x1578>
    61d8:	bc 36 00 67 	l.sfnei r22,0x67
    61dc:	9f 00 00 06 	l.addi r24,r0,0x6
    61e0:	b8 7a 00 43 	l.srli r3,r26,0x3
    61e4:	a4 63 00 01 	l.andi r3,r3,0x1
    61e8:	bc 03 00 00 	l.sfeqi r3,0x0
    61ec:	10 00 02 8a 	l.bf 6c14 <__vfprintf_r+0x1424>
    61f0:	a8 7e 00 00 	l.ori r3,r30,0x0
    61f4:	84 83 00 00 	l.lwz r4,0x0(r3)
    61f8:	84 a3 00 04 	l.lwz r5,0x4(r3)
    61fc:	d7 e2 21 88 	l.sw 0xfffff988(r2),r4
    6200:	d7 e2 29 8c 	l.sw 0xfffff98c(r2),r5
    6204:	84 62 f9 88 	l.lwz r3,0xfffff988(r2)
    6208:	84 82 f9 8c 	l.lwz r4,0xfffff98c(r2)
    620c:	04 00 0d b7 	l.jal 98e8 <_isinf>
    6210:	9f de 00 08 	l.addi r30,r30,0x8
    6214:	bc 0b 00 00 	l.sfeqi r11,0x0
    6218:	10 00 02 8a 	l.bf 6c40 <__vfprintf_r+0x1450>
    621c:	15 00 00 00 	l.nop 0x0
    6220:	1a 80 00 01 	l.movhi r20,0x1
    6224:	aa 94 21 44 	l.ori r20,r20,0x2144
    6228:	84 62 f9 88 	l.lwz r3,0xfffff988(r2)
    622c:	84 82 f9 8c 	l.lwz r4,0xfffff98c(r2)
    6230:	84 b4 00 00 	l.lwz r5,0x0(r20)
    6234:	84 d4 00 04 	l.lwz r6,0x4(r20)
    6238:	04 00 27 46 	l.jal ff50 <___ltdf2>
    623c:	15 00 00 00 	l.nop 0x0
    6240:	bd 8b 00 00 	l.sfltsi r11,0x0
    6244:	0c 00 00 03 	l.bnf 6250 <__vfprintf_r+0xa60>
    6248:	9c c0 00 2d 	l.addi r6,r0,0x2d
    624c:	db e2 37 ff 	l.sb 0xffffffff(r2),r6
    6250:	1a 40 00 01 	l.movhi r18,0x1
    6254:	aa 52 22 e2 	l.ori r18,r18,0x22e2
    6258:	03 ff fe 51 	l.j 5b9c <__vfprintf_r+0x3ac>
    625c:	9e 80 00 03 	l.addi r20,r0,0x3
    6260:	bc 16 00 43 	l.sfeqi r22,0x43
    6264:	10 00 00 07 	l.bf 6280 <__vfprintf_r+0xa90>
    6268:	9e 42 fe 4c 	l.addi r18,r2,0xfffffe4c
    626c:	b8 7a 00 44 	l.srli r3,r26,0x4
    6270:	a4 63 00 01 	l.andi r3,r3,0x1
    6274:	bc 23 00 00 	l.sfnei r3,0x0
    6278:	0c 00 03 03 	l.bnf 6e84 <__vfprintf_r+0x1694>
    627c:	9e 80 00 01 	l.addi r20,r0,0x1
    6280:	9c 62 f9 bc 	l.addi r3,r2,0xfffff9bc
    6284:	9c 80 00 00 	l.addi r4,r0,0x0
    6288:	04 00 0d ad 	l.jal 993c <_memset>
    628c:	9c a0 00 08 	l.addi r5,r0,0x8
    6290:	84 be 00 00 	l.lwz r5,0x0(r30)
    6294:	a8 92 00 00 	l.ori r4,r18,0x0
    6298:	9c c2 f9 bc 	l.addi r6,r2,0xfffff9bc
    629c:	84 62 f9 9c 	l.lwz r3,0xfffff99c(r2)
    62a0:	04 00 0d d8 	l.jal 9a00 <__wcrtomb_r>
    62a4:	9f de 00 04 	l.addi r30,r30,0x4
    62a8:	bc 2b ff ff 	l.sfnei r11,0xffffffff
    62ac:	0c 00 04 3b 	l.bnf 7398 <__vfprintf_r+0x1ba8>
    62b0:	aa 8b 00 00 	l.ori r20,r11,0x0
    62b4:	9c 80 00 00 	l.addi r4,r0,0x0
    62b8:	03 ff fe 39 	l.j 5b9c <__vfprintf_r+0x3ac>
    62bc:	db e2 27 ff 	l.sb 0xffffffff(r2),r4
    62c0:	b8 7a 00 44 	l.srli r3,r26,0x4
    62c4:	18 c0 00 01 	l.movhi r6,0x1
    62c8:	a8 c6 22 e6 	l.ori r6,r6,0x22e6
    62cc:	a4 63 00 01 	l.andi r3,r3,0x1
    62d0:	bc 03 00 00 	l.sfeqi r3,0x0
    62d4:	0c 00 00 49 	l.bnf 63f8 <__vfprintf_r+0xc08>
    62d8:	d7 e2 31 7c 	l.sw 0xfffff97c(r2),r6
    62dc:	b8 7a 00 46 	l.srli r3,r26,0x6
    62e0:	a4 63 00 01 	l.andi r3,r3,0x1
    62e4:	bc 03 00 00 	l.sfeqi r3,0x0
    62e8:	10 00 00 44 	l.bf 63f8 <__vfprintf_r+0xc08>
    62ec:	15 00 00 00 	l.nop 0x0
    62f0:	95 5e 00 02 	l.lhz r10,0x2(r30)
    62f4:	9c 80 00 00 	l.addi r4,r0,0x0
    62f8:	9f de 00 04 	l.addi r30,r30,0x4
    62fc:	9c a0 00 02 	l.addi r5,r0,0x2
    6300:	e4 0a 20 00 	l.sfeq r10,r4
    6304:	10 00 00 03 	l.bf 6310 <__vfprintf_r+0xb20>
    6308:	a4 7a 00 01 	l.andi r3,r26,0x1
    630c:	9c 80 00 01 	l.addi r4,r0,0x1
    6310:	e0 63 20 03 	l.and r3,r3,r4
    6314:	bc 03 00 00 	l.sfeqi r3,0x0
    6318:	13 ff fd fe 	l.bf 5b10 <__vfprintf_r+0x320>
    631c:	9c 60 00 00 	l.addi r3,r0,0x0
    6320:	03 ff fd fc 	l.j 5b10 <__vfprintf_r+0x320>
    6324:	ab 5a 00 02 	l.ori r26,r26,0x2
    6328:	8c 8e 00 00 	l.lbz r4,0x0(r14)
    632c:	03 ff fd a5 	l.j 59c0 <__vfprintf_r+0x1d0>
    6330:	ab 5a 00 08 	l.ori r26,r26,0x8
    6334:	9d 40 00 00 	l.addi r10,r0,0x0
    6338:	b8 6a 00 03 	l.slli r3,r10,0x3
    633c:	e0 63 50 00 	l.add r3,r3,r10
    6340:	e1 63 50 00 	l.add r11,r3,r10
    6344:	e1 6b b0 00 	l.add r11,r11,r22
    6348:	92 ce 00 00 	l.lbs r22,0x0(r14)
    634c:	9d 4b ff d0 	l.addi r10,r11,0xffffffd0
    6350:	9c 76 ff d0 	l.addi r3,r22,0xffffffd0
    6354:	bc 43 00 09 	l.sfgtui r3,0x9
    6358:	0f ff ff f8 	l.bnf 6338 <__vfprintf_r+0xb48>
    635c:	9d ce 00 01 	l.addi r14,r14,0x1
    6360:	03 ff fd 9b 	l.j 59cc <__vfprintf_r+0x1dc>
    6364:	d7 e2 51 94 	l.sw 0xfffff994(r2),r10
    6368:	8c 8e 00 00 	l.lbz r4,0x0(r14)
    636c:	03 ff fd 95 	l.j 59c0 <__vfprintf_r+0x1d0>
    6370:	ab 5a 00 80 	l.ori r26,r26,0x80
    6374:	92 ce 00 00 	l.lbs r22,0x0(r14)
    6378:	bc 36 00 2a 	l.sfnei r22,0x2a
    637c:	0c 00 04 23 	l.bnf 7408 <__vfprintf_r+0x1c18>
    6380:	9d ce 00 01 	l.addi r14,r14,0x1
    6384:	9c 76 ff d0 	l.addi r3,r22,0xffffffd0
    6388:	00 00 00 09 	l.j 63ac <__vfprintf_r+0xbbc>
    638c:	9d 40 00 00 	l.addi r10,r0,0x0
    6390:	e0 63 50 00 	l.add r3,r3,r10
    6394:	e1 63 50 00 	l.add r11,r3,r10
    6398:	e1 6b b0 00 	l.add r11,r11,r22
    639c:	92 ce 00 00 	l.lbs r22,0x0(r14)
    63a0:	9d 4b ff d0 	l.addi r10,r11,0xffffffd0
    63a4:	9c 76 ff d0 	l.addi r3,r22,0xffffffd0
    63a8:	9d ce 00 01 	l.addi r14,r14,0x1
    63ac:	bc 43 00 09 	l.sfgtui r3,0x9
    63b0:	0f ff ff f8 	l.bnf 6390 <__vfprintf_r+0xba0>
    63b4:	b8 6a 00 03 	l.slli r3,r10,0x3
    63b8:	bd 6a ff ff 	l.sfgesi r10,0xffffffff
    63bc:	13 ff fd 84 	l.bf 59cc <__vfprintf_r+0x1dc>
    63c0:	ab 0a 00 00 	l.ori r24,r10,0x0
    63c4:	03 ff fd 82 	l.j 59cc <__vfprintf_r+0x1dc>
    63c8:	9f 00 ff ff 	l.addi r24,r0,0xffffffff
    63cc:	9c 60 00 2b 	l.addi r3,r0,0x2b
    63d0:	db e2 1f ff 	l.sb 0xffffffff(r2),r3
    63d4:	03 ff fd 7b 	l.j 59c0 <__vfprintf_r+0x1d0>
    63d8:	8c 8e 00 00 	l.lbz r4,0x0(r14)
    63dc:	b8 7a 00 44 	l.srli r3,r26,0x4
    63e0:	19 00 00 01 	l.movhi r8,0x1
    63e4:	a9 08 22 ca 	l.ori r8,r8,0x22ca
    63e8:	a4 63 00 01 	l.andi r3,r3,0x1
    63ec:	bc 03 00 00 	l.sfeqi r3,0x0
    63f0:	13 ff ff bb 	l.bf 62dc <__vfprintf_r+0xaec>
    63f4:	d7 e2 41 7c 	l.sw 0xfffff97c(r2),r8
    63f8:	03 ff ff bf 	l.j 62f4 <__vfprintf_r+0xb04>
    63fc:	85 5e 00 00 	l.lwz r10,0x0(r30)
    6400:	8c 8e 00 00 	l.lbz r4,0x0(r14)
    6404:	03 ff fd 6f 	l.j 59c0 <__vfprintf_r+0x1d0>
    6408:	ab 5a 00 01 	l.ori r26,r26,0x1
    640c:	a8 7c 00 00 	l.ori r3,r28,0x0
    6410:	07 ff fc e2 	l.jal 5798 <___sprint>
    6414:	9c 82 ff e8 	l.addi r4,r2,0xffffffe8
    6418:	bc 0b 00 00 	l.sfeqi r11,0x0
    641c:	0c 00 00 9f 	l.bnf 6698 <__vfprintf_r+0xea8>
    6420:	9e 02 ff a8 	l.addi r16,r2,0xffffffa8
    6424:	03 ff fe 3e 	l.j 5d1c <__vfprintf_r+0x52c>
    6428:	9d 4a ff f0 	l.addi r10,r10,0xfffffff0
    642c:	a8 7c 00 00 	l.ori r3,r28,0x0
    6430:	07 ff fc da 	l.jal 5798 <___sprint>
    6434:	9c 82 ff e8 	l.addi r4,r2,0xffffffe8
    6438:	bc 0b 00 00 	l.sfeqi r11,0x0
    643c:	0c 00 00 97 	l.bnf 6698 <__vfprintf_r+0xea8>
    6440:	9e 02 ff a8 	l.addi r16,r2,0xffffffa8
    6444:	03 ff fe 61 	l.j 5dc8 <__vfprintf_r+0x5d8>
    6448:	9d 4a ff f0 	l.addi r10,r10,0xfffffff0
    644c:	a8 7c 00 00 	l.ori r3,r28,0x0
    6450:	07 ff fc d2 	l.jal 5798 <___sprint>
    6454:	9c 82 ff e8 	l.addi r4,r2,0xffffffe8
    6458:	bc 0b 00 00 	l.sfeqi r11,0x0
    645c:	0c 00 00 8f 	l.bnf 6698 <__vfprintf_r+0xea8>
    6460:	9e 02 ff a8 	l.addi r16,r2,0xffffffa8
    6464:	03 ff fe 9d 	l.j 5ed8 <__vfprintf_r+0x6e8>
    6468:	9d 4a ff f0 	l.addi r10,r10,0xfffffff0
    646c:	a4 63 00 01 	l.andi r3,r3,0x1
    6470:	bc 03 00 00 	l.sfeqi r3,0x0
    6474:	13 ff fd d7 	l.bf 5bd0 <__vfprintf_r+0x3e0>
    6478:	a5 9a 00 84 	l.andi r12,r26,0x84
    647c:	03 ff fd d5 	l.j 5bd0 <__vfprintf_r+0x3e0>
    6480:	9f 18 00 02 	l.addi r24,r24,0x2
    6484:	a4 63 00 01 	l.andi r3,r3,0x1
    6488:	bc 03 00 00 	l.sfeqi r3,0x0
    648c:	13 ff fe 0c 	l.bf 5cbc <__vfprintf_r+0x4cc>
    6490:	bc 2c 00 80 	l.sfnei r12,0x80
    6494:	9c 60 00 30 	l.addi r3,r0,0x30
    6498:	db e2 b6 49 	l.sb 0xfffffe49(r2),r22
    649c:	9c c0 00 02 	l.addi r6,r0,0x2
    64a0:	db e2 1e 48 	l.sb 0xfffffe48(r2),r3
    64a4:	84 62 ff f0 	l.lwz r3,0xfffffff0(r2)
    64a8:	9c a3 00 02 	l.addi r5,r3,0x2
    64ac:	d4 10 30 04 	l.sw 0x4(r16),r6
    64b0:	84 62 ff ec 	l.lwz r3,0xffffffec(r2)
    64b4:	9c 83 00 01 	l.addi r4,r3,0x1
    64b8:	d7 e2 2f f0 	l.sw 0xfffffff0(r2),r5
    64bc:	9c 62 fe 48 	l.addi r3,r2,0xfffffe48
    64c0:	d7 e2 27 ec 	l.sw 0xffffffec(r2),r4
    64c4:	d4 10 18 00 	l.sw 0x0(r16),r3
    64c8:	bd a4 00 07 	l.sflesi r4,0x7
    64cc:	13 ff fd fb 	l.bf 5cb8 <__vfprintf_r+0x4c8>
    64d0:	9e 10 00 08 	l.addi r16,r16,0x8
    64d4:	a8 7c 00 00 	l.ori r3,r28,0x0
    64d8:	07 ff fc b0 	l.jal 5798 <___sprint>
    64dc:	9c 82 ff e8 	l.addi r4,r2,0xffffffe8
    64e0:	bc 0b 00 00 	l.sfeqi r11,0x0
    64e4:	0c 00 00 6d 	l.bnf 6698 <__vfprintf_r+0xea8>
    64e8:	9e 02 ff a8 	l.addi r16,r2,0xffffffa8
    64ec:	03 ff fd f4 	l.j 5cbc <__vfprintf_r+0x4cc>
    64f0:	bc 2c 00 80 	l.sfnei r12,0x80
    64f4:	10 00 00 7c 	l.bf 66e4 <__vfprintf_r+0xef4>
    64f8:	85 42 f9 b4 	l.lwz r10,0xfffff9b4(r2)
    64fc:	1a 80 00 01 	l.movhi r20,0x1
    6500:	aa 94 21 44 	l.ori r20,r20,0x2144
    6504:	84 62 f9 88 	l.lwz r3,0xfffff988(r2)
    6508:	84 82 f9 8c 	l.lwz r4,0xfffff98c(r2)
    650c:	84 b4 00 00 	l.lwz r5,0x0(r20)
    6510:	84 d4 00 04 	l.lwz r6,0x4(r20)
    6514:	04 00 26 03 	l.jal fd20 <___eqdf2>
    6518:	15 00 00 00 	l.nop 0x0
    651c:	bc 0b 00 00 	l.sfeqi r11,0x0
    6520:	0c 00 00 a9 	l.bnf 67c4 <__vfprintf_r+0xfd4>
    6524:	84 a2 f9 b8 	l.lwz r5,0xfffff9b8(r2)
    6528:	84 62 ff f0 	l.lwz r3,0xfffffff0(r2)
    652c:	9c c0 00 01 	l.addi r6,r0,0x1
    6530:	18 a0 00 01 	l.movhi r5,0x1
    6534:	a8 a5 22 f7 	l.ori r5,r5,0x22f7
    6538:	e0 83 30 00 	l.add r4,r3,r6
    653c:	d4 10 28 00 	l.sw 0x0(r16),r5
    6540:	84 62 ff ec 	l.lwz r3,0xffffffec(r2)
    6544:	d4 10 30 04 	l.sw 0x4(r16),r6
    6548:	e0 63 30 00 	l.add r3,r3,r6
    654c:	9e 10 00 08 	l.addi r16,r16,0x8
    6550:	d7 e2 27 f0 	l.sw 0xfffffff0(r2),r4
    6554:	bd a3 00 07 	l.sflesi r3,0x7
    6558:	0c 00 02 1d 	l.bnf 6dcc <__vfprintf_r+0x15dc>
    655c:	d7 e2 1f ec 	l.sw 0xffffffec(r2),r3
    6560:	85 42 f9 b4 	l.lwz r10,0xfffff9b4(r2)
    6564:	84 62 f9 b8 	l.lwz r3,0xfffff9b8(r2)
    6568:	e5 83 50 00 	l.sflts r3,r10
    656c:	10 00 00 07 	l.bf 6588 <__vfprintf_r+0xd98>
    6570:	84 62 ff f0 	l.lwz r3,0xfffffff0(r2)
    6574:	a4 7a 00 01 	l.andi r3,r26,0x1
    6578:	bc 23 00 00 	l.sfnei r3,0x0
    657c:	0f ff fe 3c 	l.bnf 5e6c <__vfprintf_r+0x67c>
    6580:	b8 7a 00 42 	l.srli r3,r26,0x2
    6584:	84 62 ff f0 	l.lwz r3,0xfffffff0(r2)
    6588:	9d 00 00 01 	l.addi r8,r0,0x1
    658c:	e0 83 40 00 	l.add r4,r3,r8
    6590:	84 a2 f9 90 	l.lwz r5,0xfffff990(r2)
    6594:	84 62 ff ec 	l.lwz r3,0xffffffec(r2)
    6598:	d4 10 40 04 	l.sw 0x4(r16),r8
    659c:	e0 63 40 00 	l.add r3,r3,r8
    65a0:	d4 10 28 00 	l.sw 0x0(r16),r5
    65a4:	d7 e2 27 f0 	l.sw 0xfffffff0(r2),r4
    65a8:	9e 10 00 08 	l.addi r16,r16,0x8
    65ac:	bd a3 00 07 	l.sflesi r3,0x7
    65b0:	0c 00 02 39 	l.bnf 6e94 <__vfprintf_r+0x16a4>
    65b4:	d7 e2 1f ec 	l.sw 0xffffffec(r2),r3
    65b8:	9d 4a ff ff 	l.addi r10,r10,0xffffffff
    65bc:	bd aa 00 00 	l.sflesi r10,0x0
    65c0:	13 ff fe 2a 	l.bf 5e68 <__vfprintf_r+0x678>
    65c4:	bd aa 00 10 	l.sflesi r10,0x10
    65c8:	10 00 00 14 	l.bf 6618 <__vfprintf_r+0xe28>
    65cc:	15 00 00 00 	l.nop 0x0
    65d0:	84 62 ff f0 	l.lwz r3,0xfffffff0(r2)
    65d4:	9d 00 00 10 	l.addi r8,r0,0x10
    65d8:	18 c0 00 01 	l.movhi r6,0x1
    65dc:	a8 c6 21 34 	l.ori r6,r6,0x2134
    65e0:	e0 83 40 00 	l.add r4,r3,r8
    65e4:	d4 10 30 00 	l.sw 0x0(r16),r6
    65e8:	84 62 ff ec 	l.lwz r3,0xffffffec(r2)
    65ec:	d4 10 40 04 	l.sw 0x4(r16),r8
    65f0:	9c 63 00 01 	l.addi r3,r3,0x1
    65f4:	9e 10 00 08 	l.addi r16,r16,0x8
    65f8:	d7 e2 27 f0 	l.sw 0xfffffff0(r2),r4
    65fc:	bd a3 00 07 	l.sflesi r3,0x7
    6600:	0c 00 00 0f 	l.bnf 663c <__vfprintf_r+0xe4c>
    6604:	d7 e2 1f ec 	l.sw 0xffffffec(r2),r3
    6608:	9d 4a ff f0 	l.addi r10,r10,0xfffffff0
    660c:	bd aa 00 10 	l.sflesi r10,0x10
    6610:	0f ff ff f0 	l.bnf 65d0 <__vfprintf_r+0xde0>
    6614:	15 00 00 00 	l.nop 0x0
    6618:	18 60 00 01 	l.movhi r3,0x1
    661c:	a8 63 21 34 	l.ori r3,r3,0x2134
    6620:	d4 10 50 04 	l.sw 0x4(r16),r10
    6624:	d4 10 18 00 	l.sw 0x0(r16),r3
    6628:	84 62 ff f0 	l.lwz r3,0xfffffff0(r2)
    662c:	e0 83 50 00 	l.add r4,r3,r10
    6630:	84 62 ff ec 	l.lwz r3,0xffffffec(r2)
    6634:	03 ff fe 07 	l.j 5e50 <__vfprintf_r+0x660>
    6638:	9c 63 00 01 	l.addi r3,r3,0x1
    663c:	a8 7c 00 00 	l.ori r3,r28,0x0
    6640:	07 ff fc 56 	l.jal 5798 <___sprint>
    6644:	9c 82 ff e8 	l.addi r4,r2,0xffffffe8
    6648:	bc 0b 00 00 	l.sfeqi r11,0x0
    664c:	0c 00 00 13 	l.bnf 6698 <__vfprintf_r+0xea8>
    6650:	9e 02 ff a8 	l.addi r16,r2,0xffffffa8
    6654:	03 ff ff ee 	l.j 660c <__vfprintf_r+0xe1c>
    6658:	9d 4a ff f0 	l.addi r10,r10,0xfffffff0
    665c:	13 ff fe 5a 	l.bf 5fc4 <__vfprintf_r+0x7d4>
    6660:	e0 82 90 02 	l.sub r4,r2,r18
    6664:	a4 7a 00 01 	l.andi r3,r26,0x1
    6668:	bc 03 00 00 	l.sfeqi r3,0x0
    666c:	13 ff fe 56 	l.bf 5fc4 <__vfprintf_r+0x7d4>
    6670:	9c a0 00 30 	l.addi r5,r0,0x30
    6674:	9e 42 ff a7 	l.addi r18,r2,0xffffffa7
    6678:	03 ff fe 52 	l.j 5fc0 <__vfprintf_r+0x7d0>
    667c:	d8 12 28 00 	l.sb 0x0(r18),r5
    6680:	a8 7c 00 00 	l.ori r3,r28,0x0
    6684:	07 ff fc 45 	l.jal 5798 <___sprint>
    6688:	9c 82 ff e8 	l.addi r4,r2,0xffffffe8
    668c:	bc 0b 00 00 	l.sfeqi r11,0x0
    6690:	13 ff fe 31 	l.bf 5f54 <__vfprintf_r+0x764>
    6694:	15 00 00 00 	l.nop 0x0
    6698:	85 02 f9 78 	l.lwz r8,0xfffff978(r2)
    669c:	bc 08 00 00 	l.sfeqi r8,0x0
    66a0:	0c 00 01 d3 	l.bnf 6dec <__vfprintf_r+0x15fc>
    66a4:	84 62 f9 9c 	l.lwz r3,0xfffff99c(r2)
    66a8:	94 7c 00 0c 	l.lhz r3,0xc(r28)
    66ac:	b8 63 00 46 	l.srli r3,r3,0x6
    66b0:	a4 63 00 01 	l.andi r3,r3,0x1
    66b4:	bc 23 00 00 	l.sfnei r3,0x0
    66b8:	13 ff fc e2 	l.bf 5a40 <__vfprintf_r+0x250>
    66bc:	15 00 00 00 	l.nop 0x0
    66c0:	00 00 03 59 	l.j 7424 <__vfprintf_r+0x1c34>
    66c4:	85 62 f9 98 	l.lwz r11,0xfffff998(r2)
    66c8:	07 ff fc 34 	l.jal 5798 <___sprint>
    66cc:	9c 82 ff e8 	l.addi r4,r2,0xffffffe8
    66d0:	bc 0b 00 00 	l.sfeqi r11,0x0
    66d4:	0f ff ff f1 	l.bnf 6698 <__vfprintf_r+0xea8>
    66d8:	9e 02 ff a8 	l.addi r16,r2,0xffffffa8
    66dc:	03 ff fd e4 	l.j 5e6c <__vfprintf_r+0x67c>
    66e0:	b8 7a 00 42 	l.srli r3,r26,0x2
    66e4:	bd 4a 00 01 	l.sfgtsi r10,0x1
    66e8:	10 00 00 05 	l.bf 66fc <__vfprintf_r+0xf0c>
    66ec:	a4 7a 00 01 	l.andi r3,r26,0x1
    66f0:	bc 23 00 00 	l.sfnei r3,0x0
    66f4:	0c 00 01 2d 	l.bnf 6ba8 <__vfprintf_r+0x13b8>
    66f8:	84 62 ff f0 	l.lwz r3,0xfffffff0(r2)
    66fc:	8c 92 00 00 	l.lbz r4,0x0(r18)
    6700:	9c 60 00 2e 	l.addi r3,r0,0x2e
    6704:	9c c0 00 02 	l.addi r6,r0,0x2
    6708:	db e2 1e 49 	l.sb 0xfffffe49(r2),r3
    670c:	9e 52 00 01 	l.addi r18,r18,0x1
    6710:	84 62 ff f0 	l.lwz r3,0xfffffff0(r2)
    6714:	9c a3 00 02 	l.addi r5,r3,0x2
    6718:	db e2 26 48 	l.sb 0xfffffe48(r2),r4
    671c:	84 62 ff ec 	l.lwz r3,0xffffffec(r2)
    6720:	9c 83 00 01 	l.addi r4,r3,0x1
    6724:	d4 10 30 04 	l.sw 0x4(r16),r6
    6728:	9c 62 fe 48 	l.addi r3,r2,0xfffffe48
    672c:	d7 e2 2f f0 	l.sw 0xfffffff0(r2),r5
    6730:	d4 10 18 00 	l.sw 0x0(r16),r3
    6734:	d7 e2 27 ec 	l.sw 0xffffffec(r2),r4
    6738:	bd a4 00 07 	l.sflesi r4,0x7
    673c:	0c 00 01 2e 	l.bnf 6bf4 <__vfprintf_r+0x1404>
    6740:	9e 10 00 08 	l.addi r16,r16,0x8
    6744:	1a 80 00 01 	l.movhi r20,0x1
    6748:	aa 94 21 44 	l.ori r20,r20,0x2144
    674c:	84 62 f9 88 	l.lwz r3,0xfffff988(r2)
    6750:	84 82 f9 8c 	l.lwz r4,0xfffff98c(r2)
    6754:	84 b4 00 00 	l.lwz r5,0x0(r20)
    6758:	84 d4 00 04 	l.lwz r6,0x4(r20)
    675c:	04 00 25 94 	l.jal fdac <___nedf2>
    6760:	15 00 00 00 	l.nop 0x0
    6764:	bc 2b 00 00 	l.sfnei r11,0x0
    6768:	0c 00 00 82 	l.bnf 6970 <__vfprintf_r+0x1180>
    676c:	84 62 ff f0 	l.lwz r3,0xfffffff0(r2)
    6770:	9c 8a ff ff 	l.addi r4,r10,0xffffffff
    6774:	e0 a3 50 00 	l.add r5,r3,r10
    6778:	d4 10 90 00 	l.sw 0x0(r16),r18
    677c:	84 62 ff ec 	l.lwz r3,0xffffffec(r2)
    6780:	9c a5 ff ff 	l.addi r5,r5,0xffffffff
    6784:	9c 63 00 01 	l.addi r3,r3,0x1
    6788:	d4 10 20 04 	l.sw 0x4(r16),r4
    678c:	d7 e2 2f f0 	l.sw 0xfffffff0(r2),r5
    6790:	9e 10 00 08 	l.addi r16,r16,0x8
    6794:	bd a3 00 07 	l.sflesi r3,0x7
    6798:	0c 00 01 0f 	l.bnf 6bd4 <__vfprintf_r+0x13e4>
    679c:	d7 e2 1f ec 	l.sw 0xffffffec(r2),r3
    67a0:	84 62 ff f0 	l.lwz r3,0xfffffff0(r2)
