
application1.OR1K.elf:     file format elf32-or32

Disassembly of section .text:

00000000 <_start-0x100>:
	...

00000100 <_start>:
     100:	9c 40 00 00 	l.addi r2,r0,0x0
     104:	9c 60 00 00 	l.addi r3,r0,0x0
     108:	9c 80 00 00 	l.addi r4,r0,0x0
     10c:	9c a0 00 00 	l.addi r5,r0,0x0
     110:	9c c0 00 00 	l.addi r6,r0,0x0
     114:	9c e0 00 00 	l.addi r7,r0,0x0
     118:	9d 00 00 00 	l.addi r8,r0,0x0
     11c:	9d 20 00 00 	l.addi r9,r0,0x0
     120:	9d 40 00 00 	l.addi r10,r0,0x0
     124:	9d 60 00 00 	l.addi r11,r0,0x0
     128:	9d 80 00 00 	l.addi r12,r0,0x0
     12c:	9d a0 00 00 	l.addi r13,r0,0x0
     130:	9d c0 00 00 	l.addi r14,r0,0x0
     134:	9d e0 00 00 	l.addi r15,r0,0x0
     138:	9e 00 00 00 	l.addi r16,r0,0x0
     13c:	9e 20 00 00 	l.addi r17,r0,0x0
     140:	9e 40 00 00 	l.addi r18,r0,0x0
     144:	9e 60 00 00 	l.addi r19,r0,0x0
     148:	9e 80 00 00 	l.addi r20,r0,0x0
     14c:	9e a0 00 00 	l.addi r21,r0,0x0
     150:	9e c0 00 00 	l.addi r22,r0,0x0
     154:	9e e0 00 00 	l.addi r23,r0,0x0
     158:	9f 00 00 00 	l.addi r24,r0,0x0
     15c:	9f 20 00 00 	l.addi r25,r0,0x0
     160:	9f 40 00 00 	l.addi r26,r0,0x0
     164:	9f 60 00 00 	l.addi r27,r0,0x0
     168:	9f 80 00 00 	l.addi r28,r0,0x0
     16c:	9f a0 00 00 	l.addi r29,r0,0x0
     170:	9f c0 00 00 	l.addi r30,r0,0x0
     174:	9f e0 00 00 	l.addi r31,r0,0x0
     178:	18 20 ff ff 	l.movhi r1,0xffff
     17c:	a8 21 ff fc 	l.ori r1,r1,0xfffc
     180:	18 40 00 00 	l.movhi r2,0x0
     184:	a8 42 74 ec 	l.ori r2,r2,0x74ec
     188:	44 00 10 00 	l.jr r2
     18c:	15 00 00 00 	l.nop 0x0
	...

00000200 <_buserr_vector>:
     200:	9c 21 ff 88 	l.addi r1,r1,0xffffff88
     204:	d4 01 48 1c 	l.sw 0x1c(r1),r9
     208:	d4 01 50 20 	l.sw 0x20(r1),r10
     20c:	19 20 00 00 	l.movhi r9,0x0
     210:	a9 29 0e 24 	l.ori r9,r9,0xe24
     214:	19 40 00 01 	l.movhi r10,0x1
     218:	a9 4a 70 90 	l.ori r10,r10,0x7090
     21c:	44 00 48 00 	l.jr r9
     220:	15 00 00 00 	l.nop 0x0

00000224 <_buserr_vector_end>:
	...

00000300 <_dpfault_vector>:
     300:	9c 21 ff 88 	l.addi r1,r1,0xffffff88
     304:	d4 01 48 1c 	l.sw 0x1c(r1),r9
     308:	d4 01 50 20 	l.sw 0x20(r1),r10
     30c:	19 20 00 00 	l.movhi r9,0x0
     310:	a9 29 0e 24 	l.ori r9,r9,0xe24
     314:	19 40 00 01 	l.movhi r10,0x1
     318:	a9 4a 70 90 	l.ori r10,r10,0x7090
     31c:	44 00 48 00 	l.jr r9
     320:	15 00 00 00 	l.nop 0x0

00000324 <_dpfault_vector_end>:
	...

00000400 <_ipfault_vector>:
     400:	9c 21 ff 88 	l.addi r1,r1,0xffffff88
     404:	d4 01 48 1c 	l.sw 0x1c(r1),r9
     408:	d4 01 50 20 	l.sw 0x20(r1),r10
     40c:	19 20 00 00 	l.movhi r9,0x0
     410:	a9 29 0e 24 	l.ori r9,r9,0xe24
     414:	19 40 00 01 	l.movhi r10,0x1
     418:	a9 4a 70 90 	l.ori r10,r10,0x7090
     41c:	44 00 48 00 	l.jr r9
     420:	15 00 00 00 	l.nop 0x0

00000424 <_ipfault_vector_end>:
	...

00000500 <_lpint_vector>:
     500:	9c 21 ff 88 	l.addi r1,r1,0xffffff88
     504:	d4 01 48 1c 	l.sw 0x1c(r1),r9
     508:	d4 01 50 20 	l.sw 0x20(r1),r10
     50c:	19 20 00 00 	l.movhi r9,0x0
     510:	a9 29 0e 24 	l.ori r9,r9,0xe24
     514:	19 40 00 01 	l.movhi r10,0x1
     518:	a9 4a 70 90 	l.ori r10,r10,0x7090
     51c:	44 00 48 00 	l.jr r9
     520:	15 00 00 00 	l.nop 0x0

00000524 <_lpint_vector_end>:
	...

00000600 <_align_vector>:
     600:	9c 21 ff 88 	l.addi r1,r1,0xffffff88
     604:	d4 01 48 1c 	l.sw 0x1c(r1),r9
     608:	d4 01 50 20 	l.sw 0x20(r1),r10
     60c:	19 20 00 00 	l.movhi r9,0x0
     610:	a9 29 0e 24 	l.ori r9,r9,0xe24
     614:	19 40 00 01 	l.movhi r10,0x1
     618:	a9 4a 70 90 	l.ori r10,r10,0x7090
     61c:	44 00 48 00 	l.jr r9
     620:	15 00 00 00 	l.nop 0x0

00000624 <_align_vector_end>:
	...

00000700 <_illinsn_vector>:
     700:	9c 21 ff 88 	l.addi r1,r1,0xffffff88
     704:	d4 01 48 1c 	l.sw 0x1c(r1),r9
     708:	d4 01 50 20 	l.sw 0x20(r1),r10
     70c:	19 20 00 00 	l.movhi r9,0x0
     710:	a9 29 0e 24 	l.ori r9,r9,0xe24
     714:	19 40 00 01 	l.movhi r10,0x1
     718:	a9 4a 70 90 	l.ori r10,r10,0x7090
     71c:	44 00 48 00 	l.jr r9
     720:	15 00 00 00 	l.nop 0x0

00000724 <_illinsn_vector_end>:
	...

00000800 <_hpint_vector>:
     800:	9c 21 ff 88 	l.addi r1,r1,0xffffff88
     804:	d4 01 48 1c 	l.sw 0x1c(r1),r9
     808:	d4 01 50 20 	l.sw 0x20(r1),r10
     80c:	19 20 00 00 	l.movhi r9,0x0
     810:	a9 29 0e 24 	l.ori r9,r9,0xe24
     814:	19 40 00 01 	l.movhi r10,0x1
     818:	a9 4a 70 9c 	l.ori r10,r10,0x709c
     81c:	44 00 48 00 	l.jr r9
     820:	15 00 00 00 	l.nop 0x0

00000824 <_hpint_vector_end>:
	...

00000900 <_dtlbmiss_vector>:
     900:	9c 21 ff 88 	l.addi r1,r1,0xffffff88
     904:	d4 01 48 1c 	l.sw 0x1c(r1),r9
     908:	d4 01 50 20 	l.sw 0x20(r1),r10
     90c:	19 20 00 00 	l.movhi r9,0x0
     910:	a9 29 0e 24 	l.ori r9,r9,0xe24
     914:	19 40 00 01 	l.movhi r10,0x1
     918:	a9 4a 70 90 	l.ori r10,r10,0x7090
     91c:	44 00 48 00 	l.jr r9
     920:	15 00 00 00 	l.nop 0x0

00000924 <_dtlbmiss_vector_end>:
	...

00000a00 <_itlbmiss_vector>:
     a00:	9c 21 ff 88 	l.addi r1,r1,0xffffff88
     a04:	d4 01 48 1c 	l.sw 0x1c(r1),r9
     a08:	d4 01 50 20 	l.sw 0x20(r1),r10
     a0c:	19 20 00 00 	l.movhi r9,0x0
     a10:	a9 29 0e 24 	l.ori r9,r9,0xe24
     a14:	19 40 00 01 	l.movhi r10,0x1
     a18:	a9 4a 70 90 	l.ori r10,r10,0x7090
     a1c:	44 00 48 00 	l.jr r9
     a20:	15 00 00 00 	l.nop 0x0

00000a24 <_itlbmiss_vector_end>:
	...

00000b00 <_range_vector>:
     b00:	9c 21 ff 88 	l.addi r1,r1,0xffffff88
     b04:	d4 01 48 1c 	l.sw 0x1c(r1),r9
     b08:	d4 01 50 20 	l.sw 0x20(r1),r10
     b0c:	19 20 00 00 	l.movhi r9,0x0
     b10:	a9 29 0e 24 	l.ori r9,r9,0xe24
     b14:	19 40 00 01 	l.movhi r10,0x1
     b18:	a9 4a 70 90 	l.ori r10,r10,0x7090
     b1c:	44 00 48 00 	l.jr r9
     b20:	15 00 00 00 	l.nop 0x0

00000b24 <_range_vector_end>:
	...

00000c00 <_syscall_vector>:
     c00:	9c 21 ff 88 	l.addi r1,r1,0xffffff88
     c04:	d4 01 48 1c 	l.sw 0x1c(r1),r9
     c08:	d4 01 50 20 	l.sw 0x20(r1),r10
     c0c:	19 20 00 00 	l.movhi r9,0x0
     c10:	a9 29 0e 24 	l.ori r9,r9,0xe24
     c14:	19 40 00 01 	l.movhi r10,0x1
     c18:	a9 4a 70 90 	l.ori r10,r10,0x7090
     c1c:	44 00 48 00 	l.jr r9
     c20:	15 00 00 00 	l.nop 0x0

00000c24 <_syscall_vector_end>:
	...

00000d00 <_break_vector>:
     d00:	9c 21 ff 88 	l.addi r1,r1,0xffffff88
     d04:	d4 01 48 1c 	l.sw 0x1c(r1),r9
     d08:	d4 01 50 20 	l.sw 0x20(r1),r10
     d0c:	19 20 00 00 	l.movhi r9,0x0
     d10:	a9 29 0e 24 	l.ori r9,r9,0xe24
     d14:	19 40 00 01 	l.movhi r10,0x1
     d18:	a9 4a 70 90 	l.ori r10,r10,0x7090
     d1c:	44 00 48 00 	l.jr r9
     d20:	15 00 00 00 	l.nop 0x0

00000d24 <_break_vector_end>:
	...

00000e00 <_trap_vector>:
     e00:	9c 21 ff 88 	l.addi r1,r1,0xffffff88
     e04:	d4 01 48 1c 	l.sw 0x1c(r1),r9
     e08:	d4 01 50 20 	l.sw 0x20(r1),r10
     e0c:	19 20 00 00 	l.movhi r9,0x0
     e10:	a9 29 0e 24 	l.ori r9,r9,0xe24
     e14:	19 40 00 01 	l.movhi r10,0x1
     e18:	a9 4a 70 90 	l.ori r10,r10,0x7090
     e1c:	44 00 48 00 	l.jr r9
     e20:	15 00 00 00 	l.nop 0x0

00000e24 <_trap_vector_end>:
     e24:	d4 01 10 00 	l.sw 0x0(r1),r2
     e28:	d4 01 18 04 	l.sw 0x4(r1),r3
     e2c:	d4 01 20 08 	l.sw 0x8(r1),r4
     e30:	d4 01 28 0c 	l.sw 0xc(r1),r5
     e34:	d4 01 30 10 	l.sw 0x10(r1),r6
     e38:	d4 01 38 14 	l.sw 0x14(r1),r7
     e3c:	d4 01 40 18 	l.sw 0x18(r1),r8
     e40:	d4 01 58 24 	l.sw 0x24(r1),r11
     e44:	d4 01 60 28 	l.sw 0x28(r1),r12
     e48:	d4 01 68 2c 	l.sw 0x2c(r1),r13
     e4c:	d4 01 70 30 	l.sw 0x30(r1),r14
     e50:	d4 01 78 34 	l.sw 0x34(r1),r15
     e54:	d4 01 80 38 	l.sw 0x38(r1),r16
     e58:	d4 01 88 3c 	l.sw 0x3c(r1),r17
     e5c:	d4 01 90 40 	l.sw 0x40(r1),r18
     e60:	d4 01 98 44 	l.sw 0x44(r1),r19
     e64:	d4 01 a0 48 	l.sw 0x48(r1),r20
     e68:	d4 01 a8 4c 	l.sw 0x4c(r1),r21
     e6c:	d4 01 b0 50 	l.sw 0x50(r1),r22
     e70:	d4 01 b8 54 	l.sw 0x54(r1),r23
     e74:	d4 01 c0 58 	l.sw 0x58(r1),r24
     e78:	d4 01 c8 5c 	l.sw 0x5c(r1),r25
     e7c:	d4 01 d0 60 	l.sw 0x60(r1),r26
     e80:	d4 01 d8 64 	l.sw 0x64(r1),r27
     e84:	d4 01 e0 68 	l.sw 0x68(r1),r28
     e88:	d4 01 e8 6c 	l.sw 0x6c(r1),r29
     e8c:	d4 01 f0 70 	l.sw 0x70(r1),r30
     e90:	d4 01 f8 74 	l.sw 0x74(r1),r31
     e94:	19 20 00 00 	l.movhi r9,0x0
     e98:	a9 29 0e a8 	l.ori r9,r9,0xea8
     e9c:	85 4a 00 00 	l.lwz r10,0x0(r10)
     ea0:	44 00 50 00 	l.jr r10
     ea4:	15 00 00 00 	l.nop 0x0

00000ea8 <end_except>:
     ea8:	84 41 00 00 	l.lwz r2,0x0(r1)
     eac:	84 61 00 04 	l.lwz r3,0x4(r1)
     eb0:	84 81 00 08 	l.lwz r4,0x8(r1)
     eb4:	84 a1 00 0c 	l.lwz r5,0xc(r1)
     eb8:	84 c1 00 10 	l.lwz r6,0x10(r1)
     ebc:	84 e1 00 14 	l.lwz r7,0x14(r1)
     ec0:	85 01 00 18 	l.lwz r8,0x18(r1)
     ec4:	85 21 00 1c 	l.lwz r9,0x1c(r1)
     ec8:	85 41 00 20 	l.lwz r10,0x20(r1)
     ecc:	85 61 00 24 	l.lwz r11,0x24(r1)
     ed0:	85 81 00 28 	l.lwz r12,0x28(r1)
     ed4:	85 a1 00 2c 	l.lwz r13,0x2c(r1)
     ed8:	85 c1 00 30 	l.lwz r14,0x30(r1)
     edc:	85 e1 00 34 	l.lwz r15,0x34(r1)
     ee0:	86 01 00 38 	l.lwz r16,0x38(r1)
     ee4:	86 21 00 3c 	l.lwz r17,0x3c(r1)
     ee8:	86 41 00 40 	l.lwz r18,0x40(r1)
     eec:	86 61 00 44 	l.lwz r19,0x44(r1)
     ef0:	86 81 00 48 	l.lwz r20,0x48(r1)
     ef4:	86 a1 00 4c 	l.lwz r21,0x4c(r1)
     ef8:	86 c1 00 50 	l.lwz r22,0x50(r1)
     efc:	86 e1 00 54 	l.lwz r23,0x54(r1)
     f00:	87 01 00 58 	l.lwz r24,0x58(r1)
     f04:	87 21 00 5c 	l.lwz r25,0x5c(r1)
     f08:	87 41 00 60 	l.lwz r26,0x60(r1)
     f0c:	87 61 00 64 	l.lwz r27,0x64(r1)
     f10:	87 81 00 68 	l.lwz r28,0x68(r1)
     f14:	87 a1 00 6c 	l.lwz r29,0x6c(r1)
     f18:	87 c1 00 70 	l.lwz r30,0x70(r1)
     f1c:	87 e1 00 74 	l.lwz r31,0x74(r1)
     f20:	9c 21 00 78 	l.addi r1,r1,0x78
     f24:	24 00 00 00 	l.rfe 
     f28:	15 00 00 00 	l.nop 0x0

00000f2c <_ResetExecutedInstructions>:
     f2c:	9c 21 ff fc 	l.addi r1,r1,0xfffffffc
     f30:	d4 01 10 00 	l.sw 0x0(r1),r2
     f34:	9c 41 00 04 	l.addi r2,r1,0x4
     f38:	18 60 00 01 	l.movhi r3,0x1
     f3c:	a8 63 6e 78 	l.ori r3,r3,0x6e78
     f40:	84 83 00 00 	l.lwz r4,0x0(r3)
     f44:	18 60 00 01 	l.movhi r3,0x1
     f48:	a8 63 6e 74 	l.ori r3,r3,0x6e74
     f4c:	84 a3 00 00 	l.lwz r5,0x0(r3)
     f50:	9c 60 00 00 	l.addi r3,r0,0x0
     f54:	d4 04 18 00 	l.sw 0x0(r4),r3
     f58:	18 60 00 01 	l.movhi r3,0x1
     f5c:	a8 63 6e 70 	l.ori r3,r3,0x6e70
     f60:	84 83 00 00 	l.lwz r4,0x0(r3)
     f64:	9c 60 00 00 	l.addi r3,r0,0x0
     f68:	d4 05 18 00 	l.sw 0x0(r5),r3
     f6c:	18 60 00 01 	l.movhi r3,0x1
     f70:	a8 63 6e 6c 	l.ori r3,r3,0x6e6c
     f74:	84 a3 00 00 	l.lwz r5,0x0(r3)
     f78:	9c 60 00 00 	l.addi r3,r0,0x0
     f7c:	d4 04 18 00 	l.sw 0x0(r4),r3
     f80:	18 60 00 01 	l.movhi r3,0x1
     f84:	a8 63 6e 68 	l.ori r3,r3,0x6e68
     f88:	84 83 00 00 	l.lwz r4,0x0(r3)
     f8c:	9c 60 00 00 	l.addi r3,r0,0x0
     f90:	d4 05 18 00 	l.sw 0x0(r5),r3
     f94:	18 60 00 01 	l.movhi r3,0x1
     f98:	a8 63 6e 64 	l.ori r3,r3,0x6e64
     f9c:	84 a3 00 00 	l.lwz r5,0x0(r3)
     fa0:	9c 60 00 00 	l.addi r3,r0,0x0
     fa4:	d4 04 18 00 	l.sw 0x0(r4),r3
     fa8:	18 60 00 01 	l.movhi r3,0x1
     fac:	a8 63 6e 60 	l.ori r3,r3,0x6e60
     fb0:	84 83 00 00 	l.lwz r4,0x0(r3)
     fb4:	9c 60 00 00 	l.addi r3,r0,0x0
     fb8:	d4 05 18 00 	l.sw 0x0(r5),r3
     fbc:	18 60 00 01 	l.movhi r3,0x1
     fc0:	a8 63 6e 5c 	l.ori r3,r3,0x6e5c
     fc4:	84 a3 00 00 	l.lwz r5,0x0(r3)
     fc8:	9c 60 00 00 	l.addi r3,r0,0x0
     fcc:	d4 04 18 00 	l.sw 0x0(r4),r3
     fd0:	18 60 00 01 	l.movhi r3,0x1
     fd4:	a8 63 6e 58 	l.ori r3,r3,0x6e58
     fd8:	9c 80 00 00 	l.addi r4,r0,0x0
     fdc:	84 c3 00 00 	l.lwz r6,0x0(r3)
     fe0:	d4 05 20 00 	l.sw 0x0(r5),r4
     fe4:	18 60 00 01 	l.movhi r3,0x1
     fe8:	a8 63 6e 54 	l.ori r3,r3,0x6e54
     fec:	84 83 00 00 	l.lwz r4,0x0(r3)
     ff0:	9c 60 00 00 	l.addi r3,r0,0x0
     ff4:	d4 06 18 00 	l.sw 0x0(r6),r3
     ff8:	18 60 00 01 	l.movhi r3,0x1
     ffc:	a8 63 6e 50 	l.ori r3,r3,0x6e50
    1000:	84 a3 00 00 	l.lwz r5,0x0(r3)
    1004:	9c 60 00 00 	l.addi r3,r0,0x0
    1008:	d4 04 18 00 	l.sw 0x0(r4),r3
    100c:	18 60 00 01 	l.movhi r3,0x1
    1010:	a8 63 6e 4c 	l.ori r3,r3,0x6e4c
    1014:	9c 80 00 00 	l.addi r4,r0,0x0
    1018:	84 63 00 00 	l.lwz r3,0x0(r3)
    101c:	d4 05 20 00 	l.sw 0x0(r5),r4
    1020:	d4 03 20 00 	l.sw 0x0(r3),r4
    1024:	84 41 00 00 	l.lwz r2,0x0(r1)
    1028:	44 00 48 00 	l.jr r9
    102c:	9c 21 00 04 	l.addi r1,r1,0x4

00001030 <_read_class_inst>:
    1030:	9c 21 ff f8 	l.addi r1,r1,0xfffffff8
    1034:	d4 01 10 04 	l.sw 0x4(r1),r2
    1038:	9c 41 00 08 	l.addi r2,r1,0x8
    103c:	d4 01 48 00 	l.sw 0x0(r1),r9
    1040:	18 60 00 01 	l.movhi r3,0x1
    1044:	a8 63 6e 70 	l.ori r3,r3,0x6e70
    1048:	84 83 00 00 	l.lwz r4,0x0(r3)
    104c:	18 60 00 01 	l.movhi r3,0x1
    1050:	a8 63 6e 54 	l.ori r3,r3,0x6e54
    1054:	84 84 00 00 	l.lwz r4,0x0(r4)
    1058:	84 a3 00 00 	l.lwz r5,0x0(r3)
    105c:	18 60 00 01 	l.movhi r3,0x1
    1060:	a8 63 84 64 	l.ori r3,r3,0x8464
    1064:	d4 03 20 00 	l.sw 0x0(r3),r4
    1068:	18 60 00 01 	l.movhi r3,0x1
    106c:	a8 63 6e 74 	l.ori r3,r3,0x6e74
    1070:	84 a5 00 00 	l.lwz r5,0x0(r5)
    1074:	84 83 00 00 	l.lwz r4,0x0(r3)
    1078:	18 60 00 01 	l.movhi r3,0x1
    107c:	a8 63 83 cc 	l.ori r3,r3,0x83cc
    1080:	d4 03 28 00 	l.sw 0x0(r3),r5
    1084:	18 60 00 01 	l.movhi r3,0x1
    1088:	a8 63 6e 6c 	l.ori r3,r3,0x6e6c
    108c:	84 84 00 00 	l.lwz r4,0x0(r4)
    1090:	84 a3 00 00 	l.lwz r5,0x0(r3)
    1094:	18 60 00 01 	l.movhi r3,0x1
    1098:	a8 63 cd 4c 	l.ori r3,r3,0xcd4c
    109c:	d4 03 20 00 	l.sw 0x0(r3),r4
    10a0:	18 60 00 01 	l.movhi r3,0x1
    10a4:	a8 63 6e 68 	l.ori r3,r3,0x6e68
    10a8:	84 a5 00 00 	l.lwz r5,0x0(r5)
    10ac:	84 83 00 00 	l.lwz r4,0x0(r3)
    10b0:	18 60 00 01 	l.movhi r3,0x1
    10b4:	a8 63 83 c8 	l.ori r3,r3,0x83c8
    10b8:	d4 03 28 00 	l.sw 0x0(r3),r5
    10bc:	18 60 00 01 	l.movhi r3,0x1
    10c0:	a8 63 6e 64 	l.ori r3,r3,0x6e64
    10c4:	84 84 00 00 	l.lwz r4,0x0(r4)
    10c8:	84 a3 00 00 	l.lwz r5,0x0(r3)
    10cc:	18 60 00 01 	l.movhi r3,0x1
    10d0:	a8 63 83 c4 	l.ori r3,r3,0x83c4
    10d4:	d4 03 20 00 	l.sw 0x0(r3),r4
    10d8:	18 60 00 01 	l.movhi r3,0x1
    10dc:	a8 63 6e 60 	l.ori r3,r3,0x6e60
    10e0:	84 a5 00 00 	l.lwz r5,0x0(r5)
    10e4:	84 83 00 00 	l.lwz r4,0x0(r3)
    10e8:	18 60 00 01 	l.movhi r3,0x1
    10ec:	a8 63 83 c0 	l.ori r3,r3,0x83c0
    10f0:	d4 03 28 00 	l.sw 0x0(r3),r5
    10f4:	18 60 00 01 	l.movhi r3,0x1
    10f8:	a8 63 6e 5c 	l.ori r3,r3,0x6e5c
    10fc:	84 84 00 00 	l.lwz r4,0x0(r4)
    1100:	84 a3 00 00 	l.lwz r5,0x0(r3)
    1104:	18 60 00 01 	l.movhi r3,0x1
    1108:	a8 63 84 70 	l.ori r3,r3,0x8470
    110c:	d4 03 20 00 	l.sw 0x0(r3),r4
    1110:	18 60 00 01 	l.movhi r3,0x1
    1114:	a8 63 6e 58 	l.ori r3,r3,0x6e58
    1118:	84 a5 00 00 	l.lwz r5,0x0(r5)
    111c:	84 83 00 00 	l.lwz r4,0x0(r3)
    1120:	18 60 00 01 	l.movhi r3,0x1
    1124:	a8 63 7a 50 	l.ori r3,r3,0x7a50
    1128:	d4 03 28 00 	l.sw 0x0(r3),r5
    112c:	18 60 00 01 	l.movhi r3,0x1
    1130:	a8 63 6e 50 	l.ori r3,r3,0x6e50
    1134:	84 84 00 00 	l.lwz r4,0x0(r4)
    1138:	84 a3 00 00 	l.lwz r5,0x0(r3)
    113c:	18 60 00 01 	l.movhi r3,0x1
    1140:	a8 63 79 20 	l.ori r3,r3,0x7920
    1144:	d4 03 20 00 	l.sw 0x0(r3),r4
    1148:	18 60 00 01 	l.movhi r3,0x1
    114c:	a8 63 6e 4c 	l.ori r3,r3,0x6e4c
    1150:	84 a5 00 00 	l.lwz r5,0x0(r5)
    1154:	84 83 00 00 	l.lwz r4,0x0(r3)
    1158:	18 60 00 01 	l.movhi r3,0x1
    115c:	a8 63 cd e0 	l.ori r3,r3,0xcde0
    1160:	d4 03 28 00 	l.sw 0x0(r3),r5
    1164:	84 84 00 00 	l.lwz r4,0x0(r4)
    1168:	18 60 00 01 	l.movhi r3,0x1
    116c:	a8 63 ac b4 	l.ori r3,r3,0xacb4
    1170:	07 ff ff 6f 	l.jal f2c <_ResetExecutedInstructions>
    1174:	d4 03 20 00 	l.sw 0x0(r3),r4
    1178:	85 21 00 00 	l.lwz r9,0x0(r1)
    117c:	84 41 00 04 	l.lwz r2,0x4(r1)
    1180:	44 00 48 00 	l.jr r9
    1184:	9c 21 00 08 	l.addi r1,r1,0x8

00001188 <_estimateNoCActivity>:
    1188:	9c 21 ff f0 	l.addi r1,r1,0xfffffff0
    118c:	d4 01 10 04 	l.sw 0x4(r1),r2
    1190:	9c 41 00 10 	l.addi r2,r1,0x10
    1194:	d4 01 48 00 	l.sw 0x0(r1),r9
    1198:	d4 01 50 08 	l.sw 0x8(r1),r10
    119c:	d4 01 60 0c 	l.sw 0xc(r1),r12
    11a0:	18 60 00 01 	l.movhi r3,0x1
    11a4:	a8 63 6e 44 	l.ori r3,r3,0x6e44
    11a8:	1b e0 00 01 	l.movhi r31,0x1
    11ac:	ab ff 6e 1c 	l.ori r31,r31,0x6e1c
    11b0:	85 e3 00 00 	l.lwz r15,0x0(r3)
    11b4:	1b 60 00 01 	l.movhi r27,0x1
    11b8:	ab 7b 6e 0c 	l.ori r27,r27,0x6e0c
    11bc:	1b 20 00 01 	l.movhi r25,0x1
    11c0:	ab 39 6d ec 	l.ori r25,r25,0x6dec
    11c4:	84 6f 00 00 	l.lwz r3,0x0(r15)
    11c8:	1a a0 00 01 	l.movhi r21,0x1
    11cc:	aa b5 6d dc 	l.ori r21,r21,0x6ddc
    11d0:	1a 60 00 01 	l.movhi r19,0x1
    11d4:	aa 73 6d fc 	l.ori r19,r19,0x6dfc
    11d8:	84 9f 00 00 	l.lwz r4,0x0(r31)
    11dc:	19 80 00 01 	l.movhi r12,0x1
    11e0:	a9 8c 6e 20 	l.ori r12,r12,0x6e20
    11e4:	19 40 00 01 	l.movhi r10,0x1
    11e8:	a9 4a 6e 10 	l.ori r10,r10,0x6e10
    11ec:	e0 a3 20 02 	l.sub r5,r3,r4
    11f0:	1b a0 00 01 	l.movhi r29,0x1
    11f4:	ab bd 6d f0 	l.ori r29,r29,0x6df0
    11f8:	18 60 00 01 	l.movhi r3,0x1
    11fc:	a8 63 6e 3c 	l.ori r3,r3,0x6e3c
    1200:	84 9b 00 00 	l.lwz r4,0x0(r27)
    1204:	1a e0 00 01 	l.movhi r23,0x1
    1208:	aa f7 6d e0 	l.ori r23,r23,0x6de0
    120c:	1a 20 00 01 	l.movhi r17,0x1
    1210:	aa 31 6e 00 	l.ori r17,r17,0x6e00
    1214:	85 23 00 00 	l.lwz r9,0x0(r3)
    1218:	18 60 00 01 	l.movhi r3,0x1
    121c:	a8 63 6e 18 	l.ori r3,r3,0x6e18
    1220:	d4 03 28 00 	l.sw 0x0(r3),r5
    1224:	84 69 00 00 	l.lwz r3,0x0(r9)
    1228:	e0 83 20 02 	l.sub r4,r3,r4
    122c:	18 60 00 01 	l.movhi r3,0x1
    1230:	a8 63 6e 2c 	l.ori r3,r3,0x6e2c
    1234:	e0 a5 20 00 	l.add r5,r5,r4
    1238:	85 03 00 00 	l.lwz r8,0x0(r3)
    123c:	18 60 00 01 	l.movhi r3,0x1
    1240:	a8 63 6e 08 	l.ori r3,r3,0x6e08
    1244:	d4 03 20 00 	l.sw 0x0(r3),r4
    1248:	84 99 00 00 	l.lwz r4,0x0(r25)
    124c:	84 68 00 00 	l.lwz r3,0x0(r8)
    1250:	e0 83 20 02 	l.sub r4,r3,r4
    1254:	18 60 00 01 	l.movhi r3,0x1
    1258:	a8 63 6e 24 	l.ori r3,r3,0x6e24
    125c:	e0 a5 20 00 	l.add r5,r5,r4
    1260:	84 e3 00 00 	l.lwz r7,0x0(r3)
    1264:	18 60 00 01 	l.movhi r3,0x1
    1268:	a8 63 6d e8 	l.ori r3,r3,0x6de8
    126c:	d4 03 20 00 	l.sw 0x0(r3),r4
    1270:	84 95 00 00 	l.lwz r4,0x0(r21)
    1274:	84 67 00 00 	l.lwz r3,0x0(r7)
    1278:	e0 83 20 02 	l.sub r4,r3,r4
    127c:	18 60 00 01 	l.movhi r3,0x1
    1280:	a8 63 6e 34 	l.ori r3,r3,0x6e34
    1284:	e0 a5 20 00 	l.add r5,r5,r4
    1288:	84 c3 00 00 	l.lwz r6,0x0(r3)
    128c:	18 60 00 01 	l.movhi r3,0x1
    1290:	a8 63 6d d8 	l.ori r3,r3,0x6dd8
    1294:	d4 03 20 00 	l.sw 0x0(r3),r4
    1298:	84 93 00 00 	l.lwz r4,0x0(r19)
    129c:	84 66 00 00 	l.lwz r3,0x0(r6)
    12a0:	e0 83 20 02 	l.sub r4,r3,r4
    12a4:	18 60 00 01 	l.movhi r3,0x1
    12a8:	a8 63 6e 48 	l.ori r3,r3,0x6e48
    12ac:	e1 65 20 00 	l.add r11,r5,r4
    12b0:	85 a3 00 00 	l.lwz r13,0x0(r3)
    12b4:	18 60 00 01 	l.movhi r3,0x1
    12b8:	a8 63 6d f8 	l.ori r3,r3,0x6df8
    12bc:	d4 03 20 00 	l.sw 0x0(r3),r4
    12c0:	18 60 00 01 	l.movhi r3,0x1
    12c4:	a8 63 6d d0 	l.ori r3,r3,0x6dd0
    12c8:	84 8c 00 00 	l.lwz r4,0x0(r12)
    12cc:	d4 03 58 00 	l.sw 0x0(r3),r11
    12d0:	85 ef 00 00 	l.lwz r15,0x0(r15)
    12d4:	b8 6b 00 02 	l.slli r3,r11,0x2
    12d8:	d4 1f 78 00 	l.sw 0x0(r31),r15
    12dc:	e1 63 58 00 	l.add r11,r3,r11
    12e0:	85 29 00 00 	l.lwz r9,0x0(r9)
    12e4:	d4 1b 48 00 	l.sw 0x0(r27),r9
    12e8:	85 08 00 00 	l.lwz r8,0x0(r8)
    12ec:	d4 19 40 00 	l.sw 0x0(r25),r8
    12f0:	84 e7 00 00 	l.lwz r7,0x0(r7)
    12f4:	d4 15 38 00 	l.sw 0x0(r21),r7
    12f8:	84 c6 00 00 	l.lwz r6,0x0(r6)
    12fc:	d4 13 30 00 	l.sw 0x0(r19),r6
    1300:	84 6d 00 00 	l.lwz r3,0x0(r13)
    1304:	e0 a3 20 02 	l.sub r5,r3,r4
    1308:	18 60 00 01 	l.movhi r3,0x1
    130c:	a8 63 6e 14 	l.ori r3,r3,0x6e14
    1310:	d4 03 28 00 	l.sw 0x0(r3),r5
    1314:	18 60 00 01 	l.movhi r3,0x1
    1318:	a8 63 6e 40 	l.ori r3,r3,0x6e40
    131c:	84 8a 00 00 	l.lwz r4,0x0(r10)
    1320:	85 23 00 00 	l.lwz r9,0x0(r3)
    1324:	84 69 00 00 	l.lwz r3,0x0(r9)
    1328:	e0 83 20 02 	l.sub r4,r3,r4
    132c:	18 60 00 01 	l.movhi r3,0x1
    1330:	a8 63 6e 30 	l.ori r3,r3,0x6e30
    1334:	e0 a5 20 00 	l.add r5,r5,r4
    1338:	85 03 00 00 	l.lwz r8,0x0(r3)
    133c:	18 60 00 01 	l.movhi r3,0x1
    1340:	a8 63 6e 04 	l.ori r3,r3,0x6e04
    1344:	d4 03 20 00 	l.sw 0x0(r3),r4
    1348:	84 9d 00 00 	l.lwz r4,0x0(r29)
    134c:	84 68 00 00 	l.lwz r3,0x0(r8)
    1350:	e0 83 20 02 	l.sub r4,r3,r4
    1354:	18 60 00 01 	l.movhi r3,0x1
    1358:	a8 63 6e 28 	l.ori r3,r3,0x6e28
    135c:	e0 a5 20 00 	l.add r5,r5,r4
    1360:	84 e3 00 00 	l.lwz r7,0x0(r3)
    1364:	18 60 00 01 	l.movhi r3,0x1
    1368:	a8 63 6d e4 	l.ori r3,r3,0x6de4
    136c:	d4 03 20 00 	l.sw 0x0(r3),r4
    1370:	84 97 00 00 	l.lwz r4,0x0(r23)
    1374:	84 67 00 00 	l.lwz r3,0x0(r7)
    1378:	e0 83 20 02 	l.sub r4,r3,r4
    137c:	18 60 00 01 	l.movhi r3,0x1
    1380:	a8 63 6e 38 	l.ori r3,r3,0x6e38
    1384:	e0 a5 20 00 	l.add r5,r5,r4
    1388:	84 c3 00 00 	l.lwz r6,0x0(r3)
    138c:	18 60 00 01 	l.movhi r3,0x1
    1390:	a8 63 6d d4 	l.ori r3,r3,0x6dd4
    1394:	d4 03 20 00 	l.sw 0x0(r3),r4
    1398:	84 91 00 00 	l.lwz r4,0x0(r17)
    139c:	84 66 00 00 	l.lwz r3,0x0(r6)
    13a0:	e0 83 20 02 	l.sub r4,r3,r4
    13a4:	18 60 00 01 	l.movhi r3,0x1
    13a8:	a8 63 6d f4 	l.ori r3,r3,0x6df4
    13ac:	e0 a5 20 00 	l.add r5,r5,r4
    13b0:	d4 03 20 00 	l.sw 0x0(r3),r4
    13b4:	e1 6b 28 00 	l.add r11,r11,r5
    13b8:	18 60 00 01 	l.movhi r3,0x1
    13bc:	a8 63 6d cc 	l.ori r3,r3,0x6dcc
    13c0:	d4 03 28 00 	l.sw 0x0(r3),r5
    13c4:	85 ad 00 00 	l.lwz r13,0x0(r13)
    13c8:	d4 0c 68 00 	l.sw 0x0(r12),r13
    13cc:	85 29 00 00 	l.lwz r9,0x0(r9)
    13d0:	d4 0a 48 00 	l.sw 0x0(r10),r9
    13d4:	85 08 00 00 	l.lwz r8,0x0(r8)
    13d8:	d4 1d 40 00 	l.sw 0x0(r29),r8
    13dc:	84 e7 00 00 	l.lwz r7,0x0(r7)
    13e0:	d4 17 38 00 	l.sw 0x0(r23),r7
    13e4:	84 c6 00 00 	l.lwz r6,0x0(r6)
    13e8:	d4 11 30 00 	l.sw 0x0(r17),r6
    13ec:	85 21 00 00 	l.lwz r9,0x0(r1)
    13f0:	84 41 00 04 	l.lwz r2,0x4(r1)
    13f4:	85 41 00 08 	l.lwz r10,0x8(r1)
    13f8:	85 81 00 0c 	l.lwz r12,0xc(r1)
    13fc:	44 00 48 00 	l.jr r9
    1400:	9c 21 00 10 	l.addi r1,r1,0x10

00001404 <_getXpos>:
    1404:	9c 21 ff fc 	l.addi r1,r1,0xfffffffc
    1408:	d4 01 10 00 	l.sw 0x0(r1),r2
    140c:	9c 41 00 04 	l.addi r2,r1,0x4
    1410:	a4 63 ff 00 	l.andi r3,r3,0xff00
    1414:	b9 63 00 48 	l.srli r11,r3,0x8
    1418:	84 41 00 00 	l.lwz r2,0x0(r1)
    141c:	44 00 48 00 	l.jr r9
    1420:	9c 21 00 04 	l.addi r1,r1,0x4

00001424 <_getYpos>:
    1424:	9c 21 ff fc 	l.addi r1,r1,0xfffffffc
    1428:	d4 01 10 00 	l.sw 0x0(r1),r2
    142c:	9c 41 00 04 	l.addi r2,r1,0x4
    1430:	a5 63 00 ff 	l.andi r11,r3,0xff
    1434:	84 41 00 00 	l.lwz r2,0x0(r1)
    1438:	44 00 48 00 	l.jr r9
    143c:	9c 21 00 04 	l.addi r1,r1,0x4

00001440 <_getNumberOfPorts>:
    1440:	9c 21 ff f0 	l.addi r1,r1,0xfffffff0
    1444:	d4 01 10 04 	l.sw 0x4(r1),r2
    1448:	9c 41 00 10 	l.addi r2,r1,0x10
    144c:	d4 01 48 00 	l.sw 0x0(r1),r9
    1450:	d4 01 50 08 	l.sw 0x8(r1),r10
    1454:	d4 01 60 0c 	l.sw 0xc(r1),r12
    1458:	07 ff ff eb 	l.jal 1404 <_getXpos>
    145c:	a9 43 00 00 	l.ori r10,r3,0x0
    1460:	a9 8b 00 00 	l.ori r12,r11,0x0
    1464:	07 ff ff f0 	l.jal 1424 <_getYpos>
    1468:	a8 6a 00 00 	l.ori r3,r10,0x0
    146c:	9c 80 00 00 	l.addi r4,r0,0x0
    1470:	e4 2c 20 00 	l.sfne r12,r4
    1474:	10 00 00 03 	l.bf 1480 <_getNumberOfPorts+0x40>
    1478:	bc 2c 00 05 	l.sfnei r12,0x5
    147c:	9c 80 00 01 	l.addi r4,r0,0x1
    1480:	10 00 00 03 	l.bf 148c <_getNumberOfPorts+0x4c>
    1484:	9c 60 00 00 	l.addi r3,r0,0x0
    1488:	9c 60 00 01 	l.addi r3,r0,0x1
    148c:	e0 64 18 04 	l.or r3,r4,r3
    1490:	bc 03 00 00 	l.sfeqi r3,0x0
    1494:	10 00 00 0d 	l.bf 14c8 <_getNumberOfPorts+0x88>
    1498:	9c 80 00 00 	l.addi r4,r0,0x0
    149c:	e4 2b 20 00 	l.sfne r11,r4
    14a0:	0c 00 00 24 	l.bnf 1530 <_getNumberOfPorts+0xf0>
    14a4:	15 00 00 00 	l.nop 0x0
    14a8:	bc 2b 00 05 	l.sfnei r11,0x5
    14ac:	10 00 00 03 	l.bf 14b8 <_getNumberOfPorts+0x78>
    14b0:	9c 60 00 00 	l.addi r3,r0,0x0
    14b4:	9c 60 00 01 	l.addi r3,r0,0x1
    14b8:	e0 64 18 04 	l.or r3,r4,r3
    14bc:	bc 03 00 00 	l.sfeqi r3,0x0
    14c0:	0c 00 00 20 	l.bnf 1540 <_getNumberOfPorts+0x100>
    14c4:	9c 80 00 00 	l.addi r4,r0,0x0
    14c8:	e4 2c 20 00 	l.sfne r12,r4
    14cc:	0c 00 00 17 	l.bnf 1528 <_getNumberOfPorts+0xe8>
    14d0:	15 00 00 00 	l.nop 0x0
    14d4:	bc 2c 00 05 	l.sfnei r12,0x5
    14d8:	10 00 00 03 	l.bf 14e4 <_getNumberOfPorts+0xa4>
    14dc:	9c 60 00 00 	l.addi r3,r0,0x0
    14e0:	9c 60 00 01 	l.addi r3,r0,0x1
    14e4:	e0 64 18 04 	l.or r3,r4,r3
    14e8:	bc 23 00 00 	l.sfnei r3,0x0
    14ec:	10 00 00 0d 	l.bf 1520 <_getNumberOfPorts+0xe0>
    14f0:	9c 80 00 00 	l.addi r4,r0,0x0
    14f4:	e4 2b 20 00 	l.sfne r11,r4
    14f8:	10 00 00 03 	l.bf 1504 <_getNumberOfPorts+0xc4>
    14fc:	bc 2b 00 05 	l.sfnei r11,0x5
    1500:	9c 80 00 01 	l.addi r4,r0,0x1
    1504:	10 00 00 03 	l.bf 1510 <_getNumberOfPorts+0xd0>
    1508:	9c 60 00 00 	l.addi r3,r0,0x0
    150c:	9c 60 00 01 	l.addi r3,r0,0x1
    1510:	e0 64 18 04 	l.or r3,r4,r3
    1514:	bc 23 00 00 	l.sfnei r3,0x0
    1518:	0c 00 00 08 	l.bnf 1538 <_getNumberOfPorts+0xf8>
    151c:	15 00 00 00 	l.nop 0x0
    1520:	00 00 00 09 	l.j 1544 <_getNumberOfPorts+0x104>
    1524:	9d 60 00 04 	l.addi r11,r0,0x4
    1528:	03 ff ff eb 	l.j 14d4 <_getNumberOfPorts+0x94>
    152c:	9c 80 00 01 	l.addi r4,r0,0x1
    1530:	03 ff ff de 	l.j 14a8 <_getNumberOfPorts+0x68>
    1534:	9c 80 00 01 	l.addi r4,r0,0x1
    1538:	00 00 00 03 	l.j 1544 <_getNumberOfPorts+0x104>
    153c:	9d 60 00 05 	l.addi r11,r0,0x5
    1540:	9d 60 00 03 	l.addi r11,r0,0x3
    1544:	85 21 00 00 	l.lwz r9,0x0(r1)
    1548:	84 41 00 04 	l.lwz r2,0x4(r1)
    154c:	85 41 00 08 	l.lwz r10,0x8(r1)
    1550:	85 81 00 0c 	l.lwz r12,0xc(r1)
    1554:	44 00 48 00 	l.jr r9
    1558:	9c 21 00 10 	l.addi r1,r1,0x10

0000155c <_prints>:
    155c:	9c 21 ff fc 	l.addi r1,r1,0xfffffffc
    1560:	d4 01 10 00 	l.sw 0x0(r1),r2
    1564:	9c 41 00 04 	l.addi r2,r1,0x4
    1568:	18 80 00 01 	l.movhi r4,0x1
    156c:	a8 84 6e c4 	l.ori r4,r4,0x6ec4
    1570:	9c c0 00 00 	l.addi r6,r0,0x0
    1574:	84 e4 00 00 	l.lwz r7,0x0(r4)
    1578:	a8 83 00 00 	l.ori r4,r3,0x0
    157c:	90 84 00 00 	l.lbs r4,0x0(r4)
    1580:	9c c6 00 01 	l.addi r6,r6,0x1
    1584:	d4 07 20 00 	l.sw 0x0(r7),r4
    1588:	e0 83 30 00 	l.add r4,r3,r6
    158c:	90 a4 ff ff 	l.lbs r5,0xffffffff(r4)
    1590:	bc 05 00 00 	l.sfeqi r5,0x0
    1594:	0f ff ff fa 	l.bnf 157c <_prints+0x20>
    1598:	15 00 00 00 	l.nop 0x0
    159c:	84 41 00 00 	l.lwz r2,0x0(r1)
    15a0:	44 00 48 00 	l.jr r9
    15a4:	9c 21 00 04 	l.addi r1,r1,0x4

000015a8 <_printi>:
    15a8:	9c 21 ff fc 	l.addi r1,r1,0xfffffffc
    15ac:	d4 01 10 00 	l.sw 0x0(r1),r2
    15b0:	9c 41 00 04 	l.addi r2,r1,0x4
    15b4:	18 80 00 01 	l.movhi r4,0x1
    15b8:	a8 84 6e c0 	l.ori r4,r4,0x6ec0
    15bc:	84 84 00 00 	l.lwz r4,0x0(r4)
    15c0:	d4 04 18 00 	l.sw 0x0(r4),r3
    15c4:	84 41 00 00 	l.lwz r2,0x0(r1)
    15c8:	44 00 48 00 	l.jr r9
    15cc:	9c 21 00 04 	l.addi r1,r1,0x4

000015d0 <_makeAddress>:
    15d0:	9c 21 ff fc 	l.addi r1,r1,0xfffffffc
    15d4:	d4 01 10 00 	l.sw 0x0(r1),r2
    15d8:	9c 41 00 04 	l.addi r2,r1,0x4
    15dc:	b8 63 00 08 	l.slli r3,r3,0x8
    15e0:	e1 63 20 04 	l.or r11,r3,r4
    15e4:	84 41 00 00 	l.lwz r2,0x0(r1)
    15e8:	44 00 48 00 	l.jr r9
    15ec:	9c 21 00 04 	l.addi r1,r1,0x4

000015f0 <_getServiceIndex>:
    15f0:	9c 21 ff fc 	l.addi r1,r1,0xfffffffc
    15f4:	d4 01 10 00 	l.sw 0x0(r1),r2
    15f8:	9c 41 00 04 	l.addi r2,r1,0x4
    15fc:	9d 60 ff ff 	l.addi r11,r0,0xffffffff
    1600:	9c 80 00 00 	l.addi r4,r0,0x0
    1604:	18 a0 00 01 	l.movhi r5,0x1
    1608:	a8 a5 ac c0 	l.ori r5,r5,0xacc0
    160c:	84 65 00 00 	l.lwz r3,0x0(r5)
    1610:	bc 23 ff ff 	l.sfnei r3,0xffffffff
    1614:	10 00 00 03 	l.bf 1620 <_getServiceIndex+0x30>
    1618:	9c a5 08 1c 	l.addi r5,r5,0x81c
    161c:	a9 64 00 00 	l.ori r11,r4,0x0
    1620:	9c 84 00 01 	l.addi r4,r4,0x1
    1624:	bd 44 00 03 	l.sfgtsi r4,0x3
    1628:	0f ff ff f9 	l.bnf 160c <_getServiceIndex+0x1c>
    162c:	bd 6b 00 00 	l.sfgesi r11,0x0
    1630:	0f ff ff f5 	l.bnf 1604 <_getServiceIndex+0x14>
    1634:	9c 80 00 00 	l.addi r4,r0,0x0
    1638:	84 41 00 00 	l.lwz r2,0x0(r1)
    163c:	44 00 48 00 	l.jr r9
    1640:	9c 21 00 04 	l.addi r1,r1,0x4

00001644 <_ReportExecutedInstructions>:
    1644:	9c 21 ff b8 	l.addi r1,r1,0xffffffb8
    1648:	d4 01 10 0c 	l.sw 0xc(r1),r2
    164c:	9c 41 00 48 	l.addi r2,r1,0x48
    1650:	d4 01 48 08 	l.sw 0x8(r1),r9
    1654:	d4 01 50 10 	l.sw 0x10(r1),r10
    1658:	18 60 00 01 	l.movhi r3,0x1
    165c:	a8 63 56 38 	l.ori r3,r3,0x5638
    1660:	9d 42 ff cc 	l.addi r10,r2,0xffffffcc
    1664:	d4 01 18 00 	l.sw 0x0(r1),r3
    1668:	18 60 00 01 	l.movhi r3,0x1
    166c:	a8 63 6e cc 	l.ori r3,r3,0x6ecc
    1670:	84 63 00 00 	l.lwz r3,0x0(r3)
    1674:	84 63 00 00 	l.lwz r3,0x0(r3)
    1678:	d4 01 18 04 	l.sw 0x4(r1),r3
    167c:	04 00 1a 50 	l.jal 7fbc <_sprintf>
    1680:	a8 6a 00 00 	l.ori r3,r10,0x0
    1684:	18 80 00 01 	l.movhi r4,0x1
    1688:	a8 84 56 56 	l.ori r4,r4,0x5656
    168c:	04 00 1a b3 	l.jal 8158 <_fopen>
    1690:	a8 6a 00 00 	l.ori r3,r10,0x0
    1694:	bc 0b 00 00 	l.sfeqi r11,0x0
    1698:	10 00 00 9a 	l.bf 1900 <_ReportExecutedInstructions+0x2bc>
    169c:	a9 4b 00 00 	l.ori r10,r11,0x0
    16a0:	18 60 00 01 	l.movhi r3,0x1
    16a4:	a8 63 56 59 	l.ori r3,r3,0x5659
    16a8:	9c 80 00 01 	l.addi r4,r0,0x1
    16ac:	9c a0 00 3b 	l.addi r5,r0,0x3b
    16b0:	04 00 1a b9 	l.jal 8194 <_fwrite>
    16b4:	a8 cb 00 00 	l.ori r6,r11,0x0
    16b8:	18 60 00 01 	l.movhi r3,0x1
    16bc:	a8 63 56 95 	l.ori r3,r3,0x5695
    16c0:	9c 80 00 01 	l.addi r4,r0,0x1
    16c4:	9c a0 00 3b 	l.addi r5,r0,0x3b
    16c8:	04 00 1a b3 	l.jal 8194 <_fwrite>
    16cc:	a8 ca 00 00 	l.ori r6,r10,0x0
    16d0:	9c a0 00 3b 	l.addi r5,r0,0x3b
    16d4:	a8 ca 00 00 	l.ori r6,r10,0x0
    16d8:	18 60 00 01 	l.movhi r3,0x1
    16dc:	a8 63 56 59 	l.ori r3,r3,0x5659
    16e0:	04 00 1a ad 	l.jal 8194 <_fwrite>
    16e4:	9c 80 00 01 	l.addi r4,r0,0x1
    16e8:	18 60 00 01 	l.movhi r3,0x1
    16ec:	a8 63 56 d1 	l.ori r3,r3,0x56d1
    16f0:	d4 01 18 00 	l.sw 0x0(r1),r3
    16f4:	18 60 00 01 	l.movhi r3,0x1
    16f8:	a8 63 6e 78 	l.ori r3,r3,0x6e78
    16fc:	84 83 00 00 	l.lwz r4,0x0(r3)
    1700:	84 84 00 00 	l.lwz r4,0x0(r4)
    1704:	a8 6a 00 00 	l.ori r3,r10,0x0
    1708:	04 00 1a c7 	l.jal 8224 <_fprintf>
    170c:	d4 01 20 04 	l.sw 0x4(r1),r4
    1710:	18 60 00 01 	l.movhi r3,0x1
    1714:	a8 63 56 f5 	l.ori r3,r3,0x56f5
    1718:	d4 01 18 00 	l.sw 0x0(r1),r3
    171c:	18 60 00 01 	l.movhi r3,0x1
    1720:	a8 63 6e 74 	l.ori r3,r3,0x6e74
    1724:	84 83 00 00 	l.lwz r4,0x0(r3)
    1728:	84 84 00 00 	l.lwz r4,0x0(r4)
    172c:	a8 6a 00 00 	l.ori r3,r10,0x0
    1730:	04 00 1a bd 	l.jal 8224 <_fprintf>
    1734:	d4 01 20 04 	l.sw 0x4(r1),r4
    1738:	18 60 00 01 	l.movhi r3,0x1
    173c:	a8 63 57 04 	l.ori r3,r3,0x5704
    1740:	d4 01 18 00 	l.sw 0x0(r1),r3
    1744:	18 60 00 01 	l.movhi r3,0x1
    1748:	a8 63 6e 70 	l.ori r3,r3,0x6e70
    174c:	84 83 00 00 	l.lwz r4,0x0(r3)
    1750:	84 84 00 00 	l.lwz r4,0x0(r4)
    1754:	a8 6a 00 00 	l.ori r3,r10,0x0
    1758:	04 00 1a b3 	l.jal 8224 <_fprintf>
    175c:	d4 01 20 04 	l.sw 0x4(r1),r4
    1760:	18 60 00 01 	l.movhi r3,0x1
    1764:	a8 63 57 18 	l.ori r3,r3,0x5718
    1768:	d4 01 18 00 	l.sw 0x0(r1),r3
    176c:	18 60 00 01 	l.movhi r3,0x1
    1770:	a8 63 6e 6c 	l.ori r3,r3,0x6e6c
    1774:	84 83 00 00 	l.lwz r4,0x0(r3)
    1778:	84 84 00 00 	l.lwz r4,0x0(r4)
    177c:	a8 6a 00 00 	l.ori r3,r10,0x0
    1780:	04 00 1a a9 	l.jal 8224 <_fprintf>
    1784:	d4 01 20 04 	l.sw 0x4(r1),r4
    1788:	18 60 00 01 	l.movhi r3,0x1
    178c:	a8 63 57 25 	l.ori r3,r3,0x5725
    1790:	d4 01 18 00 	l.sw 0x0(r1),r3
    1794:	18 60 00 01 	l.movhi r3,0x1
    1798:	a8 63 6e 68 	l.ori r3,r3,0x6e68
    179c:	84 83 00 00 	l.lwz r4,0x0(r3)
    17a0:	84 84 00 00 	l.lwz r4,0x0(r4)
    17a4:	a8 6a 00 00 	l.ori r3,r10,0x0
    17a8:	04 00 1a 9f 	l.jal 8224 <_fprintf>
    17ac:	d4 01 20 04 	l.sw 0x4(r1),r4
    17b0:	18 60 00 01 	l.movhi r3,0x1
    17b4:	a8 63 57 32 	l.ori r3,r3,0x5732
    17b8:	d4 01 18 00 	l.sw 0x0(r1),r3
    17bc:	18 60 00 01 	l.movhi r3,0x1
    17c0:	a8 63 6e 64 	l.ori r3,r3,0x6e64
    17c4:	84 83 00 00 	l.lwz r4,0x0(r3)
    17c8:	84 84 00 00 	l.lwz r4,0x0(r4)
    17cc:	a8 6a 00 00 	l.ori r3,r10,0x0
    17d0:	04 00 1a 95 	l.jal 8224 <_fprintf>
    17d4:	d4 01 20 04 	l.sw 0x4(r1),r4
    17d8:	18 60 00 01 	l.movhi r3,0x1
    17dc:	a8 63 57 3f 	l.ori r3,r3,0x573f
    17e0:	d4 01 18 00 	l.sw 0x0(r1),r3
    17e4:	18 60 00 01 	l.movhi r3,0x1
    17e8:	a8 63 6e 60 	l.ori r3,r3,0x6e60
    17ec:	84 83 00 00 	l.lwz r4,0x0(r3)
    17f0:	84 84 00 00 	l.lwz r4,0x0(r4)
    17f4:	a8 6a 00 00 	l.ori r3,r10,0x0
    17f8:	04 00 1a 8b 	l.jal 8224 <_fprintf>
    17fc:	d4 01 20 04 	l.sw 0x4(r1),r4
    1800:	18 60 00 01 	l.movhi r3,0x1
    1804:	a8 63 57 4d 	l.ori r3,r3,0x574d
    1808:	d4 01 18 00 	l.sw 0x0(r1),r3
    180c:	18 60 00 01 	l.movhi r3,0x1
    1810:	a8 63 6e 5c 	l.ori r3,r3,0x6e5c
    1814:	84 83 00 00 	l.lwz r4,0x0(r3)
    1818:	84 84 00 00 	l.lwz r4,0x0(r4)
    181c:	a8 6a 00 00 	l.ori r3,r10,0x0
    1820:	04 00 1a 81 	l.jal 8224 <_fprintf>
    1824:	d4 01 20 04 	l.sw 0x4(r1),r4
    1828:	18 60 00 01 	l.movhi r3,0x1
    182c:	a8 63 57 5b 	l.ori r3,r3,0x575b
    1830:	d4 01 18 00 	l.sw 0x0(r1),r3
    1834:	18 60 00 01 	l.movhi r3,0x1
    1838:	a8 63 6e 58 	l.ori r3,r3,0x6e58
    183c:	84 83 00 00 	l.lwz r4,0x0(r3)
    1840:	84 84 00 00 	l.lwz r4,0x0(r4)
    1844:	a8 6a 00 00 	l.ori r3,r10,0x0
    1848:	04 00 1a 77 	l.jal 8224 <_fprintf>
    184c:	d4 01 20 04 	l.sw 0x4(r1),r4
    1850:	18 60 00 01 	l.movhi r3,0x1
    1854:	a8 63 57 67 	l.ori r3,r3,0x5767
    1858:	d4 01 18 00 	l.sw 0x0(r1),r3
    185c:	18 60 00 01 	l.movhi r3,0x1
    1860:	a8 63 6e 54 	l.ori r3,r3,0x6e54
    1864:	84 83 00 00 	l.lwz r4,0x0(r3)
    1868:	84 84 00 00 	l.lwz r4,0x0(r4)
    186c:	a8 6a 00 00 	l.ori r3,r10,0x0
    1870:	04 00 1a 6d 	l.jal 8224 <_fprintf>
    1874:	d4 01 20 04 	l.sw 0x4(r1),r4
    1878:	18 60 00 01 	l.movhi r3,0x1
    187c:	a8 63 57 76 	l.ori r3,r3,0x5776
    1880:	d4 01 18 00 	l.sw 0x0(r1),r3
    1884:	18 60 00 01 	l.movhi r3,0x1
    1888:	a8 63 6e 50 	l.ori r3,r3,0x6e50
    188c:	84 83 00 00 	l.lwz r4,0x0(r3)
    1890:	84 84 00 00 	l.lwz r4,0x0(r4)
    1894:	a8 6a 00 00 	l.ori r3,r10,0x0
    1898:	04 00 1a 63 	l.jal 8224 <_fprintf>
    189c:	d4 01 20 04 	l.sw 0x4(r1),r4
    18a0:	18 60 00 01 	l.movhi r3,0x1
    18a4:	a8 63 57 9a 	l.ori r3,r3,0x579a
    18a8:	d4 01 18 00 	l.sw 0x0(r1),r3
    18ac:	18 60 00 01 	l.movhi r3,0x1
    18b0:	a8 63 6e 4c 	l.ori r3,r3,0x6e4c
    18b4:	84 83 00 00 	l.lwz r4,0x0(r3)
    18b8:	84 84 00 00 	l.lwz r4,0x0(r4)
    18bc:	a8 6a 00 00 	l.ori r3,r10,0x0
    18c0:	04 00 1a 59 	l.jal 8224 <_fprintf>
    18c4:	d4 01 20 04 	l.sw 0x4(r1),r4
    18c8:	18 60 00 01 	l.movhi r3,0x1
    18cc:	a8 63 56 59 	l.ori r3,r3,0x5659
    18d0:	9c 80 00 01 	l.addi r4,r0,0x1
    18d4:	9c a0 00 3b 	l.addi r5,r0,0x3b
    18d8:	04 00 1a 2f 	l.jal 8194 <_fwrite>
    18dc:	a8 ca 00 00 	l.ori r6,r10,0x0
    18e0:	18 60 00 01 	l.movhi r3,0x1
    18e4:	a8 63 56 59 	l.ori r3,r3,0x5659
    18e8:	9c 80 00 01 	l.addi r4,r0,0x1
    18ec:	9c a0 00 3b 	l.addi r5,r0,0x3b
    18f0:	04 00 1a 29 	l.jal 8194 <_fwrite>
    18f4:	a8 ca 00 00 	l.ori r6,r10,0x0
    18f8:	04 00 1a c0 	l.jal 83f8 <_fclose>
    18fc:	a8 6a 00 00 	l.ori r3,r10,0x0
    1900:	85 21 00 08 	l.lwz r9,0x8(r1)
    1904:	84 41 00 0c 	l.lwz r2,0xc(r1)
    1908:	85 41 00 10 	l.lwz r10,0x10(r1)
    190c:	44 00 48 00 	l.jr r9
    1910:	9c 21 00 48 	l.addi r1,r1,0x48

00001914 <_clear_migration_src>:
    1914:	9c 21 ff fc 	l.addi r1,r1,0xfffffffc
    1918:	d4 01 10 00 	l.sw 0x0(r1),r2
    191c:	9c 41 00 04 	l.addi r2,r1,0x4
    1920:	18 60 00 01 	l.movhi r3,0x1
    1924:	a8 63 6e 90 	l.ori r3,r3,0x6e90
    1928:	9c 80 00 00 	l.addi r4,r0,0x0
    192c:	d4 03 20 00 	l.sw 0x0(r3),r4
    1930:	84 41 00 00 	l.lwz r2,0x0(r1)
    1934:	44 00 48 00 	l.jr r9
    1938:	9c 21 00 04 	l.addi r1,r1,0x4

0000193c <_clear_migration_dst>:
    193c:	9c 21 ff fc 	l.addi r1,r1,0xfffffffc
    1940:	d4 01 10 00 	l.sw 0x0(r1),r2
    1944:	9c 41 00 04 	l.addi r2,r1,0x4
    1948:	18 60 00 01 	l.movhi r3,0x1
    194c:	a8 63 6e 8c 	l.ori r3,r3,0x6e8c
    1950:	9c 80 00 00 	l.addi r4,r0,0x0
    1954:	d4 03 20 00 	l.sw 0x0(r3),r4
    1958:	84 41 00 00 	l.lwz r2,0x0(r1)
    195c:	44 00 48 00 	l.jr r9
    1960:	9c 21 00 04 	l.addi r1,r1,0x4

00001964 <_clear_mapping>:
    1964:	9c 21 ff fc 	l.addi r1,r1,0xfffffffc
    1968:	d4 01 10 00 	l.sw 0x0(r1),r2
    196c:	9c 41 00 04 	l.addi r2,r1,0x4
    1970:	18 60 00 01 	l.movhi r3,0x1
    1974:	a8 63 6e 88 	l.ori r3,r3,0x6e88
    1978:	9c 80 00 00 	l.addi r4,r0,0x0
    197c:	d4 03 20 00 	l.sw 0x0(r3),r4
    1980:	84 41 00 00 	l.lwz r2,0x0(r1)
    1984:	44 00 48 00 	l.jr r9
    1988:	9c 21 00 04 	l.addi r1,r1,0x4

0000198c <_clear_update>:
    198c:	9c 21 ff fc 	l.addi r1,r1,0xfffffffc
    1990:	d4 01 10 00 	l.sw 0x0(r1),r2
    1994:	9c 41 00 04 	l.addi r2,r1,0x4
    1998:	18 60 00 01 	l.movhi r3,0x1
    199c:	a8 63 6e 84 	l.ori r3,r3,0x6e84
    19a0:	9c 80 00 00 	l.addi r4,r0,0x0
    19a4:	d4 03 20 00 	l.sw 0x0(r3),r4
    19a8:	84 41 00 00 	l.lwz r2,0x0(r1)
    19ac:	44 00 48 00 	l.jr r9
    19b0:	9c 21 00 04 	l.addi r1,r1,0x4

000019b4 <_get_migration_src>:
    19b4:	9c 21 ff fc 	l.addi r1,r1,0xfffffffc
    19b8:	d4 01 10 00 	l.sw 0x0(r1),r2
    19bc:	9c 41 00 04 	l.addi r2,r1,0x4
    19c0:	19 60 00 01 	l.movhi r11,0x1
    19c4:	a9 6b 6e 90 	l.ori r11,r11,0x6e90
    19c8:	85 6b 00 00 	l.lwz r11,0x0(r11)
    19cc:	84 41 00 00 	l.lwz r2,0x0(r1)
    19d0:	44 00 48 00 	l.jr r9
    19d4:	9c 21 00 04 	l.addi r1,r1,0x4

000019d8 <_get_migration_dst>:
    19d8:	9c 21 ff fc 	l.addi r1,r1,0xfffffffc
    19dc:	d4 01 10 00 	l.sw 0x0(r1),r2
    19e0:	9c 41 00 04 	l.addi r2,r1,0x4
    19e4:	19 60 00 01 	l.movhi r11,0x1
    19e8:	a9 6b 6e 8c 	l.ori r11,r11,0x6e8c
    19ec:	85 6b 00 00 	l.lwz r11,0x0(r11)
    19f0:	84 41 00 00 	l.lwz r2,0x0(r1)
    19f4:	44 00 48 00 	l.jr r9
    19f8:	9c 21 00 04 	l.addi r1,r1,0x4

000019fc <_get_mapping>:
    19fc:	9c 21 ff fc 	l.addi r1,r1,0xfffffffc
    1a00:	d4 01 10 00 	l.sw 0x0(r1),r2
    1a04:	9c 41 00 04 	l.addi r2,r1,0x4
    1a08:	19 60 00 01 	l.movhi r11,0x1
    1a0c:	a9 6b 6e 88 	l.ori r11,r11,0x6e88
    1a10:	85 6b 00 00 	l.lwz r11,0x0(r11)
    1a14:	84 41 00 00 	l.lwz r2,0x0(r1)
    1a18:	44 00 48 00 	l.jr r9
    1a1c:	9c 21 00 04 	l.addi r1,r1,0x4

00001a20 <_get_update>:
    1a20:	9c 21 ff fc 	l.addi r1,r1,0xfffffffc
    1a24:	d4 01 10 00 	l.sw 0x0(r1),r2
    1a28:	9c 41 00 04 	l.addi r2,r1,0x4
    1a2c:	19 60 00 01 	l.movhi r11,0x1
    1a30:	a9 6b 6e 84 	l.ori r11,r11,0x6e84
    1a34:	85 6b 00 00 	l.lwz r11,0x0(r11)
    1a38:	84 41 00 00 	l.lwz r2,0x0(r1)
    1a3c:	44 00 48 00 	l.jr r9
    1a40:	9c 21 00 04 	l.addi r1,r1,0x4

00001a44 <_get_new_state>:
    1a44:	9c 21 ff fc 	l.addi r1,r1,0xfffffffc
    1a48:	d4 01 10 00 	l.sw 0x0(r1),r2
    1a4c:	9c 41 00 04 	l.addi r2,r1,0x4
    1a50:	19 60 00 01 	l.movhi r11,0x1
    1a54:	a9 6b ac b8 	l.ori r11,r11,0xacb8
    1a58:	85 6b 00 00 	l.lwz r11,0x0(r11)
    1a5c:	84 41 00 00 	l.lwz r2,0x0(r1)
    1a60:	44 00 48 00 	l.jr r9
    1a64:	9c 21 00 04 	l.addi r1,r1,0x4

00001a68 <_putsvsv>:
    1a68:	9c 21 ff ec 	l.addi r1,r1,0xffffffec
    1a6c:	d4 01 10 04 	l.sw 0x4(r1),r2
    1a70:	9c 41 00 14 	l.addi r2,r1,0x14
    1a74:	d4 01 48 00 	l.sw 0x0(r1),r9
    1a78:	d4 01 50 08 	l.sw 0x8(r1),r10
    1a7c:	d4 01 60 0c 	l.sw 0xc(r1),r12
    1a80:	d4 01 70 10 	l.sw 0x10(r1),r14
    1a84:	a9 44 00 00 	l.ori r10,r4,0x0
    1a88:	a9 85 00 00 	l.ori r12,r5,0x0
    1a8c:	07 ff fe b4 	l.jal 155c <_prints>
    1a90:	a9 c6 00 00 	l.ori r14,r6,0x0
    1a94:	07 ff fe c5 	l.jal 15a8 <_printi>
    1a98:	a8 6a 00 00 	l.ori r3,r10,0x0
    1a9c:	07 ff fe b0 	l.jal 155c <_prints>
    1aa0:	a8 6c 00 00 	l.ori r3,r12,0x0
    1aa4:	07 ff fe c1 	l.jal 15a8 <_printi>
    1aa8:	a8 6e 00 00 	l.ori r3,r14,0x0
    1aac:	18 60 00 01 	l.movhi r3,0x1
    1ab0:	a8 63 57 ae 	l.ori r3,r3,0x57ae
    1ab4:	07 ff fe aa 	l.jal 155c <_prints>
    1ab8:	15 00 00 00 	l.nop 0x0
    1abc:	85 21 00 00 	l.lwz r9,0x0(r1)
    1ac0:	84 41 00 04 	l.lwz r2,0x4(r1)
    1ac4:	85 41 00 08 	l.lwz r10,0x8(r1)
    1ac8:	85 81 00 0c 	l.lwz r12,0xc(r1)
    1acc:	85 c1 00 10 	l.lwz r14,0x10(r1)
    1ad0:	44 00 48 00 	l.jr r9
    1ad4:	9c 21 00 14 	l.addi r1,r1,0x14

00001ad8 <_get_mapping_table>:
    1ad8:	9c 21 ff f0 	l.addi r1,r1,0xfffffff0
    1adc:	d4 01 10 04 	l.sw 0x4(r1),r2
    1ae0:	9c 41 00 10 	l.addi r2,r1,0x10
    1ae4:	d4 01 48 00 	l.sw 0x0(r1),r9
    1ae8:	d4 01 50 08 	l.sw 0x8(r1),r10
    1aec:	d4 01 60 0c 	l.sw 0xc(r1),r12
    1af0:	a9 83 00 00 	l.ori r12,r3,0x0
    1af4:	9d 40 00 00 	l.addi r10,r0,0x0
    1af8:	b8 ca 00 02 	l.slli r6,r10,0x2
    1afc:	18 a0 00 01 	l.movhi r5,0x1
    1b00:	a8 a5 83 d0 	l.ori r5,r5,0x83d0
    1b04:	a8 8a 00 00 	l.ori r4,r10,0x0
    1b08:	e0 e6 28 00 	l.add r7,r6,r5
    1b0c:	18 60 00 01 	l.movhi r3,0x1
    1b10:	a8 63 57 b0 	l.ori r3,r3,0x57b0
    1b14:	84 e7 00 00 	l.lwz r7,0x0(r7)
    1b18:	e0 c6 60 00 	l.add r6,r6,r12
    1b1c:	18 a0 00 01 	l.movhi r5,0x1
    1b20:	a8 a5 57 bb 	l.ori r5,r5,0x57bb
    1b24:	d4 06 38 00 	l.sw 0x0(r6),r7
    1b28:	9d 4a 00 01 	l.addi r10,r10,0x1
    1b2c:	07 ff ff cf 	l.jal 1a68 <_putsvsv>
    1b30:	a8 c7 00 00 	l.ori r6,r7,0x0
    1b34:	bd 4a 00 23 	l.sfgtsi r10,0x23
    1b38:	0f ff ff f1 	l.bnf 1afc <_get_mapping_table+0x24>
    1b3c:	b8 ca 00 02 	l.slli r6,r10,0x2
    1b40:	85 21 00 00 	l.lwz r9,0x0(r1)
    1b44:	84 41 00 04 	l.lwz r2,0x4(r1)
    1b48:	85 41 00 08 	l.lwz r10,0x8(r1)
    1b4c:	85 81 00 0c 	l.lwz r12,0xc(r1)
    1b50:	44 00 48 00 	l.jr r9
    1b54:	9c 21 00 10 	l.addi r1,r1,0x10

00001b58 <_get_migration_mapping_table>:
    1b58:	9c 21 ff f0 	l.addi r1,r1,0xfffffff0
    1b5c:	d4 01 10 04 	l.sw 0x4(r1),r2
    1b60:	9c 41 00 10 	l.addi r2,r1,0x10
    1b64:	d4 01 48 00 	l.sw 0x0(r1),r9
    1b68:	d4 01 50 08 	l.sw 0x8(r1),r10
    1b6c:	d4 01 60 0c 	l.sw 0xc(r1),r12
    1b70:	a9 83 00 00 	l.ori r12,r3,0x0
    1b74:	9d 40 00 00 	l.addi r10,r0,0x0
    1b78:	b8 aa 00 02 	l.slli r5,r10,0x2
    1b7c:	19 00 00 01 	l.movhi r8,0x1
    1b80:	a9 08 7b 00 	l.ori r8,r8,0x7b00
    1b84:	19 20 00 01 	l.movhi r9,0x1
    1b88:	a9 29 83 d0 	l.ori r9,r9,0x83d0
    1b8c:	e0 e5 40 00 	l.add r7,r5,r8
    1b90:	e0 c5 60 00 	l.add r6,r5,r12
    1b94:	e1 05 48 00 	l.add r8,r5,r9
    1b98:	a8 8a 00 00 	l.ori r4,r10,0x0
    1b9c:	84 a7 00 00 	l.lwz r5,0x0(r7)
    1ba0:	18 60 00 01 	l.movhi r3,0x1
    1ba4:	a8 63 57 b0 	l.ori r3,r3,0x57b0
    1ba8:	9d 4a 00 01 	l.addi r10,r10,0x1
    1bac:	d4 06 28 00 	l.sw 0x0(r6),r5
    1bb0:	84 e7 00 00 	l.lwz r7,0x0(r7)
    1bb4:	18 a0 00 01 	l.movhi r5,0x1
    1bb8:	a8 a5 57 bb 	l.ori r5,r5,0x57bb
    1bbc:	d4 08 38 00 	l.sw 0x0(r8),r7
    1bc0:	07 ff ff aa 	l.jal 1a68 <_putsvsv>
    1bc4:	84 c6 00 00 	l.lwz r6,0x0(r6)
    1bc8:	bd 4a 00 23 	l.sfgtsi r10,0x23
    1bcc:	0f ff ff ec 	l.bnf 1b7c <_get_migration_mapping_table+0x24>
    1bd0:	b8 aa 00 02 	l.slli r5,r10,0x2
    1bd4:	85 21 00 00 	l.lwz r9,0x0(r1)
    1bd8:	84 41 00 04 	l.lwz r2,0x4(r1)
    1bdc:	85 41 00 08 	l.lwz r10,0x8(r1)
    1be0:	85 81 00 0c 	l.lwz r12,0xc(r1)
    1be4:	44 00 48 00 	l.jr r9
    1be8:	9c 21 00 10 	l.addi r1,r1,0x10

00001bec <_set_taskMigrated>:
    1bec:	9c 21 ff fc 	l.addi r1,r1,0xfffffffc
    1bf0:	d4 01 10 00 	l.sw 0x0(r1),r2
    1bf4:	9c 41 00 04 	l.addi r2,r1,0x4
    1bf8:	18 80 00 01 	l.movhi r4,0x1
    1bfc:	a8 84 6e 98 	l.ori r4,r4,0x6e98
    1c00:	d4 04 18 00 	l.sw 0x0(r4),r3
    1c04:	84 41 00 00 	l.lwz r2,0x0(r1)
    1c08:	44 00 48 00 	l.jr r9
    1c0c:	9c 21 00 04 	l.addi r1,r1,0x4

00001c10 <_putsv>:
    1c10:	9c 21 ff f4 	l.addi r1,r1,0xfffffff4
    1c14:	d4 01 10 04 	l.sw 0x4(r1),r2
    1c18:	9c 41 00 0c 	l.addi r2,r1,0xc
    1c1c:	d4 01 48 00 	l.sw 0x0(r1),r9
    1c20:	d4 01 50 08 	l.sw 0x8(r1),r10
    1c24:	07 ff fe 4e 	l.jal 155c <_prints>
    1c28:	a9 44 00 00 	l.ori r10,r4,0x0
    1c2c:	07 ff fe 5f 	l.jal 15a8 <_printi>
    1c30:	a8 6a 00 00 	l.ori r3,r10,0x0
    1c34:	18 60 00 01 	l.movhi r3,0x1
    1c38:	a8 63 57 ae 	l.ori r3,r3,0x57ae
    1c3c:	07 ff fe 48 	l.jal 155c <_prints>
    1c40:	15 00 00 00 	l.nop 0x0
    1c44:	85 21 00 00 	l.lwz r9,0x0(r1)
    1c48:	84 41 00 04 	l.lwz r2,0x4(r1)
    1c4c:	85 41 00 08 	l.lwz r10,0x8(r1)
    1c50:	44 00 48 00 	l.jr r9
    1c54:	9c 21 00 0c 	l.addi r1,r1,0xc

00001c58 <_getEmptyIndex>:
    1c58:	9c 21 ff fc 	l.addi r1,r1,0xfffffffc
    1c5c:	d4 01 10 00 	l.sw 0x0(r1),r2
    1c60:	9c 41 00 04 	l.addi r2,r1,0x4
    1c64:	9d 60 ff ff 	l.addi r11,r0,0xffffffff
    1c68:	9c 80 00 00 	l.addi r4,r0,0x0
    1c6c:	a8 cb 00 00 	l.ori r6,r11,0x0
    1c70:	b8 64 00 02 	l.slli r3,r4,0x2
    1c74:	18 e0 00 01 	l.movhi r7,0x1
    1c78:	a8 e7 84 80 	l.ori r7,r7,0x8480
    1c7c:	e0 a3 38 00 	l.add r5,r3,r7
    1c80:	18 e0 00 01 	l.movhi r7,0x1
    1c84:	a8 e7 7a 60 	l.ori r7,r7,0x7a60
    1c88:	e0 63 38 00 	l.add r3,r3,r7
    1c8c:	84 63 00 00 	l.lwz r3,0x0(r3)
    1c90:	bc 23 00 00 	l.sfnei r3,0x0
    1c94:	10 00 00 08 	l.bf 1cb4 <_getEmptyIndex+0x5c>
    1c98:	15 00 00 00 	l.nop 0x0
    1c9c:	84 65 00 00 	l.lwz r3,0x0(r5)
    1ca0:	e4 43 30 00 	l.sfgtu r3,r6
    1ca4:	10 00 00 04 	l.bf 1cb4 <_getEmptyIndex+0x5c>
    1ca8:	15 00 00 00 	l.nop 0x0
    1cac:	a8 c3 00 00 	l.ori r6,r3,0x0
    1cb0:	a9 64 00 00 	l.ori r11,r4,0x0
    1cb4:	9c 84 00 01 	l.addi r4,r4,0x1
    1cb8:	bd 44 00 03 	l.sfgtsi r4,0x3
    1cbc:	0f ff ff ee 	l.bnf 1c74 <_getEmptyIndex+0x1c>
    1cc0:	b8 64 00 02 	l.slli r3,r4,0x2
    1cc4:	84 41 00 00 	l.lwz r2,0x0(r1)
    1cc8:	44 00 48 00 	l.jr r9
    1ccc:	9c 21 00 04 	l.addi r1,r1,0x4

00001cd0 <_bufferPush>:
    1cd0:	9c 21 ff fc 	l.addi r1,r1,0xfffffffc
    1cd4:	d4 01 10 00 	l.sw 0x0(r1),r2
    1cd8:	9c 41 00 04 	l.addi r2,r1,0x4
    1cdc:	b8 63 00 02 	l.slli r3,r3,0x2
    1ce0:	18 80 00 01 	l.movhi r4,0x1
    1ce4:	a8 84 7a 60 	l.ori r4,r4,0x7a60
    1ce8:	e0 63 20 00 	l.add r3,r3,r4
    1cec:	9c 80 00 01 	l.addi r4,r0,0x1
    1cf0:	d4 03 20 00 	l.sw 0x0(r3),r4
    1cf4:	84 41 00 00 	l.lwz r2,0x0(r1)
    1cf8:	44 00 48 00 	l.jr r9
    1cfc:	9c 21 00 04 	l.addi r1,r1,0x4

00001d00 <_addSendAfterTX>:
    1d00:	9c 21 ff fc 	l.addi r1,r1,0xfffffffc
    1d04:	d4 01 10 00 	l.sw 0x0(r1),r2
    1d08:	9c 41 00 04 	l.addi r2,r1,0x4
    1d0c:	9c a0 00 00 	l.addi r5,r0,0x0
    1d10:	18 c0 00 01 	l.movhi r6,0x1
    1d14:	a8 c6 83 b0 	l.ori r6,r6,0x83b0
    1d18:	84 86 00 00 	l.lwz r4,0x0(r6)
    1d1c:	bc 24 ff ff 	l.sfnei r4,0xffffffff
    1d20:	0c 00 00 07 	l.bnf 1d3c <_addSendAfterTX+0x3c>
    1d24:	9c a5 00 01 	l.addi r5,r5,0x1
    1d28:	bd 45 00 03 	l.sfgtsi r5,0x3
    1d2c:	0f ff ff fb 	l.bnf 1d18 <_addSendAfterTX+0x18>
    1d30:	9c c6 00 04 	l.addi r6,r6,0x4
    1d34:	00 00 00 03 	l.j 1d40 <_addSendAfterTX+0x40>
    1d38:	15 00 00 00 	l.nop 0x0
    1d3c:	d4 06 18 00 	l.sw 0x0(r6),r3
    1d40:	84 41 00 00 	l.lwz r2,0x0(r1)
    1d44:	44 00 48 00 	l.jr r9
    1d48:	9c 21 00 04 	l.addi r1,r1,0x4

00001d4c <_popSendAfterTX>:
    1d4c:	9c 21 ff fc 	l.addi r1,r1,0xfffffffc
    1d50:	d4 01 10 00 	l.sw 0x0(r1),r2
    1d54:	9c 41 00 04 	l.addi r2,r1,0x4
    1d58:	18 80 00 01 	l.movhi r4,0x1
    1d5c:	a8 84 83 b0 	l.ori r4,r4,0x83b0
    1d60:	9c 60 00 00 	l.addi r3,r0,0x0
    1d64:	bc 23 00 03 	l.sfnei r3,0x3
    1d68:	0c 00 00 03 	l.bnf 1d74 <_popSendAfterTX+0x28>
    1d6c:	9c a0 ff ff 	l.addi r5,r0,0xffffffff
    1d70:	84 a4 00 04 	l.lwz r5,0x4(r4)
    1d74:	d4 04 28 00 	l.sw 0x0(r4),r5
    1d78:	9c 63 00 01 	l.addi r3,r3,0x1
    1d7c:	bd 43 00 03 	l.sfgtsi r3,0x3
    1d80:	0f ff ff f9 	l.bnf 1d64 <_popSendAfterTX+0x18>
    1d84:	9c 84 00 04 	l.addi r4,r4,0x4
    1d88:	84 41 00 00 	l.lwz r2,0x0(r1)
    1d8c:	44 00 48 00 	l.jr r9
    1d90:	9c 21 00 04 	l.addi r1,r1,0x4

00001d94 <_bufferPop>:
    1d94:	9c 21 ff fc 	l.addi r1,r1,0xfffffffc
    1d98:	d4 01 10 00 	l.sw 0x0(r1),r2
    1d9c:	9c 41 00 04 	l.addi r2,r1,0x4
    1da0:	b8 63 00 02 	l.slli r3,r3,0x2
    1da4:	18 a0 00 01 	l.movhi r5,0x1
    1da8:	a8 a5 84 80 	l.ori r5,r5,0x8480
    1dac:	18 c0 00 01 	l.movhi r6,0x1
    1db0:	a8 c6 7a 60 	l.ori r6,r6,0x7a60
    1db4:	e0 83 28 00 	l.add r4,r3,r5
    1db8:	e0 63 30 00 	l.add r3,r3,r6
    1dbc:	84 a4 00 00 	l.lwz r5,0x0(r4)
    1dc0:	9c c0 00 00 	l.addi r6,r0,0x0
    1dc4:	d4 03 30 00 	l.sw 0x0(r3),r6
    1dc8:	9c 65 00 01 	l.addi r3,r5,0x1
    1dcc:	d4 04 18 00 	l.sw 0x0(r4),r3
    1dd0:	84 41 00 00 	l.lwz r2,0x0(r1)
    1dd4:	44 00 48 00 	l.jr r9
    1dd8:	9c 21 00 04 	l.addi r1,r1,0x4

00001ddc <_enable_interruptions>:
    1ddc:	9c 21 ff fc 	l.addi r1,r1,0xfffffffc
    1de0:	d4 01 10 00 	l.sw 0x0(r1),r2
    1de4:	9c 41 00 04 	l.addi r2,r1,0x4
    1de8:	9c 80 00 11 	l.addi r4,r0,0x11
    1dec:	b4 64 00 00 	l.mfspr r3,r4,0x0
    1df0:	a8 63 00 04 	l.ori r3,r3,0x4
    1df4:	c0 04 18 00 	l.mtspr r4,r3,0x0
    1df8:	84 41 00 00 	l.lwz r2,0x0(r1)
    1dfc:	44 00 48 00 	l.jr r9
    1e00:	9c 21 00 04 	l.addi r1,r1,0x4

00001e04 <_OVP_init>:
    1e04:	9c 21 ff e8 	l.addi r1,r1,0xffffffe8
    1e08:	d4 01 10 0c 	l.sw 0xc(r1),r2
    1e0c:	9c 41 00 18 	l.addi r2,r1,0x18
    1e10:	d4 01 48 08 	l.sw 0x8(r1),r9
    1e14:	d4 01 50 10 	l.sw 0x10(r1),r10
    1e18:	d4 01 60 14 	l.sw 0x14(r1),r12
    1e1c:	04 00 15 c7 	l.jal 7538 <_int_init>
    1e20:	15 00 00 00 	l.nop 0x0
    1e24:	9c 60 00 00 	l.addi r3,r0,0x0
    1e28:	18 80 00 00 	l.movhi r4,0x0
    1e2c:	a8 84 3e 0c 	l.ori r4,r4,0x3e0c
    1e30:	19 80 00 01 	l.movhi r12,0x1
    1e34:	a9 8c 6e cc 	l.ori r12,r12,0x6ecc
    1e38:	04 00 15 ff 	l.jal 7634 <_int_add>
    1e3c:	a8 a3 00 00 	l.ori r5,r3,0x0
    1e40:	9c 60 00 01 	l.addi r3,r0,0x1
    1e44:	18 80 00 00 	l.movhi r4,0x0
    1e48:	a8 84 2b d8 	l.ori r4,r4,0x2bd8
    1e4c:	04 00 15 fa 	l.jal 7634 <_int_add>
    1e50:	9c a0 00 00 	l.addi r5,r0,0x0
    1e54:	18 80 00 00 	l.movhi r4,0x0
    1e58:	a8 84 2e 44 	l.ori r4,r4,0x2e44
    1e5c:	9c a0 00 00 	l.addi r5,r0,0x0
    1e60:	04 00 15 f5 	l.jal 7634 <_int_add>
    1e64:	9c 60 00 02 	l.addi r3,r0,0x2
    1e68:	04 00 16 85 	l.jal 787c <_int_enable>
    1e6c:	9c 60 00 00 	l.addi r3,r0,0x0
    1e70:	04 00 16 83 	l.jal 787c <_int_enable>
    1e74:	9c 60 00 01 	l.addi r3,r0,0x1
    1e78:	04 00 16 81 	l.jal 787c <_int_enable>
    1e7c:	9c 60 00 02 	l.addi r3,r0,0x2
    1e80:	07 ff ff d7 	l.jal 1ddc <_enable_interruptions>
    1e84:	15 00 00 00 	l.nop 0x0
    1e88:	18 60 00 01 	l.movhi r3,0x1
    1e8c:	a8 63 6d a8 	l.ori r3,r3,0x6da8
    1e90:	9c 80 03 e8 	l.addi r4,r0,0x3e8
    1e94:	84 63 00 00 	l.lwz r3,0x0(r3)
    1e98:	9c a0 00 00 	l.addi r5,r0,0x0
    1e9c:	d4 03 20 00 	l.sw 0x0(r3),r4
    1ea0:	85 4c 00 00 	l.lwz r10,0x0(r12)
    1ea4:	18 60 00 01 	l.movhi r3,0x1
    1ea8:	a8 63 6e 80 	l.ori r3,r3,0x6e80
    1eac:	d4 03 28 00 	l.sw 0x0(r3),r5
    1eb0:	04 00 17 47 	l.jal 7bcc <_impProcessorId>
    1eb4:	15 00 00 00 	l.nop 0x0
    1eb8:	84 6c 00 00 	l.lwz r3,0x0(r12)
    1ebc:	18 e0 00 01 	l.movhi r7,0x1
    1ec0:	a8 e7 57 c0 	l.ori r7,r7,0x57c0
    1ec4:	d4 0a 58 00 	l.sw 0x0(r10),r11
    1ec8:	d4 01 38 00 	l.sw 0x0(r1),r7
    1ecc:	84 63 00 00 	l.lwz r3,0x0(r3)
    1ed0:	04 00 19 63 	l.jal 845c <_printf>
    1ed4:	d4 01 18 04 	l.sw 0x4(r1),r3
    1ed8:	18 60 00 01 	l.movhi r3,0x1
    1edc:	a8 63 6e b4 	l.ori r3,r3,0x6eb4
    1ee0:	18 80 00 01 	l.movhi r4,0x1
    1ee4:	a8 84 84 90 	l.ori r4,r4,0x8490
    1ee8:	84 63 00 00 	l.lwz r3,0x0(r3)
    1eec:	18 e0 00 01 	l.movhi r7,0x1
    1ef0:	a8 e7 6e a4 	l.ori r7,r7,0x6ea4
    1ef4:	9c c0 00 00 	l.addi r6,r0,0x0
    1ef8:	d4 03 20 00 	l.sw 0x0(r3),r4
    1efc:	18 a0 00 01 	l.movhi r5,0x1
    1f00:	a8 a5 ac c0 	l.ori r5,r5,0xacc0
    1f04:	d4 03 38 00 	l.sw 0x0(r3),r7
    1f08:	9c 80 ff ff 	l.addi r4,r0,0xffffffff
    1f0c:	b8 66 00 02 	l.slli r3,r6,0x2
    1f10:	d4 05 20 00 	l.sw 0x0(r5),r4
    1f14:	18 e0 00 01 	l.movhi r7,0x1
    1f18:	a8 e7 83 b0 	l.ori r7,r7,0x83b0
    1f1c:	9c c6 00 01 	l.addi r6,r6,0x1
    1f20:	e0 83 38 00 	l.add r4,r3,r7
    1f24:	9c a5 08 1c 	l.addi r5,r5,0x81c
    1f28:	18 e0 00 01 	l.movhi r7,0x1
    1f2c:	a8 e7 7a 60 	l.ori r7,r7,0x7a60
    1f30:	bd 46 00 03 	l.sfgtsi r6,0x3
    1f34:	e0 63 38 00 	l.add r3,r3,r7
    1f38:	9c e0 ff ff 	l.addi r7,r0,0xffffffff
    1f3c:	d4 04 38 00 	l.sw 0x0(r4),r7
    1f40:	9c 80 00 00 	l.addi r4,r0,0x0
    1f44:	0f ff ff f1 	l.bnf 1f08 <_OVP_init+0x104>
    1f48:	d4 03 20 00 	l.sw 0x0(r3),r4
    1f4c:	a8 c4 00 00 	l.ori r6,r4,0x0
    1f50:	b8 66 00 02 	l.slli r3,r6,0x2
    1f54:	18 a0 00 01 	l.movhi r5,0x1
    1f58:	a8 a5 cd 50 	l.ori r5,r5,0xcd50
    1f5c:	18 e0 00 01 	l.movhi r7,0x1
    1f60:	a8 e7 83 d0 	l.ori r7,r7,0x83d0
    1f64:	e0 83 28 00 	l.add r4,r3,r5
    1f68:	9c c6 00 01 	l.addi r6,r6,0x1
    1f6c:	e0 a3 38 00 	l.add r5,r3,r7
    1f70:	bd 46 00 23 	l.sfgtsi r6,0x23
    1f74:	9c e0 00 00 	l.addi r7,r0,0x0
    1f78:	d4 04 38 00 	l.sw 0x0(r4),r7
    1f7c:	18 80 00 01 	l.movhi r4,0x1
    1f80:	a8 84 79 c0 	l.ori r4,r4,0x79c0
    1f84:	d4 05 38 00 	l.sw 0x0(r5),r7
    1f88:	e0 63 20 00 	l.add r3,r3,r4
    1f8c:	d4 03 38 00 	l.sw 0x0(r3),r7
    1f90:	0f ff ff f1 	l.bnf 1f54 <_OVP_init+0x150>
    1f94:	b8 66 00 02 	l.slli r3,r6,0x2
    1f98:	9c a0 ff ff 	l.addi r5,r0,0xffffffff
    1f9c:	18 60 00 01 	l.movhi r3,0x1
    1fa0:	a8 63 6e 98 	l.ori r3,r3,0x6e98
    1fa4:	85 4c 00 00 	l.lwz r10,0x0(r12)
    1fa8:	d4 03 28 00 	l.sw 0x0(r3),r5
    1fac:	84 6a 00 00 	l.lwz r3,0x0(r10)
    1fb0:	07 ff fd 15 	l.jal 1404 <_getXpos>
    1fb4:	15 00 00 00 	l.nop 0x0
    1fb8:	18 60 00 01 	l.movhi r3,0x1
    1fbc:	a8 63 6e c4 	l.ori r3,r3,0x6ec4
    1fc0:	85 83 00 00 	l.lwz r12,0x0(r3)
    1fc4:	d4 0c 58 00 	l.sw 0x0(r12),r11
    1fc8:	84 6a 00 00 	l.lwz r3,0x0(r10)
    1fcc:	07 ff fd 16 	l.jal 1424 <_getYpos>
    1fd0:	15 00 00 00 	l.nop 0x0
    1fd4:	18 60 00 01 	l.movhi r3,0x1
    1fd8:	a8 63 6e c8 	l.ori r3,r3,0x6ec8
    1fdc:	d4 0c 58 00 	l.sw 0x0(r12),r11
    1fe0:	84 83 00 00 	l.lwz r4,0x0(r3)
    1fe4:	9c e0 03 e8 	l.addi r7,r0,0x3e8
    1fe8:	18 60 00 01 	l.movhi r3,0x1
    1fec:	a8 63 6e bc 	l.ori r3,r3,0x6ebc
    1ff0:	d4 04 38 00 	l.sw 0x0(r4),r7
    1ff4:	84 a3 00 00 	l.lwz r5,0x0(r3)
    1ff8:	18 60 00 01 	l.movhi r3,0x1
    1ffc:	a8 63 6e b8 	l.ori r3,r3,0x6eb8
    2000:	84 83 00 00 	l.lwz r4,0x0(r3)
    2004:	9c 60 00 00 	l.addi r3,r0,0x0
    2008:	d4 05 18 00 	l.sw 0x0(r5),r3
    200c:	84 64 00 00 	l.lwz r3,0x0(r4)
    2010:	bc 03 00 24 	l.sfeqi r3,0x24
    2014:	0f ff ff fe 	l.bnf 200c <_OVP_init+0x208>
    2018:	15 00 00 00 	l.nop 0x0
    201c:	04 00 19 1f 	l.jal 8498 <_clock>
    2020:	15 00 00 00 	l.nop 0x0
    2024:	18 60 00 01 	l.movhi r3,0x1
    2028:	a8 63 ac b0 	l.ori r3,r3,0xacb0
    202c:	d4 03 58 00 	l.sw 0x0(r3),r11
    2030:	18 60 00 01 	l.movhi r3,0x1
    2034:	a8 63 6d c8 	l.ori r3,r3,0x6dc8
    2038:	07 ff fb bd 	l.jal f2c <_ResetExecutedInstructions>
    203c:	d4 03 58 00 	l.sw 0x0(r3),r11
    2040:	85 21 00 08 	l.lwz r9,0x8(r1)
    2044:	84 41 00 0c 	l.lwz r2,0xc(r1)
    2048:	85 41 00 10 	l.lwz r10,0x10(r1)
    204c:	85 81 00 14 	l.lwz r12,0x14(r1)
    2050:	44 00 48 00 	l.jr r9
    2054:	9c 21 00 18 	l.addi r1,r1,0x18

00002058 <_ReceiveRaw>:
    2058:	9c 21 ff f4 	l.addi r1,r1,0xfffffff4
    205c:	d4 01 10 04 	l.sw 0x4(r1),r2
    2060:	9c 41 00 0c 	l.addi r2,r1,0xc
    2064:	d4 01 48 00 	l.sw 0x0(r1),r9
    2068:	d4 01 50 08 	l.sw 0x8(r1),r10
    206c:	18 80 00 01 	l.movhi r4,0x1
    2070:	a8 84 84 6c 	l.ori r4,r4,0x846c
    2074:	19 40 00 01 	l.movhi r10,0x1
    2078:	a9 4a 84 60 	l.ori r10,r10,0x8460
    207c:	07 ff fd 4b 	l.jal 15a8 <_printi>
    2080:	d4 04 18 00 	l.sw 0x0(r4),r3
    2084:	9c 60 00 00 	l.addi r3,r0,0x0
    2088:	18 80 00 01 	l.movhi r4,0x1
    208c:	a8 84 6e a0 	l.ori r4,r4,0x6ea0
    2090:	d4 0a 18 00 	l.sw 0x0(r10),r3
    2094:	9c a0 00 01 	l.addi r5,r0,0x1
    2098:	9c 60 00 02 	l.addi r3,r0,0x2
    209c:	d4 04 28 00 	l.sw 0x0(r4),r5
    20a0:	04 00 15 f7 	l.jal 787c <_int_enable>
    20a4:	15 00 00 00 	l.nop 0x0
    20a8:	18 80 00 01 	l.movhi r4,0x1
    20ac:	a8 84 6d ac 	l.ori r4,r4,0x6dac
    20b0:	9c a0 00 01 	l.addi r5,r0,0x1
    20b4:	84 64 00 00 	l.lwz r3,0x0(r4)
    20b8:	d4 03 28 00 	l.sw 0x0(r3),r5
    20bc:	84 6a 00 00 	l.lwz r3,0x0(r10)
    20c0:	bc 23 00 00 	l.sfnei r3,0x0
    20c4:	0f ff ff fe 	l.bnf 20bc <_ReceiveRaw+0x64>
    20c8:	15 00 00 00 	l.nop 0x0
    20cc:	84 64 00 00 	l.lwz r3,0x0(r4)
    20d0:	9c 80 00 00 	l.addi r4,r0,0x0
    20d4:	d4 03 20 00 	l.sw 0x0(r3),r4
    20d8:	85 21 00 00 	l.lwz r9,0x0(r1)
    20dc:	84 41 00 04 	l.lwz r2,0x4(r1)
    20e0:	85 41 00 08 	l.lwz r10,0x8(r1)
    20e4:	44 00 48 00 	l.jr r9
    20e8:	9c 21 00 0c 	l.addi r1,r1,0xc

000020ec <_getAddress>:
    20ec:	9c 21 ff f4 	l.addi r1,r1,0xfffffff4
    20f0:	d4 01 10 04 	l.sw 0x4(r1),r2
    20f4:	9c 41 00 0c 	l.addi r2,r1,0xc
    20f8:	d4 01 48 00 	l.sw 0x0(r1),r9
    20fc:	d4 01 50 08 	l.sw 0x8(r1),r10
    2100:	a9 43 00 00 	l.ori r10,r3,0x0
    2104:	04 00 17 3d 	l.jal 7df8 <___udivsi3>
    2108:	9c 80 00 06 	l.addi r4,r0,0x6
    210c:	b8 6b 00 02 	l.slli r3,r11,0x2
    2110:	a8 8b 00 00 	l.ori r4,r11,0x0
    2114:	e0 63 58 00 	l.add r3,r3,r11
    2118:	e1 63 58 00 	l.add r11,r3,r11
    211c:	07 ff fd 2d 	l.jal 15d0 <_makeAddress>
    2120:	e0 6a 58 02 	l.sub r3,r10,r11
    2124:	85 21 00 00 	l.lwz r9,0x0(r1)
    2128:	84 41 00 04 	l.lwz r2,0x4(r1)
    212c:	85 41 00 08 	l.lwz r10,0x8(r1)
    2130:	44 00 48 00 	l.jr r9
    2134:	9c 21 00 0c 	l.addi r1,r1,0xc

00002138 <_checkPendingReq>:
    2138:	9c 21 ff fc 	l.addi r1,r1,0xfffffffc
    213c:	d4 01 10 00 	l.sw 0x0(r1),r2
    2140:	9c 41 00 04 	l.addi r2,r1,0x4
    2144:	b8 63 00 02 	l.slli r3,r3,0x2
    2148:	18 80 00 01 	l.movhi r4,0x1
    214c:	a8 84 cd 50 	l.ori r4,r4,0xcd50
    2150:	e0 63 20 00 	l.add r3,r3,r4
    2154:	85 63 00 00 	l.lwz r11,0x0(r3)
    2158:	84 41 00 00 	l.lwz r2,0x0(r1)
    215c:	44 00 48 00 	l.jr r9
    2160:	9c 21 00 04 	l.addi r1,r1,0x4

00002164 <_getID>:
    2164:	9c 21 ff f0 	l.addi r1,r1,0xfffffff0
    2168:	d4 01 10 04 	l.sw 0x4(r1),r2
    216c:	9c 41 00 10 	l.addi r2,r1,0x10
    2170:	d4 01 48 00 	l.sw 0x0(r1),r9
    2174:	d4 01 50 08 	l.sw 0x8(r1),r10
    2178:	d4 01 60 0c 	l.sw 0xc(r1),r12
    217c:	07 ff fc a2 	l.jal 1404 <_getXpos>
    2180:	a9 43 00 00 	l.ori r10,r3,0x0
    2184:	a9 8b 00 00 	l.ori r12,r11,0x0
    2188:	07 ff fc a7 	l.jal 1424 <_getYpos>
    218c:	a8 6a 00 00 	l.ori r3,r10,0x0
    2190:	b8 6b 00 02 	l.slli r3,r11,0x2
    2194:	e0 63 58 00 	l.add r3,r3,r11
    2198:	e1 63 58 00 	l.add r11,r3,r11
    219c:	e1 6b 60 00 	l.add r11,r11,r12
    21a0:	85 21 00 00 	l.lwz r9,0x0(r1)
    21a4:	84 41 00 04 	l.lwz r2,0x4(r1)
    21a8:	85 41 00 08 	l.lwz r10,0x8(r1)
    21ac:	85 81 00 0c 	l.lwz r12,0xc(r1)
    21b0:	44 00 48 00 	l.jr r9
    21b4:	9c 21 00 10 	l.addi r1,r1,0x10

000021b8 <_disable_interruption>:
    21b8:	9c 21 ff fc 	l.addi r1,r1,0xfffffffc
    21bc:	d4 01 10 00 	l.sw 0x0(r1),r2
    21c0:	9c 41 00 04 	l.addi r2,r1,0x4
    21c4:	9c 80 00 01 	l.addi r4,r0,0x1
    21c8:	9c a0 48 00 	l.addi r5,r0,0x4800
    21cc:	e0 64 18 08 	l.sll r3,r4,r3
    21d0:	ac 83 ff ff 	l.xori r4,r3,0xffffffff
    21d4:	b4 65 00 00 	l.mfspr r3,r5,0x0
    21d8:	e0 63 20 03 	l.and r3,r3,r4
    21dc:	c0 05 18 00 	l.mtspr r5,r3,0x0
    21e0:	84 41 00 00 	l.lwz r2,0x0(r1)
    21e4:	44 00 48 00 	l.jr r9
    21e8:	9c 21 00 04 	l.addi r1,r1,0x4

000021ec <_SendRaw>:
    21ec:	9c 21 ff fc 	l.addi r1,r1,0xfffffffc
    21f0:	d4 01 10 00 	l.sw 0x0(r1),r2
    21f4:	9c 41 00 04 	l.addi r2,r1,0x4
    21f8:	18 80 00 01 	l.movhi r4,0x1
    21fc:	a8 84 6e b4 	l.ori r4,r4,0x6eb4
    2200:	84 a4 00 00 	l.lwz r5,0x0(r4)
    2204:	18 80 00 01 	l.movhi r4,0x1
    2208:	a8 84 6e b0 	l.ori r4,r4,0x6eb0
    220c:	d4 05 18 00 	l.sw 0x0(r5),r3
    2210:	84 84 00 00 	l.lwz r4,0x0(r4)
    2214:	9c 60 22 22 	l.addi r3,r0,0x2222
    2218:	d4 04 18 00 	l.sw 0x0(r4),r3
    221c:	84 41 00 00 	l.lwz r2,0x0(r1)
    2220:	44 00 48 00 	l.jr r9
    2224:	9c 21 00 04 	l.addi r1,r1,0x4

00002228 <_enable_interruption>:
    2228:	9c 21 ff fc 	l.addi r1,r1,0xfffffffc
    222c:	d4 01 10 00 	l.sw 0x0(r1),r2
    2230:	9c 41 00 04 	l.addi r2,r1,0x4
    2234:	9c 80 00 01 	l.addi r4,r0,0x1
    2238:	9c a0 48 00 	l.addi r5,r0,0x4800
    223c:	e0 84 18 08 	l.sll r4,r4,r3
    2240:	b4 65 00 00 	l.mfspr r3,r5,0x0
    2244:	e0 63 20 04 	l.or r3,r3,r4
    2248:	c0 05 18 00 	l.mtspr r5,r3,0x0
    224c:	84 41 00 00 	l.lwz r2,0x0(r1)
    2250:	44 00 48 00 	l.jr r9
    2254:	9c 21 00 04 	l.addi r1,r1,0x4

00002258 <_SendSlot>:
    2258:	9c 21 ff e8 	l.addi r1,r1,0xffffffe8
    225c:	d4 01 10 04 	l.sw 0x4(r1),r2
    2260:	9c 41 00 18 	l.addi r2,r1,0x18
    2264:	d4 01 48 00 	l.sw 0x0(r1),r9
    2268:	d4 01 50 08 	l.sw 0x8(r1),r10
    226c:	d4 01 60 0c 	l.sw 0xc(r1),r12
    2270:	d4 01 70 10 	l.sw 0x10(r1),r14
    2274:	d4 01 80 14 	l.sw 0x14(r1),r16
    2278:	19 c0 00 01 	l.movhi r14,0x1
    227c:	a9 ce 6e b0 	l.ori r14,r14,0x6eb0
    2280:	1a 00 00 01 	l.movhi r16,0x1
    2284:	aa 10 6e 9c 	l.ori r16,r16,0x6e9c
    2288:	9c c0 00 01 	l.addi r6,r0,0x1
    228c:	84 ae 00 00 	l.lwz r5,0x0(r14)
    2290:	a9 83 00 00 	l.ori r12,r3,0x0
    2294:	a9 44 00 00 	l.ori r10,r4,0x0
    2298:	d4 10 30 00 	l.sw 0x0(r16),r6
    229c:	84 65 00 00 	l.lwz r3,0x0(r5)
    22a0:	bc 03 00 ff 	l.sfeqi r3,0xff
    22a4:	10 00 00 1e 	l.bf 231c <_SendSlot+0xc4>
    22a8:	15 00 00 00 	l.nop 0x0
    22ac:	18 c0 00 01 	l.movhi r6,0x1
    22b0:	a8 c6 6d ac 	l.ori r6,r6,0x6dac
    22b4:	84 86 00 00 	l.lwz r4,0x0(r6)
    22b8:	9c 60 00 01 	l.addi r3,r0,0x1
    22bc:	d4 04 18 00 	l.sw 0x0(r4),r3
    22c0:	84 65 00 00 	l.lwz r3,0x0(r5)
    22c4:	bc 03 00 ff 	l.sfeqi r3,0xff
    22c8:	0f ff ff fc 	l.bnf 22b8 <_SendSlot+0x60>
    22cc:	15 00 00 00 	l.nop 0x0
    22d0:	84 86 00 00 	l.lwz r4,0x0(r6)
    22d4:	9c a0 00 00 	l.addi r5,r0,0x0
    22d8:	9c 60 00 02 	l.addi r3,r0,0x2
    22dc:	d4 04 28 00 	l.sw 0x0(r4),r5
    22e0:	07 ff ff b6 	l.jal 21b8 <_disable_interruption>
    22e4:	15 00 00 00 	l.nop 0x0
    22e8:	07 ff ff b4 	l.jal 21b8 <_disable_interruption>
    22ec:	9c 60 00 00 	l.addi r3,r0,0x0
    22f0:	04 00 15 2c 	l.jal 77a0 <_int_disable>
    22f4:	9c 60 00 01 	l.addi r3,r0,0x1
    22f8:	04 00 15 2a 	l.jal 77a0 <_int_disable>
    22fc:	9c 60 00 00 	l.addi r3,r0,0x0
    2300:	84 8e 00 00 	l.lwz r4,0x0(r14)
    2304:	84 64 00 00 	l.lwz r3,0x0(r4)
    2308:	bc 03 00 ff 	l.sfeqi r3,0xff
    230c:	0f ff ff fe 	l.bnf 2304 <_SendSlot+0xac>
    2310:	a8 6c 00 00 	l.ori r3,r12,0x0
    2314:	00 00 00 06 	l.j 232c <_SendSlot+0xd4>
    2318:	15 00 00 00 	l.nop 0x0
    231c:	18 c0 00 01 	l.movhi r6,0x1
    2320:	a8 c6 6d ac 	l.ori r6,r6,0x6dac
    2324:	03 ff ff ec 	l.j 22d4 <_SendSlot+0x7c>
    2328:	84 86 00 00 	l.lwz r4,0x0(r6)
    232c:	18 80 00 01 	l.movhi r4,0x1
    2330:	a8 84 6e a8 	l.ori r4,r4,0x6ea8
    2334:	d4 04 50 00 	l.sw 0x0(r4),r10
    2338:	07 ff ff ad 	l.jal 21ec <_SendRaw>
    233c:	15 00 00 00 	l.nop 0x0
    2340:	04 00 15 4f 	l.jal 787c <_int_enable>
    2344:	9c 60 00 00 	l.addi r3,r0,0x0
    2348:	04 00 15 4d 	l.jal 787c <_int_enable>
    234c:	9c 60 00 01 	l.addi r3,r0,0x1
    2350:	07 ff ff b6 	l.jal 2228 <_enable_interruption>
    2354:	9c 60 00 02 	l.addi r3,r0,0x2
    2358:	07 ff ff b4 	l.jal 2228 <_enable_interruption>
    235c:	9c 60 00 00 	l.addi r3,r0,0x0
    2360:	9c c0 00 00 	l.addi r6,r0,0x0
    2364:	d4 10 30 00 	l.sw 0x0(r16),r6
    2368:	85 21 00 00 	l.lwz r9,0x0(r1)
    236c:	84 41 00 04 	l.lwz r2,0x4(r1)
    2370:	85 41 00 08 	l.lwz r10,0x8(r1)
    2374:	85 81 00 0c 	l.lwz r12,0xc(r1)
    2378:	85 c1 00 10 	l.lwz r14,0x10(r1)
    237c:	86 01 00 14 	l.lwz r16,0x14(r1)
    2380:	44 00 48 00 	l.jr r9
    2384:	9c 21 00 18 	l.addi r1,r1,0x18

00002388 <_requestToForward>:
    2388:	9c 21 ff f8 	l.addi r1,r1,0xfffffff8
    238c:	d4 01 10 04 	l.sw 0x4(r1),r2
    2390:	9c 41 00 08 	l.addi r2,r1,0x8
    2394:	d4 01 48 00 	l.sw 0x0(r1),r9
    2398:	07 ff fc 96 	l.jal 15f0 <_getServiceIndex>
    239c:	15 00 00 00 	l.nop 0x0
    23a0:	9c 60 08 1c 	l.addi r3,r0,0x81c
    23a4:	19 20 00 01 	l.movhi r9,0x1
    23a8:	a9 29 6e 94 	l.ori r9,r9,0x6e94
    23ac:	e0 6b 1b 06 	l.mul r3,r11,r3
    23b0:	18 c0 ff ff 	l.movhi r6,0xffff
    23b4:	a8 c6 00 00 	l.ori r6,r6,0x0
    23b8:	84 a9 00 00 	l.lwz r5,0x0(r9)
    23bc:	e0 8b 30 04 	l.or r4,r11,r6
    23c0:	18 e0 00 01 	l.movhi r7,0x1
    23c4:	a8 e7 7b 00 	l.ori r7,r7,0x7b00
    23c8:	b8 c5 00 02 	l.slli r6,r5,0x2
    23cc:	18 a0 00 01 	l.movhi r5,0x1
    23d0:	a8 a5 6e cc 	l.ori r5,r5,0x6ecc
    23d4:	e0 c6 38 00 	l.add r6,r6,r7
    23d8:	85 05 00 00 	l.lwz r8,0x0(r5)
    23dc:	84 c6 00 00 	l.lwz r6,0x0(r6)
    23e0:	19 60 00 01 	l.movhi r11,0x1
    23e4:	a9 6b ac c0 	l.ori r11,r11,0xacc0
    23e8:	e0 a3 58 00 	l.add r5,r3,r11
    23ec:	d4 05 30 00 	l.sw 0x0(r5),r6
    23f0:	9d 60 00 06 	l.addi r11,r0,0x6
    23f4:	9c c5 00 04 	l.addi r6,r5,0x4
    23f8:	9c e5 00 08 	l.addi r7,r5,0x8
    23fc:	d4 06 58 00 	l.sw 0x0(r6),r11
    2400:	a8 65 00 00 	l.ori r3,r5,0x0
    2404:	85 29 00 00 	l.lwz r9,0x0(r9)
    2408:	9c c5 00 0c 	l.addi r6,r5,0xc
    240c:	d4 07 48 00 	l.sw 0x0(r7),r9
    2410:	9c a5 00 10 	l.addi r5,r5,0x10
    2414:	9c e0 00 80 	l.addi r7,r0,0x80
    2418:	d4 06 38 00 	l.sw 0x0(r6),r7
    241c:	85 08 00 00 	l.lwz r8,0x0(r8)
    2420:	d4 05 40 00 	l.sw 0x0(r5),r8
    2424:	07 ff ff 8d 	l.jal 2258 <_SendSlot>
    2428:	15 00 00 00 	l.nop 0x0
    242c:	85 21 00 00 	l.lwz r9,0x0(r1)
    2430:	84 41 00 04 	l.lwz r2,0x4(r1)
    2434:	44 00 48 00 	l.jr r9
    2438:	9c 21 00 08 	l.addi r1,r1,0x8

0000243c <_SendMessage>:
    243c:	9c 21 ff e0 	l.addi r1,r1,0xffffffe0
    2440:	d4 01 10 04 	l.sw 0x4(r1),r2
    2444:	9c 41 00 20 	l.addi r2,r1,0x20
    2448:	d4 01 48 00 	l.sw 0x0(r1),r9
    244c:	d4 01 50 08 	l.sw 0x8(r1),r10
    2450:	d4 01 60 0c 	l.sw 0xc(r1),r12
    2454:	d4 01 70 10 	l.sw 0x10(r1),r14
    2458:	d4 01 80 14 	l.sw 0x14(r1),r16
    245c:	d4 01 90 18 	l.sw 0x18(r1),r18
    2460:	d4 01 a0 1c 	l.sw 0x1c(r1),r20
    2464:	1a 80 00 01 	l.movhi r20,0x1
    2468:	aa 94 6d ac 	l.ori r20,r20,0x6dac
    246c:	a9 83 00 00 	l.ori r12,r3,0x0
    2470:	aa 44 00 00 	l.ori r18,r4,0x0
    2474:	84 74 00 00 	l.lwz r3,0x0(r20)
    2478:	9c 80 00 01 	l.addi r4,r0,0x1
    247c:	9d c0 00 00 	l.addi r14,r0,0x0
    2480:	d4 03 20 00 	l.sw 0x0(r3),r4
    2484:	07 ff fd f5 	l.jal 1c58 <_getEmptyIndex>
    2488:	15 00 00 00 	l.nop 0x0
    248c:	bc 2b ff ff 	l.sfnei r11,0xffffffff
    2490:	10 00 00 17 	l.bf 24ec <_SendMessage+0xb0>
    2494:	a9 4b 00 00 	l.ori r10,r11,0x0
    2498:	1a 00 00 01 	l.movhi r16,0x1
    249c:	aa 10 6e 90 	l.ori r16,r16,0x6e90
    24a0:	00 00 00 05 	l.j 24b4 <_SendMessage+0x78>
    24a4:	15 00 00 00 	l.nop 0x0
    24a8:	bc 2a ff ff 	l.sfnei r10,0xffffffff
    24ac:	10 00 00 10 	l.bf 24ec <_SendMessage+0xb0>
    24b0:	15 00 00 00 	l.nop 0x0
    24b4:	07 ff fd e9 	l.jal 1c58 <_getEmptyIndex>
    24b8:	15 00 00 00 	l.nop 0x0
    24bc:	84 70 00 00 	l.lwz r3,0x0(r16)
    24c0:	bc 23 00 01 	l.sfnei r3,0x1
    24c4:	13 ff ff f9 	l.bf 24a8 <_SendMessage+0x6c>
    24c8:	a9 4b 00 00 	l.ori r10,r11,0x0
    24cc:	bc 2e 00 00 	l.sfnei r14,0x0
    24d0:	13 ff ff f7 	l.bf 24ac <_SendMessage+0x70>
    24d4:	bc 2a ff ff 	l.sfnei r10,0xffffffff
    24d8:	07 ff ff ac 	l.jal 2388 <_requestToForward>
    24dc:	9d ce 00 01 	l.addi r14,r14,0x1
    24e0:	bc 2a ff ff 	l.sfnei r10,0xffffffff
    24e4:	0f ff ff f4 	l.bnf 24b4 <_SendMessage+0x78>
    24e8:	15 00 00 00 	l.nop 0x0
    24ec:	84 74 00 00 	l.lwz r3,0x0(r20)
    24f0:	9c a0 00 00 	l.addi r5,r0,0x0
    24f4:	ba 12 00 02 	l.slli r16,r18,0x2
    24f8:	d4 03 28 00 	l.sw 0x0(r3),r5
    24fc:	b9 ca 00 0b 	l.slli r14,r10,0xb
    2500:	18 a0 00 01 	l.movhi r5,0x1
    2504:	a8 a5 83 d0 	l.ori r5,r5,0x83d0
    2508:	18 c0 00 01 	l.movhi r6,0x1
    250c:	a8 c6 8c b0 	l.ori r6,r6,0x8cb0
    2510:	e0 90 28 00 	l.add r4,r16,r5
    2514:	e0 6e 30 00 	l.add r3,r14,r6
    2518:	84 84 00 00 	l.lwz r4,0x0(r4)
    251c:	9c c0 00 30 	l.addi r6,r0,0x30
    2520:	9c a0 00 00 	l.addi r5,r0,0x0
    2524:	d4 03 20 00 	l.sw 0x0(r3),r4
    2528:	84 8c 08 00 	l.lwz r4,0x800(r12)
    252c:	9c 84 00 05 	l.addi r4,r4,0x5
    2530:	d4 03 30 0c 	l.sw 0xc(r3),r6
    2534:	d4 03 20 04 	l.sw 0x4(r3),r4
    2538:	d4 03 90 08 	l.sw 0x8(r3),r18
    253c:	84 6c 08 00 	l.lwz r3,0x800(r12)
    2540:	e4 a3 28 00 	l.sfleu r3,r5
    2544:	10 00 00 0e 	l.bf 257c <_SendMessage+0x140>
    2548:	15 00 00 00 	l.nop 0x0
    254c:	18 60 00 01 	l.movhi r3,0x1
    2550:	a8 63 8c c0 	l.ori r3,r3,0x8cc0
    2554:	e0 8e 18 00 	l.add r4,r14,r3
    2558:	a8 6c 00 00 	l.ori r3,r12,0x0
    255c:	84 c3 00 00 	l.lwz r6,0x0(r3)
    2560:	9c a5 00 01 	l.addi r5,r5,0x1
    2564:	d4 04 30 00 	l.sw 0x0(r4),r6
    2568:	9c 63 00 04 	l.addi r3,r3,0x4
    256c:	84 cc 08 00 	l.lwz r6,0x800(r12)
    2570:	e4 65 30 00 	l.sfgeu r5,r6
    2574:	0f ff ff fa 	l.bnf 255c <_SendMessage+0x120>
    2578:	9c 84 00 04 	l.addi r4,r4,0x4
    257c:	07 ff fd d5 	l.jal 1cd0 <_bufferPush>
    2580:	a8 6a 00 00 	l.ori r3,r10,0x0
    2584:	07 ff fe ed 	l.jal 2138 <_checkPendingReq>
    2588:	a8 72 00 00 	l.ori r3,r18,0x0
    258c:	bc 0b 00 00 	l.sfeqi r11,0x0
    2590:	10 00 00 14 	l.bf 25e0 <_SendMessage+0x1a4>
    2594:	a9 8b 00 00 	l.ori r12,r11,0x0
    2598:	a8 92 00 00 	l.ori r4,r18,0x0
    259c:	18 60 00 01 	l.movhi r3,0x1
    25a0:	a8 63 57 e7 	l.ori r3,r3,0x57e7
    25a4:	18 a0 00 01 	l.movhi r5,0x1
    25a8:	a8 a5 58 07 	l.ori r5,r5,0x5807
    25ac:	07 ff fd 2f 	l.jal 1a68 <_putsvsv>
    25b0:	a8 cb 00 00 	l.ori r6,r11,0x0
    25b4:	18 80 00 01 	l.movhi r4,0x1
    25b8:	a8 84 8c b0 	l.ori r4,r4,0x8cb0
    25bc:	18 a0 00 01 	l.movhi r5,0x1
    25c0:	a8 a5 cd 50 	l.ori r5,r5,0xcd50
    25c4:	e0 6e 20 00 	l.add r3,r14,r4
    25c8:	9c c0 00 00 	l.addi r6,r0,0x0
    25cc:	e0 90 28 00 	l.add r4,r16,r5
    25d0:	d4 03 60 00 	l.sw 0x0(r3),r12
    25d4:	d4 04 30 00 	l.sw 0x0(r4),r6
    25d8:	07 ff ff 20 	l.jal 2258 <_SendSlot>
    25dc:	a8 8a 00 00 	l.ori r4,r10,0x0
    25e0:	85 21 00 00 	l.lwz r9,0x0(r1)
    25e4:	84 41 00 04 	l.lwz r2,0x4(r1)
    25e8:	85 41 00 08 	l.lwz r10,0x8(r1)
    25ec:	85 81 00 0c 	l.lwz r12,0xc(r1)
    25f0:	85 c1 00 10 	l.lwz r14,0x10(r1)
    25f4:	86 01 00 14 	l.lwz r16,0x14(r1)
    25f8:	86 41 00 18 	l.lwz r18,0x18(r1)
    25fc:	86 81 00 1c 	l.lwz r20,0x1c(r1)
    2600:	44 00 48 00 	l.jr r9
    2604:	9c 21 00 20 	l.addi r1,r1,0x20

00002608 <_forwardMsgRequest>:
    2608:	9c 21 ff ec 	l.addi r1,r1,0xffffffec
    260c:	d4 01 10 04 	l.sw 0x4(r1),r2
    2610:	9c 41 00 14 	l.addi r2,r1,0x14
    2614:	d4 01 48 00 	l.sw 0x0(r1),r9
    2618:	d4 01 50 08 	l.sw 0x8(r1),r10
    261c:	d4 01 60 0c 	l.sw 0xc(r1),r12
    2620:	d4 01 70 10 	l.sw 0x10(r1),r14
    2624:	a9 43 00 00 	l.ori r10,r3,0x0
    2628:	07 ff fb f2 	l.jal 15f0 <_getServiceIndex>
    262c:	a9 c4 00 00 	l.ori r14,r4,0x0
    2630:	a9 8b 00 00 	l.ori r12,r11,0x0
    2634:	18 60 00 01 	l.movhi r3,0x1
    2638:	a8 63 58 1a 	l.ori r3,r3,0x581a
    263c:	a8 8a 00 00 	l.ori r4,r10,0x0
    2640:	18 a0 00 01 	l.movhi r5,0x1
    2644:	a8 a5 58 3c 	l.ori r5,r5,0x583c
    2648:	07 ff fd 08 	l.jal 1a68 <_putsvsv>
    264c:	a8 ce 00 00 	l.ori r6,r14,0x0
    2650:	9c 60 08 1c 	l.addi r3,r0,0x81c
    2654:	b8 aa 00 02 	l.slli r5,r10,0x2
    2658:	e0 6c 1b 06 	l.mul r3,r12,r3
    265c:	18 e0 00 01 	l.movhi r7,0x1
    2660:	a8 e7 83 d0 	l.ori r7,r7,0x83d0
    2664:	18 c0 ff ff 	l.movhi r6,0xffff
    2668:	a8 c6 00 00 	l.ori r6,r6,0x0
    266c:	e1 05 38 00 	l.add r8,r5,r7
    2670:	19 20 00 01 	l.movhi r9,0x1
    2674:	a9 29 ac c0 	l.ori r9,r9,0xacc0
    2678:	e0 8c 30 04 	l.or r4,r12,r6
    267c:	e0 a3 48 00 	l.add r5,r3,r9
    2680:	9d 20 00 06 	l.addi r9,r0,0x6
    2684:	d4 05 70 00 	l.sw 0x0(r5),r14
    2688:	9c c5 00 04 	l.addi r6,r5,0x4
    268c:	9c e5 00 08 	l.addi r7,r5,0x8
    2690:	d4 06 48 00 	l.sw 0x0(r6),r9
    2694:	a8 65 00 00 	l.ori r3,r5,0x0
    2698:	d4 07 50 00 	l.sw 0x0(r7),r10
    269c:	9c c5 00 0c 	l.addi r6,r5,0xc
    26a0:	9c e0 00 20 	l.addi r7,r0,0x20
    26a4:	9c a5 00 10 	l.addi r5,r5,0x10
    26a8:	d4 06 38 00 	l.sw 0x0(r6),r7
    26ac:	85 08 00 00 	l.lwz r8,0x0(r8)
    26b0:	d4 05 40 00 	l.sw 0x0(r5),r8
    26b4:	07 ff fe e9 	l.jal 2258 <_SendSlot>
    26b8:	15 00 00 00 	l.nop 0x0
    26bc:	85 21 00 00 	l.lwz r9,0x0(r1)
    26c0:	84 41 00 04 	l.lwz r2,0x4(r1)
    26c4:	85 41 00 08 	l.lwz r10,0x8(r1)
    26c8:	85 81 00 0c 	l.lwz r12,0xc(r1)
    26cc:	85 c1 00 10 	l.lwz r14,0x10(r1)
    26d0:	44 00 48 00 	l.jr r9
    26d4:	9c 21 00 14 	l.addi r1,r1,0x14

000026d8 <_sendPendingReq>:
    26d8:	9c 21 ff e4 	l.addi r1,r1,0xffffffe4
    26dc:	d4 01 10 04 	l.sw 0x4(r1),r2
    26e0:	9c 41 00 1c 	l.addi r2,r1,0x1c
    26e4:	d4 01 48 00 	l.sw 0x0(r1),r9
    26e8:	d4 01 50 08 	l.sw 0x8(r1),r10
    26ec:	d4 01 60 0c 	l.sw 0xc(r1),r12
    26f0:	d4 01 70 10 	l.sw 0x10(r1),r14
    26f4:	d4 01 80 14 	l.sw 0x14(r1),r16
    26f8:	d4 01 90 18 	l.sw 0x18(r1),r18
    26fc:	aa 43 00 00 	l.ori r18,r3,0x0
    2700:	07 ff fb bc 	l.jal 15f0 <_getServiceIndex>
    2704:	9d c0 00 00 	l.addi r14,r0,0x0
    2708:	aa 0b 00 00 	l.ori r16,r11,0x0
    270c:	18 60 00 01 	l.movhi r3,0x1
    2710:	a8 63 58 4f 	l.ori r3,r3,0x584f
    2714:	19 80 00 01 	l.movhi r12,0x1
    2718:	a9 8c cd 50 	l.ori r12,r12,0xcd50
    271c:	07 ff fd 3d 	l.jal 1c10 <_putsv>
    2720:	a8 92 00 00 	l.ori r4,r18,0x0
    2724:	9c 60 08 1c 	l.addi r3,r0,0x81c
    2728:	18 a0 00 01 	l.movhi r5,0x1
    272c:	a8 a5 ac c0 	l.ori r5,r5,0xacc0
    2730:	e0 90 1b 06 	l.mul r4,r16,r3
    2734:	18 c0 00 01 	l.movhi r6,0x1
    2738:	a8 c6 ac d0 	l.ori r6,r6,0xacd0
    273c:	e0 64 28 00 	l.add r3,r4,r5
    2740:	e1 44 30 00 	l.add r10,r4,r6
    2744:	d4 03 90 00 	l.sw 0x0(r3),r18
    2748:	9c 83 00 04 	l.addi r4,r3,0x4
    274c:	9c c0 00 29 	l.addi r6,r0,0x29
    2750:	9c a3 00 08 	l.addi r5,r3,0x8
    2754:	d4 04 30 00 	l.sw 0x0(r4),r6
    2758:	9c 83 00 0c 	l.addi r4,r3,0xc
    275c:	18 60 00 01 	l.movhi r3,0x1
    2760:	a8 63 6e 94 	l.ori r3,r3,0x6e94
    2764:	84 63 00 00 	l.lwz r3,0x0(r3)
    2768:	d4 05 18 00 	l.sw 0x0(r5),r3
    276c:	9c 60 00 66 	l.addi r3,r0,0x66
    2770:	d4 04 18 00 	l.sw 0x0(r4),r3
    2774:	84 8c 00 00 	l.lwz r4,0x0(r12)
    2778:	18 60 00 01 	l.movhi r3,0x1
    277c:	a8 63 58 60 	l.ori r3,r3,0x5860
    2780:	07 ff fd 24 	l.jal 1c10 <_putsv>
    2784:	9d ce 00 01 	l.addi r14,r14,0x1
    2788:	84 ac 00 00 	l.lwz r5,0x0(r12)
    278c:	9c c0 00 00 	l.addi r6,r0,0x0
    2790:	bd 4e 00 23 	l.sfgtsi r14,0x23
    2794:	d4 0a 28 00 	l.sw 0x0(r10),r5
    2798:	d4 0c 30 00 	l.sw 0x0(r12),r6
    279c:	9d 4a 00 04 	l.addi r10,r10,0x4
    27a0:	0f ff ff f5 	l.bnf 2774 <_sendPendingReq+0x9c>
    27a4:	9d 8c 00 04 	l.addi r12,r12,0x4
    27a8:	18 60 ff ff 	l.movhi r3,0xffff
    27ac:	a8 63 00 00 	l.ori r3,r3,0x0
    27b0:	18 a0 00 01 	l.movhi r5,0x1
    27b4:	a8 a5 ac c0 	l.ori r5,r5,0xacc0
    27b8:	e0 90 18 04 	l.or r4,r16,r3
    27bc:	9c 60 08 1c 	l.addi r3,r0,0x81c
    27c0:	e0 70 1b 06 	l.mul r3,r16,r3
    27c4:	07 ff fe a5 	l.jal 2258 <_SendSlot>
    27c8:	e0 63 28 00 	l.add r3,r3,r5
    27cc:	18 60 00 01 	l.movhi r3,0x1
    27d0:	a8 63 58 6f 	l.ori r3,r3,0x586f
    27d4:	07 ff fb 62 	l.jal 155c <_prints>
    27d8:	15 00 00 00 	l.nop 0x0
    27dc:	85 21 00 00 	l.lwz r9,0x0(r1)
    27e0:	84 41 00 04 	l.lwz r2,0x4(r1)
    27e4:	85 41 00 08 	l.lwz r10,0x8(r1)
    27e8:	85 81 00 0c 	l.lwz r12,0xc(r1)
    27ec:	85 c1 00 10 	l.lwz r14,0x10(r1)
    27f0:	86 01 00 14 	l.lwz r16,0x14(r1)
    27f4:	86 41 00 18 	l.lwz r18,0x18(r1)
    27f8:	44 00 48 00 	l.jr r9
    27fc:	9c 21 00 1c 	l.addi r1,r1,0x1c

00002800 <_sendPipe>:
    2800:	9c 21 ff e0 	l.addi r1,r1,0xffffffe0
    2804:	d4 01 10 04 	l.sw 0x4(r1),r2
    2808:	9c 41 00 20 	l.addi r2,r1,0x20
    280c:	d4 01 48 00 	l.sw 0x0(r1),r9
    2810:	d4 01 50 08 	l.sw 0x8(r1),r10
    2814:	d4 01 60 0c 	l.sw 0xc(r1),r12
    2818:	d4 01 70 10 	l.sw 0x10(r1),r14
    281c:	d4 01 80 14 	l.sw 0x14(r1),r16
    2820:	d4 01 90 18 	l.sw 0x18(r1),r18
    2824:	d4 01 a0 1c 	l.sw 0x1c(r1),r20
    2828:	aa 43 00 00 	l.ori r18,r3,0x0
    282c:	9d 80 00 00 	l.addi r12,r0,0x0
    2830:	18 60 00 01 	l.movhi r3,0x1
    2834:	a8 63 58 82 	l.ori r3,r3,0x5882
    2838:	a8 92 00 00 	l.ori r4,r18,0x0
    283c:	19 c0 00 01 	l.movhi r14,0x1
    2840:	a9 ce 7a 60 	l.ori r14,r14,0x7a60
    2844:	07 ff fc f3 	l.jal 1c10 <_putsv>
    2848:	9e 80 08 1c 	l.addi r20,r0,0x81c
    284c:	84 6e 00 00 	l.lwz r3,0x0(r14)
    2850:	bc 23 00 01 	l.sfnei r3,0x1
    2854:	10 00 00 32 	l.bf 291c <_sendPipe+0x11c>
    2858:	15 00 00 00 	l.nop 0x0
    285c:	07 ff fb 65 	l.jal 15f0 <_getServiceIndex>
    2860:	15 00 00 00 	l.nop 0x0
    2864:	e2 0b a3 06 	l.mul r16,r11,r20
    2868:	18 a0 00 01 	l.movhi r5,0x1
    286c:	a8 a5 ac c0 	l.ori r5,r5,0xacc0
    2870:	9c e0 02 07 	l.addi r7,r0,0x207
    2874:	18 60 00 01 	l.movhi r3,0x1
    2878:	a8 63 58 8d 	l.ori r3,r3,0x588d
    287c:	a9 4b 00 00 	l.ori r10,r11,0x0
    2880:	e0 90 28 00 	l.add r4,r16,r5
    2884:	d4 04 90 00 	l.sw 0x0(r4),r18
    2888:	9c a4 00 04 	l.addi r5,r4,0x4
    288c:	9c c4 00 08 	l.addi r6,r4,0x8
    2890:	d4 05 38 00 	l.sw 0x0(r5),r7
    2894:	9c a4 00 0c 	l.addi r5,r4,0xc
    2898:	18 80 00 01 	l.movhi r4,0x1
    289c:	a8 84 6e 94 	l.ori r4,r4,0x6e94
    28a0:	84 84 00 00 	l.lwz r4,0x0(r4)
    28a4:	d4 06 20 00 	l.sw 0x0(r6),r4
    28a8:	9c 80 00 64 	l.addi r4,r0,0x64
    28ac:	d4 05 20 00 	l.sw 0x0(r5),r4
    28b0:	07 ff fb 2b 	l.jal 155c <_prints>
    28b4:	15 00 00 00 	l.nop 0x0
    28b8:	18 a0 00 01 	l.movhi r5,0x1
    28bc:	a8 a5 ac d0 	l.ori r5,r5,0xacd0
    28c0:	b8 6c 00 0b 	l.slli r3,r12,0xb
    28c4:	e0 90 28 00 	l.add r4,r16,r5
    28c8:	18 c0 00 01 	l.movhi r6,0x1
    28cc:	a8 c6 8c b0 	l.ori r6,r6,0x8cb0
    28d0:	9c a0 00 00 	l.addi r5,r0,0x0
    28d4:	e0 63 30 00 	l.add r3,r3,r6
    28d8:	84 e3 00 00 	l.lwz r7,0x0(r3)
    28dc:	9c a5 00 01 	l.addi r5,r5,0x1
    28e0:	d4 04 38 00 	l.sw 0x0(r4),r7
    28e4:	9c 63 00 04 	l.addi r3,r3,0x4
    28e8:	bd 45 01 ff 	l.sfgtsi r5,0x1ff
    28ec:	0f ff ff fb 	l.bnf 28d8 <_sendPipe+0xd8>
    28f0:	9c 84 00 04 	l.addi r4,r4,0x4
    28f4:	07 ff fd 28 	l.jal 1d94 <_bufferPop>
    28f8:	a8 6c 00 00 	l.ori r3,r12,0x0
    28fc:	e0 6a a3 06 	l.mul r3,r10,r20
    2900:	18 a0 ff ff 	l.movhi r5,0xffff
    2904:	a8 a5 00 00 	l.ori r5,r5,0x0
    2908:	18 c0 00 01 	l.movhi r6,0x1
    290c:	a8 c6 ac c0 	l.ori r6,r6,0xacc0
    2910:	e0 8a 28 04 	l.or r4,r10,r5
    2914:	07 ff fe 51 	l.jal 2258 <_SendSlot>
    2918:	e0 63 30 00 	l.add r3,r3,r6
    291c:	9d 8c 00 01 	l.addi r12,r12,0x1
    2920:	bd 4c 00 03 	l.sfgtsi r12,0x3
    2924:	0f ff ff ca 	l.bnf 284c <_sendPipe+0x4c>
    2928:	9d ce 00 04 	l.addi r14,r14,0x4
    292c:	85 21 00 00 	l.lwz r9,0x0(r1)
    2930:	84 41 00 04 	l.lwz r2,0x4(r1)
    2934:	85 41 00 08 	l.lwz r10,0x8(r1)
    2938:	85 81 00 0c 	l.lwz r12,0xc(r1)
    293c:	85 c1 00 10 	l.lwz r14,0x10(r1)
    2940:	86 01 00 14 	l.lwz r16,0x14(r1)
    2944:	86 41 00 18 	l.lwz r18,0x18(r1)
    2948:	86 81 00 1c 	l.lwz r20,0x1c(r1)
    294c:	44 00 48 00 	l.jr r9
    2950:	9c 21 00 20 	l.addi r1,r1,0x20

00002954 <_sendTaskService>:
    2954:	9c 21 ff e0 	l.addi r1,r1,0xffffffe0
    2958:	d4 01 10 04 	l.sw 0x4(r1),r2
    295c:	9c 41 00 20 	l.addi r2,r1,0x20
    2960:	d4 01 48 00 	l.sw 0x0(r1),r9
    2964:	d4 01 50 08 	l.sw 0x8(r1),r10
    2968:	d4 01 60 0c 	l.sw 0xc(r1),r12
    296c:	d4 01 70 10 	l.sw 0x10(r1),r14
    2970:	d4 01 80 14 	l.sw 0x14(r1),r16
    2974:	d4 01 90 18 	l.sw 0x18(r1),r18
    2978:	d4 01 a0 1c 	l.sw 0x1c(r1),r20
    297c:	aa 06 00 00 	l.ori r16,r6,0x0
    2980:	a9 83 00 00 	l.ori r12,r3,0x0
    2984:	a9 44 00 00 	l.ori r10,r4,0x0
    2988:	aa 85 00 00 	l.ori r20,r5,0x0
    298c:	07 ff fb 19 	l.jal 15f0 <_getServiceIndex>
    2990:	9d c0 00 00 	l.addi r14,r0,0x0
    2994:	9c 60 08 1c 	l.addi r3,r0,0x81c
    2998:	18 80 00 01 	l.movhi r4,0x1
    299c:	a8 84 ac c0 	l.ori r4,r4,0xacc0
    29a0:	e0 cb 1b 06 	l.mul r6,r11,r3
    29a4:	9c f0 00 05 	l.addi r7,r16,0x5
    29a8:	aa 4b 00 00 	l.ori r18,r11,0x0
    29ac:	e4 b0 70 00 	l.sfleu r16,r14
    29b0:	e0 66 20 00 	l.add r3,r6,r4
    29b4:	d4 03 50 00 	l.sw 0x0(r3),r10
    29b8:	9c 83 00 04 	l.addi r4,r3,0x4
    29bc:	9c a3 00 08 	l.addi r5,r3,0x8
    29c0:	d4 04 38 00 	l.sw 0x0(r4),r7
    29c4:	9c 83 00 0c 	l.addi r4,r3,0xc
    29c8:	18 60 00 01 	l.movhi r3,0x1
    29cc:	a8 63 6e 94 	l.ori r3,r3,0x6e94
    29d0:	84 63 00 00 	l.lwz r3,0x0(r3)
    29d4:	d4 05 18 00 	l.sw 0x0(r5),r3
    29d8:	d4 04 60 00 	l.sw 0x0(r4),r12
    29dc:	10 00 00 15 	l.bf 2a30 <_sendTaskService+0xdc>
    29e0:	9c 60 08 1c 	l.addi r3,r0,0x81c
    29e4:	18 a0 00 01 	l.movhi r5,0x1
    29e8:	a8 a5 ac d0 	l.ori r5,r5,0xacd0
    29ec:	a9 94 00 00 	l.ori r12,r20,0x0
    29f0:	e1 46 28 00 	l.add r10,r6,r5
    29f4:	84 6c 00 00 	l.lwz r3,0x0(r12)
    29f8:	a8 8e 00 00 	l.ori r4,r14,0x0
    29fc:	18 a0 00 01 	l.movhi r5,0x1
    2a00:	a8 a5 58 99 	l.ori r5,r5,0x5899
    2a04:	d4 0a 18 00 	l.sw 0x0(r10),r3
    2a08:	9d ce 00 01 	l.addi r14,r14,0x1
    2a0c:	84 ca 00 00 	l.lwz r6,0x0(r10)
    2a10:	18 60 00 01 	l.movhi r3,0x1
    2a14:	a8 63 58 a2 	l.ori r3,r3,0x58a2
    2a18:	07 ff fc 14 	l.jal 1a68 <_putsvsv>
    2a1c:	9d 8c 00 04 	l.addi r12,r12,0x4
    2a20:	e4 6e 80 00 	l.sfgeu r14,r16
    2a24:	0f ff ff f4 	l.bnf 29f4 <_sendTaskService+0xa0>
    2a28:	9d 4a 00 04 	l.addi r10,r10,0x4
    2a2c:	9c 60 08 1c 	l.addi r3,r0,0x81c
    2a30:	18 a0 ff ff 	l.movhi r5,0xffff
    2a34:	a8 a5 00 00 	l.ori r5,r5,0x0
    2a38:	e0 72 1b 06 	l.mul r3,r18,r3
    2a3c:	e0 92 28 04 	l.or r4,r18,r5
    2a40:	18 a0 00 01 	l.movhi r5,0x1
    2a44:	a8 a5 ac c0 	l.ori r5,r5,0xacc0
    2a48:	07 ff fe 04 	l.jal 2258 <_SendSlot>
    2a4c:	e0 63 28 00 	l.add r3,r3,r5
    2a50:	85 21 00 00 	l.lwz r9,0x0(r1)
    2a54:	84 41 00 04 	l.lwz r2,0x4(r1)
    2a58:	85 41 00 08 	l.lwz r10,0x8(r1)
    2a5c:	85 81 00 0c 	l.lwz r12,0xc(r1)
    2a60:	85 c1 00 10 	l.lwz r14,0x10(r1)
    2a64:	86 01 00 14 	l.lwz r16,0x14(r1)
    2a68:	86 41 00 18 	l.lwz r18,0x18(r1)
    2a6c:	86 81 00 1c 	l.lwz r20,0x1c(r1)
    2a70:	44 00 48 00 	l.jr r9
    2a74:	9c 21 00 20 	l.addi r1,r1,0x20

00002a78 <_requestMsg>:
    2a78:	9c 21 ff ec 	l.addi r1,r1,0xffffffec
    2a7c:	d4 01 10 04 	l.sw 0x4(r1),r2
    2a80:	9c 41 00 14 	l.addi r2,r1,0x14
    2a84:	d4 01 48 00 	l.sw 0x0(r1),r9
    2a88:	d4 01 50 08 	l.sw 0x8(r1),r10
    2a8c:	d4 01 60 0c 	l.sw 0xc(r1),r12
    2a90:	d4 01 70 10 	l.sw 0x10(r1),r14
    2a94:	07 ff fa d7 	l.jal 15f0 <_getServiceIndex>
    2a98:	a9 43 00 00 	l.ori r10,r3,0x0
    2a9c:	9c 60 08 1c 	l.addi r3,r0,0x81c
    2aa0:	b8 8a 00 02 	l.slli r4,r10,0x2
    2aa4:	e1 8b 1b 06 	l.mul r12,r11,r3
    2aa8:	18 a0 00 01 	l.movhi r5,0x1
    2aac:	a8 a5 83 d0 	l.ori r5,r5,0x83d0
    2ab0:	18 c0 00 01 	l.movhi r6,0x1
    2ab4:	a8 c6 ac c0 	l.ori r6,r6,0xacc0
    2ab8:	e0 84 28 00 	l.add r4,r4,r5
    2abc:	a9 cb 00 00 	l.ori r14,r11,0x0
    2ac0:	84 a4 00 00 	l.lwz r5,0x0(r4)
    2ac4:	e1 4c 30 00 	l.add r10,r12,r6
    2ac8:	18 60 00 01 	l.movhi r3,0x1
    2acc:	a8 63 58 ab 	l.ori r3,r3,0x58ab
    2ad0:	d4 0a 28 00 	l.sw 0x0(r10),r5
    2ad4:	84 84 00 00 	l.lwz r4,0x0(r4)
    2ad8:	07 ff fc 4e 	l.jal 1c10 <_putsv>
    2adc:	15 00 00 00 	l.nop 0x0
    2ae0:	9c 6a 00 04 	l.addi r3,r10,0x4
    2ae4:	9c c0 00 06 	l.addi r6,r0,0x6
    2ae8:	9c 8a 00 08 	l.addi r4,r10,0x8
    2aec:	d4 03 30 00 	l.sw 0x0(r3),r6
    2af0:	18 60 00 01 	l.movhi r3,0x1
    2af4:	a8 63 6e 94 	l.ori r3,r3,0x6e94
    2af8:	84 63 00 00 	l.lwz r3,0x0(r3)
    2afc:	d4 04 18 00 	l.sw 0x0(r4),r3
    2b00:	18 60 00 01 	l.movhi r3,0x1
    2b04:	a8 63 6e cc 	l.ori r3,r3,0x6ecc
    2b08:	9c 8a 00 0c 	l.addi r4,r10,0xc
    2b0c:	84 a3 00 00 	l.lwz r5,0x0(r3)
    2b10:	9c 60 00 20 	l.addi r3,r0,0x20
    2b14:	d4 04 18 00 	l.sw 0x0(r4),r3
    2b18:	84 a5 00 00 	l.lwz r5,0x0(r5)
    2b1c:	9c 8a 00 10 	l.addi r4,r10,0x10
    2b20:	a8 6a 00 00 	l.ori r3,r10,0x0
    2b24:	d4 04 28 00 	l.sw 0x0(r4),r5
    2b28:	18 a0 ff ff 	l.movhi r5,0xffff
    2b2c:	a8 a5 00 00 	l.ori r5,r5,0x0
    2b30:	07 ff fd ca 	l.jal 2258 <_SendSlot>
    2b34:	e0 8e 28 04 	l.or r4,r14,r5
    2b38:	85 21 00 00 	l.lwz r9,0x0(r1)
    2b3c:	84 41 00 04 	l.lwz r2,0x4(r1)
    2b40:	85 41 00 08 	l.lwz r10,0x8(r1)
    2b44:	85 81 00 0c 	l.lwz r12,0xc(r1)
    2b48:	85 c1 00 10 	l.lwz r14,0x10(r1)
    2b4c:	44 00 48 00 	l.jr r9
    2b50:	9c 21 00 14 	l.addi r1,r1,0x14

00002b54 <_ReceiveMessage>:
    2b54:	9c 21 ff f4 	l.addi r1,r1,0xfffffff4
    2b58:	d4 01 10 04 	l.sw 0x4(r1),r2
    2b5c:	9c 41 00 0c 	l.addi r2,r1,0xc
    2b60:	d4 01 48 00 	l.sw 0x0(r1),r9
    2b64:	d4 01 50 08 	l.sw 0x8(r1),r10
    2b68:	18 a0 00 01 	l.movhi r5,0x1
    2b6c:	a8 a5 84 6c 	l.ori r5,r5,0x846c
    2b70:	19 40 00 01 	l.movhi r10,0x1
    2b74:	a9 4a 84 60 	l.ori r10,r10,0x8460
    2b78:	d4 05 18 00 	l.sw 0x0(r5),r3
    2b7c:	9c 60 00 00 	l.addi r3,r0,0x0
    2b80:	d4 0a 18 00 	l.sw 0x0(r10),r3
    2b84:	07 ff ff bd 	l.jal 2a78 <_requestMsg>
    2b88:	a8 64 00 00 	l.ori r3,r4,0x0
    2b8c:	04 00 13 3c 	l.jal 787c <_int_enable>
    2b90:	9c 60 00 02 	l.addi r3,r0,0x2
    2b94:	18 80 00 01 	l.movhi r4,0x1
    2b98:	a8 84 6d ac 	l.ori r4,r4,0x6dac
    2b9c:	9c a0 00 01 	l.addi r5,r0,0x1
    2ba0:	84 64 00 00 	l.lwz r3,0x0(r4)
    2ba4:	d4 03 28 00 	l.sw 0x0(r3),r5
    2ba8:	84 6a 00 00 	l.lwz r3,0x0(r10)
    2bac:	bc 23 00 00 	l.sfnei r3,0x0
    2bb0:	0f ff ff fe 	l.bnf 2ba8 <_ReceiveMessage+0x54>
    2bb4:	15 00 00 00 	l.nop 0x0
    2bb8:	84 64 00 00 	l.lwz r3,0x0(r4)
    2bbc:	9c 80 00 00 	l.addi r4,r0,0x0
    2bc0:	d4 03 20 00 	l.sw 0x0(r3),r4
    2bc4:	85 21 00 00 	l.lwz r9,0x0(r1)
    2bc8:	84 41 00 04 	l.lwz r2,0x4(r1)
    2bcc:	85 41 00 08 	l.lwz r10,0x8(r1)
    2bd0:	44 00 48 00 	l.jr r9
    2bd4:	9c 21 00 0c 	l.addi r1,r1,0xc

00002bd8 <_interruptHandler_NI_TX>:
    2bd8:	9c 21 ff e4 	l.addi r1,r1,0xffffffe4
    2bdc:	d4 01 10 10 	l.sw 0x10(r1),r2
    2be0:	9c 41 00 1c 	l.addi r2,r1,0x1c
    2be4:	d4 01 48 0c 	l.sw 0xc(r1),r9
    2be8:	d4 01 50 14 	l.sw 0x14(r1),r10
    2bec:	d4 01 60 18 	l.sw 0x18(r1),r12
    2bf0:	19 40 00 01 	l.movhi r10,0x1
    2bf4:	a9 4a 6e a8 	l.ori r10,r10,0x6ea8
    2bf8:	84 6a 00 00 	l.lwz r3,0x0(r10)
    2bfc:	bc 43 00 03 	l.sfgtui r3,0x3
    2c00:	0c 00 00 35 	l.bnf 2cd4 <_interruptHandler_NI_TX+0xfc>
    2c04:	15 00 00 00 	l.nop 0x0
    2c08:	84 6a 00 00 	l.lwz r3,0x0(r10)
    2c0c:	18 80 ff fe 	l.movhi r4,0xfffe
    2c10:	a8 84 ff ff 	l.ori r4,r4,0xffff
    2c14:	e4 a3 20 00 	l.sfleu r3,r4
    2c18:	10 00 00 21 	l.bf 2c9c <_interruptHandler_NI_TX+0xc4>
    2c1c:	15 00 00 00 	l.nop 0x0
    2c20:	84 6a 00 00 	l.lwz r3,0x0(r10)
    2c24:	9c a0 ff ff 	l.addi r5,r0,0xffffffff
    2c28:	a4 63 ff ff 	l.andi r3,r3,0xffff
    2c2c:	d4 0a 28 00 	l.sw 0x0(r10),r5
    2c30:	bd 43 00 04 	l.sfgtsi r3,0x4
    2c34:	10 00 00 07 	l.bf 2c50 <_interruptHandler_NI_TX+0x78>
    2c38:	9c 80 08 1c 	l.addi r4,r0,0x81c
    2c3c:	e0 63 23 06 	l.mul r3,r3,r4
    2c40:	18 80 00 01 	l.movhi r4,0x1
    2c44:	a8 84 ac c0 	l.ori r4,r4,0xacc0
    2c48:	e0 63 20 00 	l.add r3,r3,r4
    2c4c:	d4 03 28 00 	l.sw 0x0(r3),r5
    2c50:	18 60 00 01 	l.movhi r3,0x1
    2c54:	a8 63 6e b0 	l.ori r3,r3,0x6eb0
    2c58:	9c 80 55 55 	l.addi r4,r0,0x5555
    2c5c:	84 63 00 00 	l.lwz r3,0x0(r3)
    2c60:	d4 03 20 00 	l.sw 0x0(r3),r4
    2c64:	18 80 00 01 	l.movhi r4,0x1
    2c68:	a8 84 83 b0 	l.ori r4,r4,0x83b0
    2c6c:	84 84 00 00 	l.lwz r4,0x0(r4)
    2c70:	bc 44 00 04 	l.sfgtui r4,0x4
    2c74:	0c 00 00 1f 	l.bnf 2cf0 <_interruptHandler_NI_TX+0x118>
    2c78:	b8 64 00 0b 	l.slli r3,r4,0xb
    2c7c:	19 40 00 01 	l.movhi r10,0x1
    2c80:	a9 4a 6d a4 	l.ori r10,r10,0x6da4
    2c84:	84 6a 00 00 	l.lwz r3,0x0(r10)
    2c88:	bc 23 00 01 	l.sfnei r3,0x1
    2c8c:	10 00 00 27 	l.bf 2d28 <_interruptHandler_NI_TX+0x150>
    2c90:	15 00 00 00 	l.nop 0x0
    2c94:	00 00 00 1f 	l.j 2d10 <_interruptHandler_NI_TX+0x138>
    2c98:	15 00 00 00 	l.nop 0x0
    2c9c:	19 80 00 01 	l.movhi r12,0x1
    2ca0:	a9 8c 6e cc 	l.ori r12,r12,0x6ecc
    2ca4:	18 a0 00 01 	l.movhi r5,0x1
    2ca8:	a8 a5 58 c1 	l.ori r5,r5,0x58c1
    2cac:	84 6c 00 00 	l.lwz r3,0x0(r12)
    2cb0:	d4 01 28 00 	l.sw 0x0(r1),r5
    2cb4:	84 63 00 00 	l.lwz r3,0x0(r3)
    2cb8:	d4 01 18 04 	l.sw 0x4(r1),r3
    2cbc:	84 6a 00 00 	l.lwz r3,0x0(r10)
    2cc0:	d4 01 18 08 	l.sw 0x8(r1),r3
    2cc4:	04 00 15 e6 	l.jal 845c <_printf>
    2cc8:	15 00 00 00 	l.nop 0x0
    2ccc:	03 ff ff f6 	l.j 2ca4 <_interruptHandler_NI_TX+0xcc>
    2cd0:	15 00 00 00 	l.nop 0x0
    2cd4:	84 6a 00 00 	l.lwz r3,0x0(r10)
    2cd8:	07 ff fc 2f 	l.jal 1d94 <_bufferPop>
    2cdc:	15 00 00 00 	l.nop 0x0
    2ce0:	9c 60 ff ff 	l.addi r3,r0,0xffffffff
    2ce4:	d4 0a 18 00 	l.sw 0x0(r10),r3
    2ce8:	03 ff ff da 	l.j 2c50 <_interruptHandler_NI_TX+0x78>
    2cec:	15 00 00 00 	l.nop 0x0
    2cf0:	18 a0 00 01 	l.movhi r5,0x1
    2cf4:	a8 a5 8c b0 	l.ori r5,r5,0x8cb0
    2cf8:	07 ff fd 58 	l.jal 2258 <_SendSlot>
    2cfc:	e0 63 28 00 	l.add r3,r3,r5
    2d00:	07 ff fc 13 	l.jal 1d4c <_popSendAfterTX>
    2d04:	15 00 00 00 	l.nop 0x0
    2d08:	00 00 00 08 	l.j 2d28 <_interruptHandler_NI_TX+0x150>
    2d0c:	15 00 00 00 	l.nop 0x0
    2d10:	18 60 00 01 	l.movhi r3,0x1
    2d14:	a8 63 7b 90 	l.ori r3,r3,0x7b90
    2d18:	07 ff fd 50 	l.jal 2258 <_SendSlot>
    2d1c:	9c 80 ff fe 	l.addi r4,r0,0xfffffffe
    2d20:	9c 60 00 00 	l.addi r3,r0,0x0
    2d24:	d4 0a 18 00 	l.sw 0x0(r10),r3
    2d28:	85 21 00 0c 	l.lwz r9,0xc(r1)
    2d2c:	84 41 00 10 	l.lwz r2,0x10(r1)
    2d30:	85 41 00 14 	l.lwz r10,0x14(r1)
    2d34:	85 81 00 18 	l.lwz r12,0x18(r1)
    2d38:	44 00 48 00 	l.jr r9
    2d3c:	9c 21 00 1c 	l.addi r1,r1,0x1c

00002d40 <_sendFromMsgBuffer>:
    2d40:	9c 21 ff f8 	l.addi r1,r1,0xfffffff8
    2d44:	d4 01 10 04 	l.sw 0x4(r1),r2
    2d48:	9c 41 00 08 	l.addi r2,r1,0x8
    2d4c:	d4 01 48 00 	l.sw 0x0(r1),r9
    2d50:	b8 a3 00 02 	l.slli r5,r3,0x2
    2d54:	18 c0 00 01 	l.movhi r6,0x1
    2d58:	a8 c6 83 d0 	l.ori r6,r6,0x83d0
    2d5c:	9c 80 ff ff 	l.addi r4,r0,0xffffffff
    2d60:	e1 25 30 00 	l.add r9,r5,r6
    2d64:	9c e0 00 00 	l.addi r7,r0,0x0
    2d68:	19 00 00 01 	l.movhi r8,0x1
    2d6c:	a9 08 8c b0 	l.ori r8,r8,0x8cb0
    2d70:	18 c0 00 01 	l.movhi r6,0x1
    2d74:	a8 c6 7a 60 	l.ori r6,r6,0x7a60
    2d78:	84 a6 00 00 	l.lwz r5,0x0(r6)
    2d7c:	bc 25 00 01 	l.sfnei r5,0x1
    2d80:	10 00 00 09 	l.bf 2da4 <_sendFromMsgBuffer+0x64>
    2d84:	9c c6 00 04 	l.addi r6,r6,0x4
    2d88:	84 a8 00 08 	l.lwz r5,0x8(r8)
    2d8c:	e4 25 18 00 	l.sfne r5,r3
    2d90:	10 00 00 05 	l.bf 2da4 <_sendFromMsgBuffer+0x64>
    2d94:	15 00 00 00 	l.nop 0x0
    2d98:	84 89 00 00 	l.lwz r4,0x0(r9)
    2d9c:	d4 08 20 00 	l.sw 0x0(r8),r4
    2da0:	a8 87 00 00 	l.ori r4,r7,0x0
    2da4:	9c e7 00 01 	l.addi r7,r7,0x1
    2da8:	bd 47 00 03 	l.sfgtsi r7,0x3
    2dac:	0f ff ff f3 	l.bnf 2d78 <_sendFromMsgBuffer+0x38>
    2db0:	9d 08 08 00 	l.addi r8,r8,0x800
    2db4:	bc 04 ff ff 	l.sfeqi r4,0xffffffff
    2db8:	10 00 00 0f 	l.bf 2df4 <_sendFromMsgBuffer+0xb4>
    2dbc:	15 00 00 00 	l.nop 0x0
    2dc0:	18 a0 00 01 	l.movhi r5,0x1
    2dc4:	a8 a5 6e b0 	l.ori r5,r5,0x6eb0
    2dc8:	84 a5 00 00 	l.lwz r5,0x0(r5)
    2dcc:	84 a5 00 00 	l.lwz r5,0x0(r5)
    2dd0:	bc 25 00 ff 	l.sfnei r5,0xff
    2dd4:	10 00 00 10 	l.bf 2e14 <_sendFromMsgBuffer+0xd4>
    2dd8:	b8 64 00 0b 	l.slli r3,r4,0xb
    2ddc:	18 a0 00 01 	l.movhi r5,0x1
    2de0:	a8 a5 8c b0 	l.ori r5,r5,0x8cb0
    2de4:	07 ff fd 1d 	l.jal 2258 <_SendSlot>
    2de8:	e0 63 28 00 	l.add r3,r3,r5
    2dec:	00 00 00 12 	l.j 2e34 <_sendFromMsgBuffer+0xf4>
    2df0:	9d 60 00 01 	l.addi r11,r0,0x1
    2df4:	18 80 00 01 	l.movhi r4,0x1
    2df8:	a8 84 6e 98 	l.ori r4,r4,0x6e98
    2dfc:	84 a4 00 00 	l.lwz r5,0x0(r4)
    2e00:	bc 05 ff ff 	l.sfeqi r5,0xffffffff
    2e04:	0c 00 00 08 	l.bnf 2e24 <_sendFromMsgBuffer+0xe4>
    2e08:	15 00 00 00 	l.nop 0x0
    2e0c:	00 00 00 0a 	l.j 2e34 <_sendFromMsgBuffer+0xf4>
    2e10:	9d 60 00 00 	l.addi r11,r0,0x0
    2e14:	07 ff fb bb 	l.jal 1d00 <_addSendAfterTX>
    2e18:	a8 64 00 00 	l.ori r3,r4,0x0
    2e1c:	00 00 00 06 	l.j 2e34 <_sendFromMsgBuffer+0xf4>
    2e20:	9d 60 00 01 	l.addi r11,r0,0x1
    2e24:	84 84 00 00 	l.lwz r4,0x0(r4)
    2e28:	07 ff fd f8 	l.jal 2608 <_forwardMsgRequest>
    2e2c:	15 00 00 00 	l.nop 0x0
    2e30:	9d 60 00 01 	l.addi r11,r0,0x1
    2e34:	85 21 00 00 	l.lwz r9,0x0(r1)
    2e38:	84 41 00 04 	l.lwz r2,0x4(r1)
    2e3c:	44 00 48 00 	l.jr r9
    2e40:	9c 21 00 08 	l.addi r1,r1,0x8

00002e44 <_interruptHandler_NI_RX>:
    2e44:	9c 21 ff d8 	l.addi r1,r1,0xffffffd8
    2e48:	d4 01 10 0c 	l.sw 0xc(r1),r2
    2e4c:	9c 41 00 28 	l.addi r2,r1,0x28
    2e50:	d4 01 48 08 	l.sw 0x8(r1),r9
    2e54:	d4 01 50 10 	l.sw 0x10(r1),r10
    2e58:	d4 01 60 14 	l.sw 0x14(r1),r12
    2e5c:	d4 01 70 18 	l.sw 0x18(r1),r14
    2e60:	d4 01 80 1c 	l.sw 0x1c(r1),r16
    2e64:	d4 01 90 20 	l.sw 0x20(r1),r18
    2e68:	d4 01 a0 24 	l.sw 0x24(r1),r20
    2e6c:	1a 40 00 01 	l.movhi r18,0x1
    2e70:	aa 52 6d ac 	l.ori r18,r18,0x6dac
    2e74:	9c a0 00 00 	l.addi r5,r0,0x0
    2e78:	84 92 00 00 	l.lwz r4,0x0(r18)
    2e7c:	18 60 00 01 	l.movhi r3,0x1
    2e80:	a8 63 59 1c 	l.ori r3,r3,0x591c
    2e84:	19 80 00 01 	l.movhi r12,0x1
    2e88:	a9 8c 84 90 	l.ori r12,r12,0x8490
    2e8c:	86 04 00 00 	l.lwz r16,0x0(r4)
    2e90:	a9 cc 00 00 	l.ori r14,r12,0x0
    2e94:	d4 04 28 00 	l.sw 0x0(r4),r5
    2e98:	07 ff f9 b1 	l.jal 155c <_prints>
    2e9c:	15 00 00 00 	l.nop 0x0
    2ea0:	84 8c 00 0c 	l.lwz r4,0xc(r12)
    2ea4:	18 60 00 01 	l.movhi r3,0x1
    2ea8:	a8 63 59 43 	l.ori r3,r3,0x5943
    2eac:	07 ff fb 59 	l.jal 1c10 <_putsv>
    2eb0:	15 00 00 00 	l.nop 0x0
    2eb4:	84 6c 00 0c 	l.lwz r3,0xc(r12)
    2eb8:	bc 23 00 50 	l.sfnei r3,0x50
    2ebc:	10 00 00 05 	l.bf 2ed0 <_interruptHandler_NI_RX+0x8c>
    2ec0:	9c c0 00 01 	l.addi r6,r0,0x1
    2ec4:	18 60 00 01 	l.movhi r3,0x1
    2ec8:	a8 63 6e 7c 	l.ori r3,r3,0x6e7c
    2ecc:	d4 03 30 00 	l.sw 0x0(r3),r6
    2ed0:	84 6c 00 0c 	l.lwz r3,0xc(r12)
    2ed4:	bc 03 00 30 	l.sfeqi r3,0x30
    2ed8:	10 00 00 06 	l.bf 2ef0 <_interruptHandler_NI_RX+0xac>
    2edc:	15 00 00 00 	l.nop 0x0
    2ee0:	84 6c 00 0c 	l.lwz r3,0xc(r12)
    2ee4:	bc 03 00 40 	l.sfeqi r3,0x40
    2ee8:	0c 00 00 29 	l.bnf 2f8c <_interruptHandler_NI_RX+0x148>
    2eec:	15 00 00 00 	l.nop 0x0
    2ef0:	18 60 00 01 	l.movhi r3,0x1
    2ef4:	a8 63 84 60 	l.ori r3,r3,0x8460
    2ef8:	9c e0 00 01 	l.addi r7,r0,0x1
    2efc:	9d 00 00 00 	l.addi r8,r0,0x0
    2f00:	d4 03 38 00 	l.sw 0x0(r3),r7
    2f04:	a9 48 00 00 	l.ori r10,r8,0x0
    2f08:	18 60 00 01 	l.movhi r3,0x1
    2f0c:	a8 63 84 6c 	l.ori r3,r3,0x846c
    2f10:	d4 0e 40 0c 	l.sw 0xc(r14),r8
    2f14:	84 83 00 00 	l.lwz r4,0x0(r3)
    2f18:	84 6e 00 04 	l.lwz r3,0x4(r14)
    2f1c:	9c 63 ff fb 	l.addi r3,r3,0xfffffffb
    2f20:	e4 a3 40 00 	l.sfleu r3,r8
    2f24:	10 00 00 0d 	l.bf 2f58 <_interruptHandler_NI_RX+0x114>
    2f28:	d4 24 18 00 	l.sw 0x800(r4),r3
    2f2c:	a8 a3 00 00 	l.ori r5,r3,0x0
    2f30:	a8 64 00 00 	l.ori r3,r4,0x0
    2f34:	18 80 00 01 	l.movhi r4,0x1
    2f38:	a8 84 84 a0 	l.ori r4,r4,0x84a0
    2f3c:	84 c4 00 00 	l.lwz r6,0x0(r4)
    2f40:	9d 4a 00 01 	l.addi r10,r10,0x1
    2f44:	d4 03 30 00 	l.sw 0x0(r3),r6
    2f48:	9c 84 00 04 	l.addi r4,r4,0x4
    2f4c:	e4 6a 28 00 	l.sfgeu r10,r5
    2f50:	0f ff ff fb 	l.bnf 2f3c <_interruptHandler_NI_RX+0xf8>
    2f54:	9c 63 00 04 	l.addi r3,r3,0x4
    2f58:	19 40 00 01 	l.movhi r10,0x1
    2f5c:	a9 4a 6e a0 	l.ori r10,r10,0x6ea0
    2f60:	84 6a 00 00 	l.lwz r3,0x0(r10)
    2f64:	bc 23 00 01 	l.sfnei r3,0x1
    2f68:	0c 00 00 57 	l.bnf 30c4 <_interruptHandler_NI_RX+0x280>
    2f6c:	15 00 00 00 	l.nop 0x0
    2f70:	18 60 00 01 	l.movhi r3,0x1
    2f74:	a8 63 6e ac 	l.ori r3,r3,0x6eac
    2f78:	9d 00 55 55 	l.addi r8,r0,0x5555
    2f7c:	84 63 00 00 	l.lwz r3,0x0(r3)
    2f80:	d4 03 40 00 	l.sw 0x0(r3),r8
    2f84:	00 00 01 e7 	l.j 3720 <_interruptHandler_NI_RX+0x8dc>
    2f88:	84 72 00 00 	l.lwz r3,0x0(r18)
    2f8c:	84 6c 00 0c 	l.lwz r3,0xc(r12)
    2f90:	bc 03 00 50 	l.sfeqi r3,0x50
    2f94:	13 ff ff d7 	l.bf 2ef0 <_interruptHandler_NI_RX+0xac>
    2f98:	15 00 00 00 	l.nop 0x0
    2f9c:	84 6c 00 0c 	l.lwz r3,0xc(r12)
    2fa0:	bc 23 00 20 	l.sfnei r3,0x20
    2fa4:	0c 00 00 6e 	l.bnf 315c <_interruptHandler_NI_RX+0x318>
    2fa8:	15 00 00 00 	l.nop 0x0
    2fac:	84 6c 00 0c 	l.lwz r3,0xc(r12)
    2fb0:	bc 23 00 60 	l.sfnei r3,0x60
    2fb4:	0c 00 00 4a 	l.bnf 30dc <_interruptHandler_NI_RX+0x298>
    2fb8:	9d 00 00 01 	l.addi r8,r0,0x1
    2fbc:	84 6c 00 0c 	l.lwz r3,0xc(r12)
    2fc0:	bc 23 00 61 	l.sfnei r3,0x61
    2fc4:	0c 00 00 7f 	l.bnf 31c0 <_interruptHandler_NI_RX+0x37c>
    2fc8:	15 00 00 00 	l.nop 0x0
    2fcc:	84 6c 00 0c 	l.lwz r3,0xc(r12)
    2fd0:	bc 23 00 62 	l.sfnei r3,0x62
    2fd4:	0c 00 00 b2 	l.bnf 329c <_interruptHandler_NI_RX+0x458>
    2fd8:	15 00 00 00 	l.nop 0x0
    2fdc:	84 6c 00 0c 	l.lwz r3,0xc(r12)
    2fe0:	bc 23 00 63 	l.sfnei r3,0x63
    2fe4:	0c 00 00 d1 	l.bnf 3328 <_interruptHandler_NI_RX+0x4e4>
    2fe8:	15 00 00 00 	l.nop 0x0
    2fec:	84 6c 00 0c 	l.lwz r3,0xc(r12)
    2ff0:	bc 23 00 65 	l.sfnei r3,0x65
    2ff4:	0c 00 00 ec 	l.bnf 33a4 <_interruptHandler_NI_RX+0x560>
    2ff8:	15 00 00 00 	l.nop 0x0
    2ffc:	84 6c 00 0c 	l.lwz r3,0xc(r12)
    3000:	bc 23 00 64 	l.sfnei r3,0x64
    3004:	0c 00 00 f8 	l.bnf 33e4 <_interruptHandler_NI_RX+0x5a0>
    3008:	15 00 00 00 	l.nop 0x0
    300c:	84 6c 00 0c 	l.lwz r3,0xc(r12)
    3010:	bc 23 00 66 	l.sfnei r3,0x66
    3014:	0c 00 01 17 	l.bnf 3470 <_interruptHandler_NI_RX+0x62c>
    3018:	15 00 00 00 	l.nop 0x0
    301c:	84 6c 00 0c 	l.lwz r3,0xc(r12)
    3020:	bc 23 00 67 	l.sfnei r3,0x67
    3024:	0c 00 01 5a 	l.bnf 358c <_interruptHandler_NI_RX+0x748>
    3028:	15 00 00 00 	l.nop 0x0
    302c:	84 6c 00 0c 	l.lwz r3,0xc(r12)
    3030:	bc 23 00 70 	l.sfnei r3,0x70
    3034:	0c 00 01 43 	l.bnf 3540 <_interruptHandler_NI_RX+0x6fc>
    3038:	15 00 00 00 	l.nop 0x0
    303c:	84 6c 00 0c 	l.lwz r3,0xc(r12)
    3040:	bc 23 00 80 	l.sfnei r3,0x80
    3044:	0c 00 01 7c 	l.bnf 3634 <_interruptHandler_NI_RX+0x7f0>
    3048:	15 00 00 00 	l.nop 0x0
    304c:	84 6c 00 0c 	l.lwz r3,0xc(r12)
    3050:	bc 23 06 66 	l.sfnei r3,0x666
    3054:	0c 00 01 6d 	l.bnf 3608 <_interruptHandler_NI_RX+0x7c4>
    3058:	15 00 00 00 	l.nop 0x0
    305c:	84 6c 00 0c 	l.lwz r3,0xc(r12)
    3060:	bc 23 00 90 	l.sfnei r3,0x90
    3064:	10 00 01 5e 	l.bf 35dc <_interruptHandler_NI_RX+0x798>
    3068:	15 00 00 00 	l.nop 0x0
    306c:	84 8c 00 10 	l.lwz r4,0x10(r12)
    3070:	9c 64 fd 64 	l.addi r3,r4,0xfffffd64
    3074:	bc 43 01 4c 	l.sfgtui r3,0x14c
    3078:	10 00 01 8e 	l.bf 36b0 <_interruptHandler_NI_RX+0x86c>
    307c:	9c e0 00 02 	l.addi r7,r0,0x2
    3080:	18 60 00 01 	l.movhi r3,0x1
    3084:	a8 63 6d c0 	l.ori r3,r3,0x6dc0
    3088:	18 a0 00 01 	l.movhi r5,0x1
    308c:	a8 a5 6d bc 	l.ori r5,r5,0x6dbc
    3090:	d4 03 38 00 	l.sw 0x0(r3),r7
    3094:	d4 05 20 00 	l.sw 0x0(r5),r4
    3098:	18 60 00 01 	l.movhi r3,0x1
    309c:	a8 63 59 4d 	l.ori r3,r3,0x594d
    30a0:	07 ff fa dc 	l.jal 1c10 <_putsv>
    30a4:	84 85 00 00 	l.lwz r4,0x0(r5)
    30a8:	18 60 00 01 	l.movhi r3,0x1
    30ac:	a8 63 6e ac 	l.ori r3,r3,0x6eac
    30b0:	9c e0 55 55 	l.addi r7,r0,0x5555
    30b4:	84 63 00 00 	l.lwz r3,0x0(r3)
    30b8:	d4 03 38 00 	l.sw 0x0(r3),r7
    30bc:	00 00 01 99 	l.j 3720 <_interruptHandler_NI_RX+0x8dc>
    30c0:	84 72 00 00 	l.lwz r3,0x0(r18)
    30c4:	04 00 11 b7 	l.jal 77a0 <_int_disable>
    30c8:	9c 60 00 02 	l.addi r3,r0,0x2
    30cc:	9c e0 00 00 	l.addi r7,r0,0x0
    30d0:	d4 0a 38 00 	l.sw 0x0(r10),r7
    30d4:	03 ff ff a7 	l.j 2f70 <_interruptHandler_NI_RX+0x12c>
    30d8:	15 00 00 00 	l.nop 0x0
    30dc:	18 e0 00 01 	l.movhi r7,0x1
    30e0:	a8 e7 6e 88 	l.ori r7,r7,0x6e88
    30e4:	18 c0 00 01 	l.movhi r6,0x1
    30e8:	a8 c6 cd 48 	l.ori r6,r6,0xcd48
    30ec:	d4 07 40 00 	l.sw 0x0(r7),r8
    30f0:	9d 40 00 00 	l.addi r10,r0,0x0
    30f4:	84 6c 00 04 	l.lwz r3,0x4(r12)
    30f8:	9c 63 ff fb 	l.addi r3,r3,0xfffffffb
    30fc:	d4 06 18 00 	l.sw 0x0(r6),r3
    3100:	84 66 00 00 	l.lwz r3,0x0(r6)
    3104:	e4 a3 50 00 	l.sfleu r3,r10
    3108:	10 00 00 0c 	l.bf 3138 <_interruptHandler_NI_RX+0x2f4>
    310c:	9c ac 00 10 	l.addi r5,r12,0x10
    3110:	18 80 00 01 	l.movhi r4,0x1
    3114:	a8 84 83 d0 	l.ori r4,r4,0x83d0
    3118:	84 65 00 00 	l.lwz r3,0x0(r5)
    311c:	9d 4a 00 01 	l.addi r10,r10,0x1
    3120:	d4 04 18 00 	l.sw 0x0(r4),r3
    3124:	9c a5 00 04 	l.addi r5,r5,0x4
    3128:	84 66 00 00 	l.lwz r3,0x0(r6)
    312c:	e4 6a 18 00 	l.sfgeu r10,r3
    3130:	0f ff ff fa 	l.bnf 3118 <_interruptHandler_NI_RX+0x2d4>
    3134:	9c 84 00 04 	l.addi r4,r4,0x4
    3138:	9c 80 00 01 	l.addi r4,r0,0x1
    313c:	d4 07 20 00 	l.sw 0x0(r7),r4
    3140:	18 60 00 01 	l.movhi r3,0x1
    3144:	a8 63 6e ac 	l.ori r3,r3,0x6eac
    3148:	9c a0 55 55 	l.addi r5,r0,0x5555
    314c:	84 63 00 00 	l.lwz r3,0x0(r3)
    3150:	d4 03 28 00 	l.sw 0x0(r3),r5
    3154:	00 00 01 73 	l.j 3720 <_interruptHandler_NI_RX+0x8dc>
    3158:	84 72 00 00 	l.lwz r3,0x0(r18)
    315c:	84 8c 00 08 	l.lwz r4,0x8(r12)
    3160:	18 60 00 01 	l.movhi r3,0x1
    3164:	a8 63 59 9a 	l.ori r3,r3,0x599a
    3168:	07 ff fa aa 	l.jal 1c10 <_putsv>
    316c:	15 00 00 00 	l.nop 0x0
    3170:	85 4c 00 08 	l.lwz r10,0x8(r12)
    3174:	9c 60 00 00 	l.addi r3,r0,0x0
    3178:	d4 0c 18 0c 	l.sw 0xc(r12),r3
    317c:	07 ff fe f1 	l.jal 2d40 <_sendFromMsgBuffer>
    3180:	a8 6a 00 00 	l.ori r3,r10,0x0
    3184:	bc 2b 00 00 	l.sfnei r11,0x0
    3188:	13 ff ff ee 	l.bf 3140 <_interruptHandler_NI_RX+0x2fc>
    318c:	15 00 00 00 	l.nop 0x0
    3190:	18 60 00 01 	l.movhi r3,0x1
    3194:	a8 63 59 b9 	l.ori r3,r3,0x59b9
    3198:	07 ff f8 f1 	l.jal 155c <_prints>
    319c:	15 00 00 00 	l.nop 0x0
    31a0:	b8 6a 00 02 	l.slli r3,r10,0x2
    31a4:	18 80 00 01 	l.movhi r4,0x1
    31a8:	a8 84 cd 50 	l.ori r4,r4,0xcd50
    31ac:	85 8c 00 10 	l.lwz r12,0x10(r12)
    31b0:	e0 63 20 00 	l.add r3,r3,r4
    31b4:	d4 03 60 00 	l.sw 0x0(r3),r12
    31b8:	03 ff ff e2 	l.j 3140 <_interruptHandler_NI_RX+0x2fc>
    31bc:	15 00 00 00 	l.nop 0x0
    31c0:	18 60 00 01 	l.movhi r3,0x1
    31c4:	a8 63 59 d4 	l.ori r3,r3,0x59d4
    31c8:	1a 80 00 01 	l.movhi r20,0x1
    31cc:	aa 94 cd 48 	l.ori r20,r20,0xcd48
    31d0:	07 ff f8 e3 	l.jal 155c <_prints>
    31d4:	15 00 00 00 	l.nop 0x0
    31d8:	84 6c 00 04 	l.lwz r3,0x4(r12)
    31dc:	9d 40 00 00 	l.addi r10,r0,0x0
    31e0:	9c 63 ff fb 	l.addi r3,r3,0xfffffffb
    31e4:	d4 14 18 00 	l.sw 0x0(r20),r3
    31e8:	84 74 00 00 	l.lwz r3,0x0(r20)
    31ec:	e4 a3 50 00 	l.sfleu r3,r10
    31f0:	10 00 00 20 	l.bf 3270 <_interruptHandler_NI_RX+0x42c>
    31f4:	15 00 00 00 	l.nop 0x0
    31f8:	9d cc 00 10 	l.addi r14,r12,0x10
    31fc:	b9 8a 00 02 	l.slli r12,r10,0x2
    3200:	18 e0 00 01 	l.movhi r7,0x1
    3204:	a8 e7 7b 00 	l.ori r7,r7,0x7b00
    3208:	85 0e 00 00 	l.lwz r8,0x0(r14)
    320c:	e0 cc 38 00 	l.add r6,r12,r7
    3210:	a8 8a 00 00 	l.ori r4,r10,0x0
    3214:	d4 06 40 00 	l.sw 0x0(r6),r8
    3218:	18 60 00 01 	l.movhi r3,0x1
    321c:	a8 63 59 ed 	l.ori r3,r3,0x59ed
    3220:	84 c6 00 00 	l.lwz r6,0x0(r6)
    3224:	18 a0 00 01 	l.movhi r5,0x1
    3228:	a8 a5 57 bb 	l.ori r5,r5,0x57bb
    322c:	07 ff fa 0f 	l.jal 1a68 <_putsvsv>
    3230:	9d ce 00 04 	l.addi r14,r14,0x4
    3234:	18 60 00 01 	l.movhi r3,0x1
    3238:	a8 63 83 d0 	l.ori r3,r3,0x83d0
    323c:	a8 8a 00 00 	l.ori r4,r10,0x0
    3240:	e0 cc 18 00 	l.add r6,r12,r3
    3244:	18 a0 00 01 	l.movhi r5,0x1
    3248:	a8 a5 57 bb 	l.ori r5,r5,0x57bb
    324c:	84 c6 00 00 	l.lwz r6,0x0(r6)
    3250:	18 60 00 01 	l.movhi r3,0x1
    3254:	a8 63 5a 06 	l.ori r3,r3,0x5a06
    3258:	07 ff fa 04 	l.jal 1a68 <_putsvsv>
    325c:	9d 4a 00 01 	l.addi r10,r10,0x1
    3260:	84 74 00 00 	l.lwz r3,0x0(r20)
    3264:	e4 6a 18 00 	l.sfgeu r10,r3
    3268:	0f ff ff e6 	l.bnf 3200 <_interruptHandler_NI_RX+0x3bc>
    326c:	b9 8a 00 02 	l.slli r12,r10,0x2
    3270:	18 60 00 01 	l.movhi r3,0x1
    3274:	a8 63 6e ac 	l.ori r3,r3,0x6eac
    3278:	84 83 00 00 	l.lwz r4,0x0(r3)
    327c:	18 60 00 01 	l.movhi r3,0x1
    3280:	a8 63 6e 90 	l.ori r3,r3,0x6e90
    3284:	9c a0 00 01 	l.addi r5,r0,0x1
    3288:	d4 03 28 00 	l.sw 0x0(r3),r5
    328c:	9c c0 55 55 	l.addi r6,r0,0x5555
    3290:	d4 04 30 00 	l.sw 0x0(r4),r6
    3294:	00 00 01 23 	l.j 3720 <_interruptHandler_NI_RX+0x8dc>
    3298:	84 72 00 00 	l.lwz r3,0x0(r18)
    329c:	18 60 00 01 	l.movhi r3,0x1
    32a0:	a8 63 5a 1f 	l.ori r3,r3,0x5a1f
    32a4:	07 ff f8 ae 	l.jal 155c <_prints>
    32a8:	9d 40 00 00 	l.addi r10,r0,0x0
    32ac:	84 6c 00 04 	l.lwz r3,0x4(r12)
    32b0:	18 c0 00 01 	l.movhi r6,0x1
    32b4:	a8 c6 cd 48 	l.ori r6,r6,0xcd48
    32b8:	9c 63 ff fb 	l.addi r3,r3,0xfffffffb
    32bc:	d4 06 18 00 	l.sw 0x0(r6),r3
    32c0:	84 66 00 00 	l.lwz r3,0x0(r6)
    32c4:	e4 a3 50 00 	l.sfleu r3,r10
    32c8:	10 00 00 0d 	l.bf 32fc <_interruptHandler_NI_RX+0x4b8>
    32cc:	15 00 00 00 	l.nop 0x0
    32d0:	9c ac 00 10 	l.addi r5,r12,0x10
    32d4:	18 80 00 01 	l.movhi r4,0x1
    32d8:	a8 84 83 d0 	l.ori r4,r4,0x83d0
    32dc:	84 e5 00 00 	l.lwz r7,0x0(r5)
    32e0:	9d 4a 00 01 	l.addi r10,r10,0x1
    32e4:	d4 04 38 00 	l.sw 0x0(r4),r7
    32e8:	9c a5 00 04 	l.addi r5,r5,0x4
    32ec:	84 66 00 00 	l.lwz r3,0x0(r6)
    32f0:	e4 6a 18 00 	l.sfgeu r10,r3
    32f4:	0f ff ff fa 	l.bnf 32dc <_interruptHandler_NI_RX+0x498>
    32f8:	9c 84 00 04 	l.addi r4,r4,0x4
    32fc:	18 60 00 01 	l.movhi r3,0x1
    3300:	a8 63 6e ac 	l.ori r3,r3,0x6eac
    3304:	84 83 00 00 	l.lwz r4,0x0(r3)
    3308:	18 60 00 01 	l.movhi r3,0x1
    330c:	a8 63 6e 8c 	l.ori r3,r3,0x6e8c
    3310:	9d 00 00 01 	l.addi r8,r0,0x1
    3314:	d4 03 40 00 	l.sw 0x0(r3),r8
    3318:	9c 60 55 55 	l.addi r3,r0,0x5555
    331c:	d4 04 18 00 	l.sw 0x0(r4),r3
    3320:	00 00 01 00 	l.j 3720 <_interruptHandler_NI_RX+0x8dc>
    3324:	84 72 00 00 	l.lwz r3,0x0(r18)
    3328:	18 60 00 01 	l.movhi r3,0x1
    332c:	a8 63 5a 3a 	l.ori r3,r3,0x5a3a
    3330:	07 ff f8 8b 	l.jal 155c <_prints>
    3334:	9d 40 00 00 	l.addi r10,r0,0x0
    3338:	84 6c 00 04 	l.lwz r3,0x4(r12)
    333c:	18 c0 00 01 	l.movhi r6,0x1
    3340:	a8 c6 cd 48 	l.ori r6,r6,0xcd48
    3344:	9c 63 ff fb 	l.addi r3,r3,0xfffffffb
    3348:	d4 06 18 00 	l.sw 0x0(r6),r3
    334c:	84 66 00 00 	l.lwz r3,0x0(r6)
    3350:	e4 a3 50 00 	l.sfleu r3,r10
    3354:	10 00 00 0d 	l.bf 3388 <_interruptHandler_NI_RX+0x544>
    3358:	15 00 00 00 	l.nop 0x0
    335c:	9c ac 00 10 	l.addi r5,r12,0x10
    3360:	18 80 00 01 	l.movhi r4,0x1
    3364:	a8 84 83 d0 	l.ori r4,r4,0x83d0
    3368:	84 e5 00 00 	l.lwz r7,0x0(r5)
    336c:	9d 4a 00 01 	l.addi r10,r10,0x1
    3370:	d4 04 38 00 	l.sw 0x0(r4),r7
    3374:	9c a5 00 04 	l.addi r5,r5,0x4
    3378:	84 66 00 00 	l.lwz r3,0x0(r6)
    337c:	e4 6a 18 00 	l.sfgeu r10,r3
    3380:	0f ff ff fa 	l.bnf 3368 <_interruptHandler_NI_RX+0x524>
    3384:	9c 84 00 04 	l.addi r4,r4,0x4
    3388:	18 60 00 01 	l.movhi r3,0x1
    338c:	a8 63 6e ac 	l.ori r3,r3,0x6eac
    3390:	84 83 00 00 	l.lwz r4,0x0(r3)
    3394:	18 60 00 01 	l.movhi r3,0x1
    3398:	a8 63 6e 84 	l.ori r3,r3,0x6e84
    339c:	03 ff ff de 	l.j 3314 <_interruptHandler_NI_RX+0x4d0>
    33a0:	9d 00 00 01 	l.addi r8,r0,0x1
    33a4:	85 8c 00 10 	l.lwz r12,0x10(r12)
    33a8:	18 80 00 01 	l.movhi r4,0x1
    33ac:	a8 84 ac b8 	l.ori r4,r4,0xacb8
    33b0:	18 60 00 01 	l.movhi r3,0x1
    33b4:	a8 63 5a 50 	l.ori r3,r3,0x5a50
    33b8:	d4 04 60 00 	l.sw 0x0(r4),r12
    33bc:	84 84 00 00 	l.lwz r4,0x0(r4)
    33c0:	07 ff fa 14 	l.jal 1c10 <_putsv>
    33c4:	15 00 00 00 	l.nop 0x0
    33c8:	18 60 00 01 	l.movhi r3,0x1
    33cc:	a8 63 6e ac 	l.ori r3,r3,0x6eac
    33d0:	84 83 00 00 	l.lwz r4,0x0(r3)
    33d4:	18 60 00 01 	l.movhi r3,0x1
    33d8:	a8 63 6e 98 	l.ori r3,r3,0x6e98
    33dc:	03 ff ff ab 	l.j 3288 <_interruptHandler_NI_RX+0x444>
    33e0:	9c a0 ff ff 	l.addi r5,r0,0xffffffff
    33e4:	18 80 00 01 	l.movhi r4,0x1
    33e8:	a8 84 ac b8 	l.ori r4,r4,0xacb8
    33ec:	18 60 00 01 	l.movhi r3,0x1
    33f0:	a8 63 5a 65 	l.ori r3,r3,0x5a65
    33f4:	84 84 00 00 	l.lwz r4,0x0(r4)
    33f8:	07 ff fa 06 	l.jal 1c10 <_putsv>
    33fc:	15 00 00 00 	l.nop 0x0
    3400:	07 ff fa 16 	l.jal 1c58 <_getEmptyIndex>
    3404:	15 00 00 00 	l.nop 0x0
    3408:	bc 2b ff ff 	l.sfnei r11,0xffffffff
    340c:	0f ff ff fd 	l.bnf 3400 <_interruptHandler_NI_RX+0x5bc>
    3410:	a8 6b 00 00 	l.ori r3,r11,0x0
    3414:	b8 8b 00 0b 	l.slli r4,r11,0xb
    3418:	18 e0 00 01 	l.movhi r7,0x1
    341c:	a8 e7 8c b0 	l.ori r7,r7,0x8cb0
    3420:	9d 40 00 00 	l.addi r10,r0,0x0
    3424:	18 a0 00 01 	l.movhi r5,0x1
    3428:	a8 a5 84 a0 	l.ori r5,r5,0x84a0
    342c:	e0 84 38 00 	l.add r4,r4,r7
    3430:	85 05 00 00 	l.lwz r8,0x0(r5)
    3434:	9d 4a 00 01 	l.addi r10,r10,0x1
    3438:	d4 04 40 00 	l.sw 0x0(r4),r8
    343c:	9c a5 00 04 	l.addi r5,r5,0x4
    3440:	bd 4a 01 ff 	l.sfgtsi r10,0x1ff
    3444:	0f ff ff fb 	l.bnf 3430 <_interruptHandler_NI_RX+0x5ec>
    3448:	9c 84 00 04 	l.addi r4,r4,0x4
    344c:	07 ff fa 21 	l.jal 1cd0 <_bufferPush>
    3450:	15 00 00 00 	l.nop 0x0
    3454:	18 60 00 01 	l.movhi r3,0x1
    3458:	a8 63 6e ac 	l.ori r3,r3,0x6eac
    345c:	9c 80 55 55 	l.addi r4,r0,0x5555
    3460:	84 63 00 00 	l.lwz r3,0x0(r3)
    3464:	d4 03 20 00 	l.sw 0x0(r3),r4
    3468:	00 00 00 ae 	l.j 3720 <_interruptHandler_NI_RX+0x8dc>
    346c:	84 72 00 00 	l.lwz r3,0x0(r18)
    3470:	18 80 00 01 	l.movhi r4,0x1
    3474:	a8 84 ac b8 	l.ori r4,r4,0xacb8
    3478:	9d cc 00 10 	l.addi r14,r12,0x10
    347c:	84 84 00 00 	l.lwz r4,0x0(r4)
    3480:	18 60 00 01 	l.movhi r3,0x1
    3484:	a8 63 5a 79 	l.ori r3,r3,0x5a79
    3488:	19 80 00 01 	l.movhi r12,0x1
    348c:	a9 8c cd 50 	l.ori r12,r12,0xcd50
    3490:	07 ff f9 e0 	l.jal 1c10 <_putsv>
    3494:	9d 40 00 00 	l.addi r10,r0,0x0
    3498:	00 00 00 11 	l.j 34dc <_interruptHandler_NI_RX+0x698>
    349c:	15 00 00 00 	l.nop 0x0
    34a0:	84 6e 00 00 	l.lwz r3,0x0(r14)
    34a4:	bc 03 00 00 	l.sfeqi r3,0x0
    34a8:	10 00 00 11 	l.bf 34ec <_interruptHandler_NI_RX+0x6a8>
    34ac:	15 00 00 00 	l.nop 0x0
    34b0:	84 ae 00 00 	l.lwz r5,0x0(r14)
    34b4:	d4 0c 28 00 	l.sw 0x0(r12),r5
    34b8:	84 8c 00 00 	l.lwz r4,0x0(r12)
    34bc:	18 60 00 01 	l.movhi r3,0x1
    34c0:	a8 63 58 60 	l.ori r3,r3,0x5860
    34c4:	07 ff f9 d3 	l.jal 1c10 <_putsv>
    34c8:	9d 4a 00 01 	l.addi r10,r10,0x1
    34cc:	9d ce 00 04 	l.addi r14,r14,0x4
    34d0:	bd 4a 00 23 	l.sfgtsi r10,0x23
    34d4:	10 00 00 14 	l.bf 3524 <_interruptHandler_NI_RX+0x6e0>
    34d8:	9d 8c 00 04 	l.addi r12,r12,0x4
    34dc:	84 6c 00 00 	l.lwz r3,0x0(r12)
    34e0:	bc 23 00 00 	l.sfnei r3,0x0
    34e4:	0f ff ff ef 	l.bnf 34a0 <_interruptHandler_NI_RX+0x65c>
    34e8:	15 00 00 00 	l.nop 0x0
    34ec:	84 6c 00 00 	l.lwz r3,0x0(r12)
    34f0:	bc 03 00 00 	l.sfeqi r3,0x0
    34f4:	13 ff ff f1 	l.bf 34b8 <_interruptHandler_NI_RX+0x674>
    34f8:	15 00 00 00 	l.nop 0x0
    34fc:	84 8e 00 00 	l.lwz r4,0x0(r14)
    3500:	18 60 00 01 	l.movhi r3,0x1
    3504:	a8 63 5a 93 	l.ori r3,r3,0x5a93
    3508:	bc 04 00 00 	l.sfeqi r4,0x0
    350c:	13 ff ff eb 	l.bf 34b8 <_interruptHandler_NI_RX+0x674>
    3510:	15 00 00 00 	l.nop 0x0
    3514:	07 ff f8 12 	l.jal 155c <_prints>
    3518:	15 00 00 00 	l.nop 0x0
    351c:	03 ff ff e7 	l.j 34b8 <_interruptHandler_NI_RX+0x674>
    3520:	15 00 00 00 	l.nop 0x0
    3524:	18 60 00 01 	l.movhi r3,0x1
    3528:	a8 63 6e ac 	l.ori r3,r3,0x6eac
    352c:	9c c0 55 55 	l.addi r6,r0,0x5555
    3530:	84 63 00 00 	l.lwz r3,0x0(r3)
    3534:	d4 03 30 00 	l.sw 0x0(r3),r6
    3538:	00 00 00 7a 	l.j 3720 <_interruptHandler_NI_RX+0x8dc>
    353c:	84 72 00 00 	l.lwz r3,0x0(r18)
    3540:	84 8c 00 08 	l.lwz r4,0x8(r12)
    3544:	18 60 00 01 	l.movhi r3,0x1
    3548:	a8 63 5a b7 	l.ori r3,r3,0x5ab7
    354c:	07 ff f9 b1 	l.jal 1c10 <_putsv>
    3550:	15 00 00 00 	l.nop 0x0
    3554:	84 6c 00 08 	l.lwz r3,0x8(r12)
    3558:	18 c0 00 01 	l.movhi r6,0x1
    355c:	a8 c6 79 c0 	l.ori r6,r6,0x79c0
    3560:	9c e0 00 01 	l.addi r7,r0,0x1
    3564:	b8 83 00 02 	l.slli r4,r3,0x2
    3568:	9d 00 55 55 	l.addi r8,r0,0x5555
    356c:	18 60 00 01 	l.movhi r3,0x1
    3570:	a8 63 6e ac 	l.ori r3,r3,0x6eac
    3574:	84 a3 00 00 	l.lwz r5,0x0(r3)
    3578:	e0 64 30 00 	l.add r3,r4,r6
    357c:	d4 03 38 00 	l.sw 0x0(r3),r7
    3580:	d4 05 40 00 	l.sw 0x0(r5),r8
    3584:	00 00 00 67 	l.j 3720 <_interruptHandler_NI_RX+0x8dc>
    3588:	84 72 00 00 	l.lwz r3,0x0(r18)
    358c:	84 6c 00 10 	l.lwz r3,0x10(r12)
    3590:	07 ff f8 06 	l.jal 15a8 <_printi>
    3594:	15 00 00 00 	l.nop 0x0
    3598:	84 8c 00 10 	l.lwz r4,0x10(r12)
    359c:	19 00 00 01 	l.movhi r8,0x1
    35a0:	a9 08 83 d0 	l.ori r8,r8,0x83d0
    35a4:	18 60 00 01 	l.movhi r3,0x1
    35a8:	a8 63 5a cc 	l.ori r3,r3,0x5acc
    35ac:	a4 84 ff ff 	l.andi r4,r4,0xffff
    35b0:	84 cc 00 10 	l.lwz r6,0x10(r12)
    35b4:	b8 e4 00 02 	l.slli r7,r4,0x2
    35b8:	18 a0 00 01 	l.movhi r5,0x1
    35bc:	a8 a5 57 bb 	l.ori r5,r5,0x57bb
    35c0:	b8 c6 00 50 	l.srli r6,r6,0x10
    35c4:	e0 e7 40 00 	l.add r7,r7,r8
    35c8:	d4 07 30 00 	l.sw 0x0(r7),r6
    35cc:	07 ff f9 27 	l.jal 1a68 <_putsvsv>
    35d0:	15 00 00 00 	l.nop 0x0
    35d4:	03 ff ff a0 	l.j 3454 <_interruptHandler_NI_RX+0x610>
    35d8:	15 00 00 00 	l.nop 0x0
    35dc:	19 40 00 01 	l.movhi r10,0x1
    35e0:	a9 4a 6e cc 	l.ori r10,r10,0x6ecc
    35e4:	84 6a 00 00 	l.lwz r3,0x0(r10)
    35e8:	19 00 00 01 	l.movhi r8,0x1
    35ec:	a9 08 5a e4 	l.ori r8,r8,0x5ae4
    35f0:	d4 01 40 00 	l.sw 0x0(r1),r8
    35f4:	84 63 00 00 	l.lwz r3,0x0(r3)
    35f8:	04 00 13 99 	l.jal 845c <_printf>
    35fc:	d4 01 18 04 	l.sw 0x4(r1),r3
    3600:	03 ff ff fa 	l.j 35e8 <_interruptHandler_NI_RX+0x7a4>
    3604:	84 6a 00 00 	l.lwz r3,0x0(r10)
    3608:	18 60 00 01 	l.movhi r3,0x1
    360c:	a8 63 5b 38 	l.ori r3,r3,0x5b38
    3610:	07 ff f7 d3 	l.jal 155c <_prints>
    3614:	15 00 00 00 	l.nop 0x0
    3618:	18 60 00 01 	l.movhi r3,0x1
    361c:	a8 63 6e ac 	l.ori r3,r3,0x6eac
    3620:	84 83 00 00 	l.lwz r4,0x0(r3)
    3624:	18 60 00 01 	l.movhi r3,0x1
    3628:	a8 63 6e 80 	l.ori r3,r3,0x6e80
    362c:	03 ff ff 17 	l.j 3288 <_interruptHandler_NI_RX+0x444>
    3630:	9c a0 00 01 	l.addi r5,r0,0x1
    3634:	84 8c 00 08 	l.lwz r4,0x8(r12)
    3638:	18 60 00 01 	l.movhi r3,0x1
    363c:	a8 63 5b 5c 	l.ori r3,r3,0x5b5c
    3640:	18 a0 00 01 	l.movhi r5,0x1
    3644:	a8 a5 5b 73 	l.ori r5,r5,0x5b73
    3648:	84 cc 00 10 	l.lwz r6,0x10(r12)
    364c:	19 c0 00 01 	l.movhi r14,0x1
    3650:	a9 ce 6e 98 	l.ori r14,r14,0x6e98
    3654:	07 ff f9 05 	l.jal 1a68 <_putsvsv>
    3658:	9d 40 00 00 	l.addi r10,r0,0x0
    365c:	85 8c 00 10 	l.lwz r12,0x10(r12)
    3660:	d4 0e 60 00 	l.sw 0x0(r14),r12
    3664:	19 80 00 01 	l.movhi r12,0x1
    3668:	a9 8c cd 50 	l.ori r12,r12,0xcd50
    366c:	00 00 00 05 	l.j 3680 <_interruptHandler_NI_RX+0x83c>
    3670:	15 00 00 00 	l.nop 0x0
    3674:	bd 4a 00 23 	l.sfgtsi r10,0x23
    3678:	13 ff ff 77 	l.bf 3454 <_interruptHandler_NI_RX+0x610>
    367c:	9d 8c 00 04 	l.addi r12,r12,0x4
    3680:	84 8c 00 00 	l.lwz r4,0x0(r12)
    3684:	a8 6a 00 00 	l.ori r3,r10,0x0
    3688:	bc 04 00 00 	l.sfeqi r4,0x0
    368c:	13 ff ff fa 	l.bf 3674 <_interruptHandler_NI_RX+0x830>
    3690:	9d 4a 00 01 	l.addi r10,r10,0x1
    3694:	84 8e 00 00 	l.lwz r4,0x0(r14)
    3698:	07 ff fb dc 	l.jal 2608 <_forwardMsgRequest>
    369c:	15 00 00 00 	l.nop 0x0
    36a0:	9c 60 00 00 	l.addi r3,r0,0x0
    36a4:	d4 0c 18 00 	l.sw 0x0(r12),r3
    36a8:	03 ff ff f4 	l.j 3678 <_interruptHandler_NI_RX+0x834>
    36ac:	bd 4a 00 23 	l.sfgtsi r10,0x23
    36b0:	9c 64 fd a7 	l.addi r3,r4,0xfffffda7
    36b4:	bc 43 00 42 	l.sfgtui r3,0x42
    36b8:	10 00 00 08 	l.bf 36d8 <_interruptHandler_NI_RX+0x894>
    36bc:	9d 00 00 01 	l.addi r8,r0,0x1
    36c0:	18 60 00 01 	l.movhi r3,0x1
    36c4:	a8 63 6d c0 	l.ori r3,r3,0x6dc0
    36c8:	18 a0 00 01 	l.movhi r5,0x1
    36cc:	a8 a5 6d bc 	l.ori r5,r5,0x6dbc
    36d0:	03 ff fe 71 	l.j 3094 <_interruptHandler_NI_RX+0x250>
    36d4:	d4 03 40 00 	l.sw 0x0(r3),r8
    36d8:	9c 64 ff 9c 	l.addi r3,r4,0xffffff9c
    36dc:	bc 43 01 f4 	l.sfgtui r3,0x1f4
    36e0:	10 00 00 08 	l.bf 3700 <_interruptHandler_NI_RX+0x8bc>
    36e4:	9c c0 00 00 	l.addi r6,r0,0x0
    36e8:	18 60 00 01 	l.movhi r3,0x1
    36ec:	a8 63 6d c0 	l.ori r3,r3,0x6dc0
    36f0:	18 a0 00 01 	l.movhi r5,0x1
    36f4:	a8 a5 6d bc 	l.ori r5,r5,0x6dbc
    36f8:	03 ff fe 67 	l.j 3094 <_interruptHandler_NI_RX+0x250>
    36fc:	d4 03 30 00 	l.sw 0x0(r3),r6
    3700:	18 60 00 01 	l.movhi r3,0x1
    3704:	a8 63 5b 7f 	l.ori r3,r3,0x5b7f
    3708:	07 ff f9 42 	l.jal 1c10 <_putsv>
    370c:	15 00 00 00 	l.nop 0x0
    3710:	18 a0 00 01 	l.movhi r5,0x1
    3714:	a8 a5 6d bc 	l.ori r5,r5,0x6dbc
    3718:	03 ff fe 60 	l.j 3098 <_interruptHandler_NI_RX+0x254>
    371c:	15 00 00 00 	l.nop 0x0
    3720:	d4 03 80 00 	l.sw 0x0(r3),r16
    3724:	85 21 00 08 	l.lwz r9,0x8(r1)
    3728:	84 41 00 0c 	l.lwz r2,0xc(r1)
    372c:	85 41 00 10 	l.lwz r10,0x10(r1)
    3730:	85 81 00 14 	l.lwz r12,0x14(r1)
    3734:	85 c1 00 18 	l.lwz r14,0x18(r1)
    3738:	86 01 00 1c 	l.lwz r16,0x1c(r1)
    373c:	86 41 00 20 	l.lwz r18,0x20(r1)
    3740:	86 81 00 24 	l.lwz r20,0x24(r1)
    3744:	44 00 48 00 	l.jr r9
    3748:	9c 21 00 28 	l.addi r1,r1,0x28

0000374c <_setDVFS>:
    374c:	9c 21 ff f0 	l.addi r1,r1,0xfffffff0
    3750:	d4 01 10 04 	l.sw 0x4(r1),r2
    3754:	9c 41 00 10 	l.addi r2,r1,0x10
    3758:	d4 01 48 00 	l.sw 0x0(r1),r9
    375c:	d4 01 50 08 	l.sw 0x8(r1),r10
    3760:	d4 01 60 0c 	l.sw 0xc(r1),r12
    3764:	a9 43 00 00 	l.ori r10,r3,0x0
    3768:	07 ff f7 a2 	l.jal 15f0 <_getServiceIndex>
    376c:	a9 84 00 00 	l.ori r12,r4,0x0
    3770:	9c 60 08 1c 	l.addi r3,r0,0x81c
    3774:	18 a0 ff ff 	l.movhi r5,0xffff
    3778:	a8 a5 00 00 	l.ori r5,r5,0x0
    377c:	e0 6b 1b 06 	l.mul r3,r11,r3
    3780:	18 c0 00 01 	l.movhi r6,0x1
    3784:	a8 c6 ac c0 	l.ori r6,r6,0xacc0
    3788:	e0 8b 28 04 	l.or r4,r11,r5
    378c:	9d 00 00 06 	l.addi r8,r0,0x6
    3790:	e0 a3 30 00 	l.add r5,r3,r6
    3794:	d4 05 50 00 	l.sw 0x0(r5),r10
    3798:	9c c5 00 04 	l.addi r6,r5,0x4
    379c:	9c e5 00 08 	l.addi r7,r5,0x8
    37a0:	d4 06 40 00 	l.sw 0x0(r6),r8
    37a4:	a8 65 00 00 	l.ori r3,r5,0x0
    37a8:	18 c0 00 01 	l.movhi r6,0x1
    37ac:	a8 c6 6e 94 	l.ori r6,r6,0x6e94
    37b0:	9d 05 00 0c 	l.addi r8,r5,0xc
    37b4:	84 c6 00 00 	l.lwz r6,0x0(r6)
    37b8:	9c a5 00 10 	l.addi r5,r5,0x10
    37bc:	d4 07 30 00 	l.sw 0x0(r7),r6
    37c0:	9c c0 00 90 	l.addi r6,r0,0x90
    37c4:	d4 08 30 00 	l.sw 0x0(r8),r6
    37c8:	d4 05 60 00 	l.sw 0x0(r5),r12
    37cc:	07 ff fa a3 	l.jal 2258 <_SendSlot>
    37d0:	15 00 00 00 	l.nop 0x0
    37d4:	85 21 00 00 	l.lwz r9,0x0(r1)
    37d8:	84 41 00 04 	l.lwz r2,0x4(r1)
    37dc:	85 41 00 08 	l.lwz r10,0x8(r1)
    37e0:	85 81 00 0c 	l.lwz r12,0xc(r1)
    37e4:	44 00 48 00 	l.jr r9
    37e8:	9c 21 00 10 	l.addi r1,r1,0x10

000037ec <_energyEstimation>:
    37ec:	9c 21 ff a0 	l.addi r1,r1,0xffffffa0
    37f0:	d4 01 10 04 	l.sw 0x4(r1),r2
    37f4:	9c 41 00 60 	l.addi r2,r1,0x60
    37f8:	d4 01 48 00 	l.sw 0x0(r1),r9
    37fc:	d4 01 50 08 	l.sw 0x8(r1),r10
    3800:	d4 01 60 0c 	l.sw 0xc(r1),r12
    3804:	d4 01 70 10 	l.sw 0x10(r1),r14
    3808:	d4 01 80 14 	l.sw 0x14(r1),r16
    380c:	d4 01 90 18 	l.sw 0x18(r1),r18
    3810:	d4 01 a0 1c 	l.sw 0x1c(r1),r20
    3814:	d4 01 b0 20 	l.sw 0x20(r1),r22
    3818:	d4 01 c0 24 	l.sw 0x24(r1),r24
    381c:	d4 01 d0 28 	l.sw 0x28(r1),r26
    3820:	d4 01 e0 2c 	l.sw 0x2c(r1),r28
    3824:	d4 01 f0 30 	l.sw 0x30(r1),r30
    3828:	04 00 13 1c 	l.jal 8498 <_clock>
    382c:	9f 40 00 0b 	l.addi r26,r0,0xb
    3830:	a8 6b 00 00 	l.ori r3,r11,0x0
    3834:	18 80 00 01 	l.movhi r4,0x1
    3838:	a8 84 6d c8 	l.ori r4,r4,0x6dc8
    383c:	1a 00 00 01 	l.movhi r16,0x1
    3840:	aa 10 84 64 	l.ori r16,r16,0x8464
    3844:	85 64 00 00 	l.lwz r11,0x0(r4)
    3848:	1a 40 00 01 	l.movhi r18,0x1
    384c:	aa 52 cd 4c 	l.ori r18,r18,0xcd4c
    3850:	1a c0 00 01 	l.movhi r22,0x1
    3854:	aa d6 83 c8 	l.ori r22,r22,0x83c8
    3858:	e2 83 58 02 	l.sub r20,r3,r11
    385c:	1b 00 00 01 	l.movhi r24,0x1
    3860:	ab 18 83 c4 	l.ori r24,r24,0x83c4
    3864:	07 ff f5 f3 	l.jal 1030 <_read_class_inst>
    3868:	d4 04 18 00 	l.sw 0x0(r4),r3
    386c:	18 60 00 01 	l.movhi r3,0x1
    3870:	a8 63 83 cc 	l.ori r3,r3,0x83cc
    3874:	84 90 00 00 	l.lwz r4,0x0(r16)
    3878:	1b 80 00 01 	l.movhi r28,0x1
    387c:	ab 9c 83 c0 	l.ori r28,r28,0x83c0
    3880:	1b c0 00 01 	l.movhi r30,0x1
    3884:	ab de 84 70 	l.ori r30,r30,0x8470
    3888:	84 a3 00 00 	l.lwz r5,0x0(r3)
    388c:	b9 e4 00 46 	l.srli r15,r4,0x6
    3890:	84 f2 00 00 	l.lwz r7,0x0(r18)
    3894:	e0 64 28 00 	l.add r3,r4,r5
    3898:	b9 a5 00 46 	l.srli r13,r5,0x6
    389c:	85 16 00 00 	l.lwz r8,0x0(r22)
    38a0:	e0 63 38 00 	l.add r3,r3,r7
    38a4:	b9 87 00 46 	l.srli r12,r7,0x6
    38a8:	85 38 00 00 	l.lwz r9,0x0(r24)
    38ac:	e0 63 40 00 	l.add r3,r3,r8
    38b0:	b9 68 00 46 	l.srli r11,r8,0x6
    38b4:	85 dc 00 00 	l.lwz r14,0x0(r28)
    38b8:	e0 63 48 00 	l.add r3,r3,r9
    38bc:	18 a0 00 01 	l.movhi r5,0x1
    38c0:	a8 a5 79 20 	l.ori r5,r5,0x7920
    38c4:	84 de 00 00 	l.lwz r6,0x0(r30)
    38c8:	18 80 00 01 	l.movhi r4,0x1
    38cc:	a8 84 7a 50 	l.ori r4,r4,0x7a50
    38d0:	e0 63 70 00 	l.add r3,r3,r14
    38d4:	85 05 00 00 	l.lwz r8,0x0(r5)
    38d8:	e0 63 30 00 	l.add r3,r3,r6
    38dc:	b9 49 00 46 	l.srli r10,r9,0x6
    38e0:	84 e4 00 00 	l.lwz r7,0x0(r4)
    38e4:	18 a0 00 01 	l.movhi r5,0x1
    38e8:	a8 a5 cd e0 	l.ori r5,r5,0xcde0
    38ec:	b8 c6 00 46 	l.srli r6,r6,0x6
    38f0:	e0 63 38 00 	l.add r3,r3,r7
    38f4:	84 85 00 00 	l.lwz r4,0x0(r5)
    38f8:	e0 63 40 00 	l.add r3,r3,r8
    38fc:	b8 e7 00 46 	l.srli r7,r7,0x6
    3900:	b8 ae 00 46 	l.srli r5,r14,0x6
    3904:	b9 24 00 46 	l.srli r9,r4,0x6
    3908:	b9 08 00 46 	l.srli r8,r8,0x6
    390c:	e0 63 20 00 	l.add r3,r3,r4
    3910:	d7 e2 7f d4 	l.sw 0xffffffd4(r2),r15
    3914:	d7 e2 6f d8 	l.sw 0xffffffd8(r2),r13
    3918:	d7 e2 2f e8 	l.sw 0xffffffe8(r2),r5
    391c:	d7 e2 4f f8 	l.sw 0xfffffff8(r2),r9
    3920:	d7 e2 47 f4 	l.sw 0xfffffff4(r2),r8
    3924:	d7 e2 3f f0 	l.sw 0xfffffff0(r2),r7
    3928:	d7 e2 37 ec 	l.sw 0xffffffec(r2),r6
    392c:	d7 e2 67 dc 	l.sw 0xffffffdc(r2),r12
    3930:	d7 e2 57 e4 	l.sw 0xffffffe4(r2),r10
    3934:	d7 e2 1f fc 	l.sw 0xfffffffc(r2),r3
    3938:	07 ff f6 14 	l.jal 1188 <_estimateNoCActivity>
    393c:	d7 e2 5f e0 	l.sw 0xffffffe0(r2),r11
    3940:	a9 4b 00 00 	l.ori r10,r11,0x0
    3944:	18 60 00 01 	l.movhi r3,0x1
    3948:	a8 63 5b be 	l.ori r3,r3,0x5bbe
    394c:	07 ff f7 04 	l.jal 155c <_prints>
    3950:	e1 94 58 02 	l.sub r12,r20,r11
    3954:	07 ff f7 15 	l.jal 15a8 <_printi>
    3958:	84 70 00 00 	l.lwz r3,0x0(r16)
    395c:	18 60 00 01 	l.movhi r3,0x1
    3960:	a8 63 5b c9 	l.ori r3,r3,0x5bc9
    3964:	07 ff f6 fe 	l.jal 155c <_prints>
    3968:	15 00 00 00 	l.nop 0x0
    396c:	07 ff f7 0f 	l.jal 15a8 <_printi>
    3970:	84 72 00 00 	l.lwz r3,0x0(r18)
    3974:	18 60 00 01 	l.movhi r3,0x1
    3978:	a8 63 5b c9 	l.ori r3,r3,0x5bc9
    397c:	07 ff f6 f8 	l.jal 155c <_prints>
    3980:	15 00 00 00 	l.nop 0x0
    3984:	07 ff f7 09 	l.jal 15a8 <_printi>
    3988:	84 76 00 00 	l.lwz r3,0x0(r22)
    398c:	18 60 00 01 	l.movhi r3,0x1
    3990:	a8 63 5b c9 	l.ori r3,r3,0x5bc9
    3994:	07 ff f6 f2 	l.jal 155c <_prints>
    3998:	15 00 00 00 	l.nop 0x0
    399c:	07 ff f7 03 	l.jal 15a8 <_printi>
    39a0:	84 78 00 00 	l.lwz r3,0x0(r24)
    39a4:	18 60 00 01 	l.movhi r3,0x1
    39a8:	a8 63 5b c9 	l.ori r3,r3,0x5bc9
    39ac:	07 ff f6 ec 	l.jal 155c <_prints>
    39b0:	15 00 00 00 	l.nop 0x0
    39b4:	07 ff f6 fd 	l.jal 15a8 <_printi>
    39b8:	84 7c 00 00 	l.lwz r3,0x0(r28)
    39bc:	18 60 00 01 	l.movhi r3,0x1
    39c0:	a8 63 5b c9 	l.ori r3,r3,0x5bc9
    39c4:	07 ff f6 e6 	l.jal 155c <_prints>
    39c8:	15 00 00 00 	l.nop 0x0
    39cc:	07 ff f6 f7 	l.jal 15a8 <_printi>
    39d0:	84 7e 00 00 	l.lwz r3,0x0(r30)
    39d4:	18 60 00 01 	l.movhi r3,0x1
    39d8:	a8 63 5b c9 	l.ori r3,r3,0x5bc9
    39dc:	07 ff f6 e0 	l.jal 155c <_prints>
    39e0:	15 00 00 00 	l.nop 0x0
    39e4:	18 c0 00 01 	l.movhi r6,0x1
    39e8:	a8 c6 7a 50 	l.ori r6,r6,0x7a50
    39ec:	07 ff f6 ef 	l.jal 15a8 <_printi>
    39f0:	84 66 00 00 	l.lwz r3,0x0(r6)
    39f4:	18 60 00 01 	l.movhi r3,0x1
    39f8:	a8 63 5b c9 	l.ori r3,r3,0x5bc9
    39fc:	07 ff f6 d8 	l.jal 155c <_prints>
    3a00:	15 00 00 00 	l.nop 0x0
    3a04:	18 e0 00 01 	l.movhi r7,0x1
    3a08:	a8 e7 79 20 	l.ori r7,r7,0x7920
    3a0c:	07 ff f6 e7 	l.jal 15a8 <_printi>
    3a10:	84 67 00 00 	l.lwz r3,0x0(r7)
    3a14:	18 60 00 01 	l.movhi r3,0x1
    3a18:	a8 63 5b c9 	l.ori r3,r3,0x5bc9
    3a1c:	07 ff f6 d0 	l.jal 155c <_prints>
    3a20:	15 00 00 00 	l.nop 0x0
    3a24:	19 00 00 01 	l.movhi r8,0x1
    3a28:	a9 08 83 cc 	l.ori r8,r8,0x83cc
    3a2c:	07 ff f6 df 	l.jal 15a8 <_printi>
    3a30:	84 68 00 00 	l.lwz r3,0x0(r8)
    3a34:	18 60 00 01 	l.movhi r3,0x1
    3a38:	a8 63 5b c9 	l.ori r3,r3,0x5bc9
    3a3c:	07 ff f6 c8 	l.jal 155c <_prints>
    3a40:	15 00 00 00 	l.nop 0x0
    3a44:	18 80 00 01 	l.movhi r4,0x1
    3a48:	a8 84 cd e0 	l.ori r4,r4,0xcde0
    3a4c:	07 ff f6 d7 	l.jal 15a8 <_printi>
    3a50:	84 64 00 00 	l.lwz r3,0x0(r4)
    3a54:	18 60 00 01 	l.movhi r3,0x1
    3a58:	a8 63 5b c9 	l.ori r3,r3,0x5bc9
    3a5c:	07 ff f6 c0 	l.jal 155c <_prints>
    3a60:	15 00 00 00 	l.nop 0x0
    3a64:	18 60 00 01 	l.movhi r3,0x1
    3a68:	a8 63 6d d0 	l.ori r3,r3,0x6dd0
    3a6c:	07 ff f6 cf 	l.jal 15a8 <_printi>
    3a70:	84 63 00 00 	l.lwz r3,0x0(r3)
    3a74:	18 60 00 01 	l.movhi r3,0x1
    3a78:	a8 63 5b c9 	l.ori r3,r3,0x5bc9
    3a7c:	07 ff f6 b8 	l.jal 155c <_prints>
    3a80:	15 00 00 00 	l.nop 0x0
    3a84:	18 60 00 01 	l.movhi r3,0x1
    3a88:	a8 63 6d cc 	l.ori r3,r3,0x6dcc
    3a8c:	07 ff f6 c7 	l.jal 15a8 <_printi>
    3a90:	84 63 00 00 	l.lwz r3,0x0(r3)
    3a94:	18 60 00 01 	l.movhi r3,0x1
    3a98:	a8 63 5b c9 	l.ori r3,r3,0x5bc9
    3a9c:	07 ff f6 b0 	l.jal 155c <_prints>
    3aa0:	15 00 00 00 	l.nop 0x0
    3aa4:	07 ff f6 c1 	l.jal 15a8 <_printi>
    3aa8:	a8 6a 00 00 	l.ori r3,r10,0x0
    3aac:	18 60 00 01 	l.movhi r3,0x1
    3ab0:	a8 63 5b c9 	l.ori r3,r3,0x5bc9
    3ab4:	07 ff f6 aa 	l.jal 155c <_prints>
    3ab8:	15 00 00 00 	l.nop 0x0
    3abc:	07 ff f6 bb 	l.jal 15a8 <_printi>
    3ac0:	a8 6c 00 00 	l.ori r3,r12,0x0
    3ac4:	18 60 00 01 	l.movhi r3,0x1
    3ac8:	a8 63 57 ae 	l.ori r3,r3,0x57ae
    3acc:	07 ff f6 a4 	l.jal 155c <_prints>
    3ad0:	15 00 00 00 	l.nop 0x0
    3ad4:	18 60 00 01 	l.movhi r3,0x1
    3ad8:	a8 63 6d c4 	l.ori r3,r3,0x6dc4
    3adc:	18 a0 00 01 	l.movhi r5,0x1
    3ae0:	a8 a5 45 28 	l.ori r5,r5,0x4528
    3ae4:	86 c3 00 00 	l.lwz r22,0x0(r3)
    3ae8:	18 c0 00 01 	l.movhi r6,0x1
    3aec:	a8 c6 45 64 	l.ori r6,r6,0x4564
    3af0:	18 e0 00 01 	l.movhi r7,0x1
    3af4:	a8 e7 45 88 	l.ori r7,r7,0x4588
    3af8:	b9 56 00 02 	l.slli r10,r22,0x2
    3afc:	19 00 00 01 	l.movhi r8,0x1
    3b00:	a9 08 45 34 	l.ori r8,r8,0x4534
    3b04:	86 42 ff ec 	l.lwz r18,0xffffffec(r2)
    3b08:	e0 6a 28 00 	l.add r3,r10,r5
    3b0c:	9c 80 00 0a 	l.addi r4,r0,0xa
    3b10:	e0 aa 30 00 	l.add r5,r10,r6
    3b14:	87 02 ff e8 	l.lwz r24,0xffffffe8(r2)
    3b18:	e0 ca 38 00 	l.add r6,r10,r7
    3b1c:	e0 ea 40 00 	l.add r7,r10,r8
    3b20:	86 06 00 00 	l.lwz r16,0x0(r6)
    3b24:	e2 78 90 00 	l.add r19,r24,r18
    3b28:	85 03 00 00 	l.lwz r8,0x0(r3)
    3b2c:	18 60 00 01 	l.movhi r3,0x1
    3b30:	a8 63 45 58 	l.ori r3,r3,0x4558
    3b34:	84 a5 00 00 	l.lwz r5,0x0(r5)
    3b38:	e1 2a 18 00 	l.add r9,r10,r3
    3b3c:	18 60 00 01 	l.movhi r3,0x1
    3b40:	a8 63 45 70 	l.ori r3,r3,0x4570
    3b44:	86 27 00 00 	l.lwz r17,0x0(r7)
    3b48:	e1 6a 18 00 	l.add r11,r10,r3
    3b4c:	18 60 00 01 	l.movhi r3,0x1
    3b50:	a8 63 45 40 	l.ori r3,r3,0x4540
    3b54:	85 eb 00 00 	l.lwz r15,0x0(r11)
    3b58:	e1 aa 18 00 	l.add r13,r10,r3
    3b5c:	18 60 00 01 	l.movhi r3,0x1
    3b60:	a8 63 45 7c 	l.ori r3,r3,0x457c
    3b64:	84 ed 00 00 	l.lwz r7,0x0(r13)
    3b68:	e1 ca 18 00 	l.add r14,r10,r3
    3b6c:	18 60 00 01 	l.movhi r3,0x1
    3b70:	a8 63 45 4c 	l.ori r3,r3,0x454c
    3b74:	85 6e 00 00 	l.lwz r11,0x0(r14)
    3b78:	e0 ca 18 00 	l.add r6,r10,r3
    3b7c:	84 62 ff e0 	l.lwz r3,0xffffffe0(r2)
    3b80:	e1 88 1b 06 	l.mul r12,r8,r3
    3b84:	84 62 ff e4 	l.lwz r3,0xffffffe4(r2)
    3b88:	e0 a5 1b 06 	l.mul r5,r5,r3
    3b8c:	85 09 00 00 	l.lwz r8,0x0(r9)
    3b90:	85 26 00 00 	l.lwz r9,0x0(r6)
    3b94:	84 62 ff d4 	l.lwz r3,0xffffffd4(r2)
    3b98:	e0 ac 28 00 	l.add r5,r12,r5
    3b9c:	e1 08 9b 06 	l.mul r8,r8,r19
    3ba0:	e0 d0 1b 06 	l.mul r6,r16,r3
    3ba4:	84 62 ff dc 	l.lwz r3,0xffffffdc(r2)
    3ba8:	e0 71 1b 06 	l.mul r3,r17,r3
    3bac:	e0 66 18 00 	l.add r3,r6,r3
    3bb0:	e0 c5 18 00 	l.add r6,r5,r3
    3bb4:	84 62 ff f0 	l.lwz r3,0xfffffff0(r2)
    3bb8:	e0 af 1b 06 	l.mul r5,r15,r3
    3bbc:	84 62 ff f4 	l.lwz r3,0xfffffff4(r2)
    3bc0:	e0 e7 1b 06 	l.mul r7,r7,r3
    3bc4:	e0 68 28 00 	l.add r3,r8,r5
    3bc8:	e0 c3 30 00 	l.add r6,r3,r6
    3bcc:	84 62 ff d8 	l.lwz r3,0xffffffd8(r2)
    3bd0:	e0 ab 1b 06 	l.mul r5,r11,r3
    3bd4:	84 62 ff f8 	l.lwz r3,0xfffffff8(r2)
    3bd8:	e0 a7 28 00 	l.add r5,r7,r5
    3bdc:	e1 69 1b 06 	l.mul r11,r9,r3
    3be0:	e0 65 30 00 	l.add r3,r5,r6
    3be4:	e1 c3 58 00 	l.add r14,r3,r11
    3be8:	04 00 10 84 	l.jal 7df8 <___udivsi3>
    3bec:	e0 6e d3 06 	l.mul r3,r14,r26
    3bf0:	18 80 00 01 	l.movhi r4,0x1
    3bf4:	a8 84 45 1c 	l.ori r4,r4,0x451c
    3bf8:	18 c0 00 01 	l.movhi r6,0x1
    3bfc:	a8 c6 45 10 	l.ori r6,r6,0x4510
    3c00:	e0 6a 20 00 	l.add r3,r10,r4
    3c04:	e0 aa 30 00 	l.add r5,r10,r6
    3c08:	84 83 00 00 	l.lwz r4,0x0(r3)
    3c0c:	b9 14 00 46 	l.srli r8,r20,0x6
    3c10:	a9 cb 00 00 	l.ori r14,r11,0x0
    3c14:	e0 c4 c3 06 	l.mul r6,r4,r24
    3c18:	84 e5 00 00 	l.lwz r7,0x0(r5)
    3c1c:	18 80 00 01 	l.movhi r4,0x1
    3c20:	a8 84 6d b4 	l.ori r4,r4,0x6db4
    3c24:	84 a4 00 00 	l.lwz r5,0x0(r4)
    3c28:	e0 87 93 06 	l.mul r4,r7,r18
    3c2c:	bc 05 00 00 	l.sfeqi r5,0x0
    3c30:	10 00 00 5c 	l.bf 3da0 <_energyEstimation+0x5b4>
    3c34:	e2 46 20 00 	l.add r18,r6,r4
    3c38:	e0 76 28 00 	l.add r3,r22,r5
    3c3c:	18 e0 00 01 	l.movhi r7,0x1
    3c40:	a8 e7 45 ac 	l.ori r7,r7,0x45ac
    3c44:	b8 a3 00 02 	l.slli r5,r3,0x2
    3c48:	9c 80 00 0a 	l.addi r4,r0,0xa
    3c4c:	18 60 00 01 	l.movhi r3,0x1
    3c50:	a8 63 6d b0 	l.ori r3,r3,0x6db0
    3c54:	86 03 00 00 	l.lwz r16,0x0(r3)
    3c58:	e0 65 38 00 	l.add r3,r5,r7
    3c5c:	b9 10 00 46 	l.srli r8,r16,0x6
    3c60:	84 63 00 00 	l.lwz r3,0x0(r3)
    3c64:	e0 63 43 06 	l.mul r3,r3,r8
    3c68:	04 00 10 64 	l.jal 7df8 <___udivsi3>
    3c6c:	e0 63 d3 06 	l.mul r3,r3,r26
    3c70:	19 00 00 01 	l.movhi r8,0x1
    3c74:	a9 08 45 ac 	l.ori r8,r8,0x45ac
    3c78:	e0 74 80 02 	l.sub r3,r20,r16
    3c7c:	e0 8a 40 00 	l.add r4,r10,r8
    3c80:	a9 8b 00 00 	l.ori r12,r11,0x0
    3c84:	b9 03 00 46 	l.srli r8,r3,0x6
    3c88:	84 64 00 00 	l.lwz r3,0x0(r4)
    3c8c:	e0 63 43 06 	l.mul r3,r3,r8
    3c90:	9c 80 00 0a 	l.addi r4,r0,0xa
    3c94:	04 00 10 59 	l.jal 7df8 <___udivsi3>
    3c98:	e0 63 d3 06 	l.mul r3,r3,r26
    3c9c:	e1 8c 58 00 	l.add r12,r12,r11
    3ca0:	19 40 00 01 	l.movhi r10,0x1
    3ca4:	a9 4a cd 30 	l.ori r10,r10,0xcd30
    3ca8:	84 a2 ff fc 	l.lwz r5,0xfffffffc(r2)
    3cac:	9c 60 00 00 	l.addi r3,r0,0x0
    3cb0:	e1 6c 70 00 	l.add r11,r12,r14
    3cb4:	d4 0a 60 0c 	l.sw 0xc(r10),r12
    3cb8:	d4 0a 28 10 	l.sw 0x10(r10),r5
    3cbc:	d4 0a 18 04 	l.sw 0x4(r10),r3
    3cc0:	a8 83 00 00 	l.ori r4,r3,0x0
    3cc4:	d4 0a 58 00 	l.sw 0x0(r10),r11
    3cc8:	d4 0a 90 08 	l.sw 0x8(r10),r18
    3ccc:	19 80 00 01 	l.movhi r12,0x1
    3cd0:	a9 8c 7b 90 	l.ori r12,r12,0x7b90
    3cd4:	07 ff f6 3f 	l.jal 15d0 <_makeAddress>
    3cd8:	d4 0a a0 14 	l.sw 0x14(r10),r20
    3cdc:	d4 0c 58 00 	l.sw 0x0(r12),r11
    3ce0:	9c c0 00 09 	l.addi r6,r0,0x9
    3ce4:	d4 0c 30 04 	l.sw 0x4(r12),r6
    3ce8:	04 00 11 ec 	l.jal 8498 <_clock>
    3cec:	15 00 00 00 	l.nop 0x0
    3cf0:	18 60 00 01 	l.movhi r3,0x1
    3cf4:	a8 63 ac b0 	l.ori r3,r3,0xacb0
    3cf8:	84 aa 00 00 	l.lwz r5,0x0(r10)
    3cfc:	9c e0 00 40 	l.addi r7,r0,0x40
    3d00:	84 63 00 00 	l.lwz r3,0x0(r3)
    3d04:	e1 6b 18 02 	l.sub r11,r11,r3
    3d08:	84 8a 00 08 	l.lwz r4,0x8(r10)
    3d0c:	84 6a 00 04 	l.lwz r3,0x4(r10)
    3d10:	e0 65 18 00 	l.add r3,r5,r3
    3d14:	d4 0c 58 08 	l.sw 0x8(r12),r11
    3d18:	e0 83 20 00 	l.add r4,r3,r4
    3d1c:	85 0a 00 14 	l.lwz r8,0x14(r10)
    3d20:	18 60 00 01 	l.movhi r3,0x1
    3d24:	a8 63 6e cc 	l.ori r3,r3,0x6ecc
    3d28:	d4 0c 38 0c 	l.sw 0xc(r12),r7
    3d2c:	84 a3 00 00 	l.lwz r5,0x0(r3)
    3d30:	d4 0c 40 10 	l.sw 0x10(r12),r8
    3d34:	85 4a 00 0c 	l.lwz r10,0xc(r10)
    3d38:	18 60 00 01 	l.movhi r3,0x1
    3d3c:	a8 63 6e b0 	l.ori r3,r3,0x6eb0
    3d40:	d4 0c 20 14 	l.sw 0x14(r12),r4
    3d44:	d4 0c 50 18 	l.sw 0x18(r12),r10
    3d48:	84 83 00 00 	l.lwz r4,0x0(r3)
    3d4c:	84 a5 00 00 	l.lwz r5,0x0(r5)
    3d50:	18 60 00 01 	l.movhi r3,0x1
    3d54:	a8 63 84 68 	l.ori r3,r3,0x8468
    3d58:	d4 0c 28 1c 	l.sw 0x1c(r12),r5
    3d5c:	d4 03 58 00 	l.sw 0x0(r3),r11
    3d60:	84 64 00 00 	l.lwz r3,0x0(r4)
    3d64:	bc 23 00 ff 	l.sfnei r3,0xff
    3d68:	10 00 00 08 	l.bf 3d88 <_energyEstimation+0x59c>
    3d6c:	15 00 00 00 	l.nop 0x0
    3d70:	18 60 00 01 	l.movhi r3,0x1
    3d74:	a8 63 6e 9c 	l.ori r3,r3,0x6e9c
    3d78:	84 63 00 00 	l.lwz r3,0x0(r3)
    3d7c:	bc 23 00 00 	l.sfnei r3,0x0
    3d80:	0c 00 00 12 	l.bnf 3dc8 <_energyEstimation+0x5dc>
    3d84:	a8 6c 00 00 	l.ori r3,r12,0x0
    3d88:	18 60 00 01 	l.movhi r3,0x1
    3d8c:	a8 63 6d a4 	l.ori r3,r3,0x6da4
    3d90:	9c 80 00 01 	l.addi r4,r0,0x1
    3d94:	d4 03 20 00 	l.sw 0x0(r3),r4
    3d98:	00 00 00 0e 	l.j 3dd0 <_energyEstimation+0x5e4>
    3d9c:	15 00 00 00 	l.nop 0x0
    3da0:	18 80 00 01 	l.movhi r4,0x1
    3da4:	a8 84 45 ac 	l.ori r4,r4,0x45ac
    3da8:	e0 6a 20 00 	l.add r3,r10,r4
    3dac:	84 63 00 00 	l.lwz r3,0x0(r3)
    3db0:	9c 80 00 0a 	l.addi r4,r0,0xa
    3db4:	e0 63 43 06 	l.mul r3,r3,r8
    3db8:	04 00 10 10 	l.jal 7df8 <___udivsi3>
    3dbc:	e0 63 d3 06 	l.mul r3,r3,r26
    3dc0:	03 ff ff b8 	l.j 3ca0 <_energyEstimation+0x4b4>
    3dc4:	a9 8b 00 00 	l.ori r12,r11,0x0
    3dc8:	07 ff f9 24 	l.jal 2258 <_SendSlot>
    3dcc:	9c 80 ff fe 	l.addi r4,r0,0xfffffffe
    3dd0:	85 21 00 00 	l.lwz r9,0x0(r1)
    3dd4:	84 41 00 04 	l.lwz r2,0x4(r1)
    3dd8:	85 41 00 08 	l.lwz r10,0x8(r1)
    3ddc:	85 81 00 0c 	l.lwz r12,0xc(r1)
    3de0:	85 c1 00 10 	l.lwz r14,0x10(r1)
    3de4:	86 01 00 14 	l.lwz r16,0x14(r1)
    3de8:	86 41 00 18 	l.lwz r18,0x18(r1)
    3dec:	86 81 00 1c 	l.lwz r20,0x1c(r1)
    3df0:	86 c1 00 20 	l.lwz r22,0x20(r1)
    3df4:	87 01 00 24 	l.lwz r24,0x24(r1)
    3df8:	87 41 00 28 	l.lwz r26,0x28(r1)
    3dfc:	87 81 00 2c 	l.lwz r28,0x2c(r1)
    3e00:	87 c1 00 30 	l.lwz r30,0x30(r1)
    3e04:	44 00 48 00 	l.jr r9
    3e08:	9c 21 00 60 	l.addi r1,r1,0x60

00003e0c <_interruptHandler_timer>:
    3e0c:	9c 21 ff f0 	l.addi r1,r1,0xfffffff0
    3e10:	d4 01 10 04 	l.sw 0x4(r1),r2
    3e14:	9c 41 00 10 	l.addi r2,r1,0x10
    3e18:	d4 01 48 00 	l.sw 0x0(r1),r9
    3e1c:	d4 01 50 08 	l.sw 0x8(r1),r10
    3e20:	d4 01 60 0c 	l.sw 0xc(r1),r12
    3e24:	19 80 00 01 	l.movhi r12,0x1
    3e28:	a9 8c 6d ac 	l.ori r12,r12,0x6dac
    3e2c:	84 6c 00 00 	l.lwz r3,0x0(r12)
    3e30:	85 43 00 00 	l.lwz r10,0x0(r3)
    3e34:	07 ff fe 6e 	l.jal 37ec <_energyEstimation>
    3e38:	15 00 00 00 	l.nop 0x0
    3e3c:	18 60 00 01 	l.movhi r3,0x1
    3e40:	a8 63 6d a8 	l.ori r3,r3,0x6da8
    3e44:	84 83 00 00 	l.lwz r4,0x0(r3)
    3e48:	18 60 00 01 	l.movhi r3,0x1
    3e4c:	a8 63 6d bc 	l.ori r3,r3,0x6dbc
    3e50:	84 63 00 00 	l.lwz r3,0x0(r3)
    3e54:	d4 04 18 00 	l.sw 0x0(r4),r3
    3e58:	18 60 00 01 	l.movhi r3,0x1
    3e5c:	a8 63 6e c8 	l.ori r3,r3,0x6ec8
    3e60:	18 80 00 01 	l.movhi r4,0x1
    3e64:	a8 84 6d c0 	l.ori r4,r4,0x6dc0
    3e68:	84 a3 00 00 	l.lwz r5,0x0(r3)
    3e6c:	84 84 00 00 	l.lwz r4,0x0(r4)
    3e70:	18 60 00 01 	l.movhi r3,0x1
    3e74:	a8 63 6d c4 	l.ori r3,r3,0x6dc4
    3e78:	d4 03 20 00 	l.sw 0x0(r3),r4
    3e7c:	9c 80 ff ff 	l.addi r4,r0,0xffffffff
    3e80:	84 6c 00 00 	l.lwz r3,0x0(r12)
    3e84:	d4 05 20 00 	l.sw 0x0(r5),r4
    3e88:	d4 03 50 00 	l.sw 0x0(r3),r10
    3e8c:	85 21 00 00 	l.lwz r9,0x0(r1)
    3e90:	84 41 00 04 	l.lwz r2,0x4(r1)
    3e94:	85 41 00 08 	l.lwz r10,0x8(r1)
    3e98:	85 81 00 0c 	l.lwz r12,0xc(r1)
    3e9c:	44 00 48 00 	l.jr r9
    3ea0:	9c 21 00 10 	l.addi r1,r1,0x10

00003ea4 <_FinishApplication>:
    3ea4:	9c 21 ff ec 	l.addi r1,r1,0xffffffec
    3ea8:	d4 01 10 0c 	l.sw 0xc(r1),r2
    3eac:	9c 41 00 14 	l.addi r2,r1,0x14
    3eb0:	d4 01 48 08 	l.sw 0x8(r1),r9
    3eb4:	d4 01 50 10 	l.sw 0x10(r1),r10
    3eb8:	9c c0 00 01 	l.addi r6,r0,0x1
    3ebc:	9c a0 00 00 	l.addi r5,r0,0x0
    3ec0:	18 80 00 01 	l.movhi r4,0x1
    3ec4:	a8 84 7a 60 	l.ori r4,r4,0x7a60
    3ec8:	84 64 00 00 	l.lwz r3,0x0(r4)
    3ecc:	9c a5 00 01 	l.addi r5,r5,0x1
    3ed0:	bc 03 00 00 	l.sfeqi r3,0x0
    3ed4:	10 00 00 03 	l.bf 3ee0 <_FinishApplication+0x3c>
    3ed8:	9c 84 00 04 	l.addi r4,r4,0x4
    3edc:	9c c0 00 00 	l.addi r6,r0,0x0
    3ee0:	bc 45 00 03 	l.sfgtui r5,0x3
    3ee4:	0f ff ff f9 	l.bnf 3ec8 <_FinishApplication+0x24>
    3ee8:	bc 26 00 00 	l.sfnei r6,0x0
    3eec:	0f ff ff f4 	l.bnf 3ebc <_FinishApplication+0x18>
    3ef0:	9c c0 00 01 	l.addi r6,r0,0x1
    3ef4:	18 80 00 01 	l.movhi r4,0x1
    3ef8:	a8 84 6d ac 	l.ori r4,r4,0x6dac
    3efc:	9c a0 00 01 	l.addi r5,r0,0x1
    3f00:	84 84 00 00 	l.lwz r4,0x0(r4)
    3f04:	18 60 00 01 	l.movhi r3,0x1
    3f08:	a8 63 5b cb 	l.ori r3,r3,0x5bcb
    3f0c:	19 40 00 01 	l.movhi r10,0x1
    3f10:	a9 4a 6e cc 	l.ori r10,r10,0x6ecc
    3f14:	d4 04 28 00 	l.sw 0x0(r4),r5
    3f18:	07 ff f5 91 	l.jal 155c <_prints>
    3f1c:	15 00 00 00 	l.nop 0x0
    3f20:	18 60 00 01 	l.movhi r3,0x1
    3f24:	a8 63 5b ec 	l.ori r3,r3,0x5bec
    3f28:	07 ff f5 8d 	l.jal 155c <_prints>
    3f2c:	15 00 00 00 	l.nop 0x0
    3f30:	84 6a 00 00 	l.lwz r3,0x0(r10)
    3f34:	84 63 00 00 	l.lwz r3,0x0(r3)
    3f38:	07 ff f5 9c 	l.jal 15a8 <_printi>
    3f3c:	15 00 00 00 	l.nop 0x0
    3f40:	18 60 00 01 	l.movhi r3,0x1
    3f44:	a8 63 57 ae 	l.ori r3,r3,0x57ae
    3f48:	07 ff f5 85 	l.jal 155c <_prints>
    3f4c:	15 00 00 00 	l.nop 0x0
    3f50:	18 80 00 01 	l.movhi r4,0x1
    3f54:	a8 84 5b f9 	l.ori r4,r4,0x5bf9
    3f58:	84 6a 00 00 	l.lwz r3,0x0(r10)
    3f5c:	d4 01 20 00 	l.sw 0x0(r1),r4
    3f60:	84 63 00 00 	l.lwz r3,0x0(r3)
    3f64:	04 00 11 3e 	l.jal 845c <_printf>
    3f68:	d4 01 18 04 	l.sw 0x4(r1),r3
    3f6c:	18 60 00 01 	l.movhi r3,0x1
    3f70:	a8 63 6e bc 	l.ori r3,r3,0x6ebc
    3f74:	84 83 00 00 	l.lwz r4,0x0(r3)
    3f78:	18 60 00 01 	l.movhi r3,0x1
    3f7c:	a8 63 6e b8 	l.ori r3,r3,0x6eb8
    3f80:	84 a3 00 00 	l.lwz r5,0x0(r3)
    3f84:	9c 60 00 ff 	l.addi r3,r0,0xff
    3f88:	d4 04 18 00 	l.sw 0x0(r4),r3
    3f8c:	84 65 00 00 	l.lwz r3,0x0(r5)
    3f90:	bc 03 00 00 	l.sfeqi r3,0x0
    3f94:	10 00 00 06 	l.bf 3fac <_FinishApplication+0x108>
    3f98:	a8 85 00 00 	l.ori r4,r5,0x0
    3f9c:	84 64 00 00 	l.lwz r3,0x0(r4)
    3fa0:	bc 03 00 00 	l.sfeqi r3,0x0
    3fa4:	0f ff ff fe 	l.bnf 3f9c <_FinishApplication+0xf8>
    3fa8:	15 00 00 00 	l.nop 0x0
    3fac:	07 ff f5 a6 	l.jal 1644 <_ReportExecutedInstructions>
    3fb0:	15 00 00 00 	l.nop 0x0
    3fb4:	18 80 00 01 	l.movhi r4,0x1
    3fb8:	a8 84 5c 0f 	l.ori r4,r4,0x5c0f
    3fbc:	84 6a 00 00 	l.lwz r3,0x0(r10)
    3fc0:	d4 01 20 00 	l.sw 0x0(r1),r4
    3fc4:	84 63 00 00 	l.lwz r3,0x0(r3)
    3fc8:	04 00 11 25 	l.jal 845c <_printf>
    3fcc:	d4 01 18 04 	l.sw 0x4(r1),r3
    3fd0:	85 21 00 08 	l.lwz r9,0x8(r1)
    3fd4:	84 41 00 0c 	l.lwz r2,0xc(r1)
    3fd8:	85 41 00 10 	l.lwz r10,0x10(r1)
    3fdc:	44 00 48 00 	l.jr r9
    3fe0:	9c 21 00 14 	l.addi r1,r1,0x14

00003fe4 <_random>:
    3fe4:	9c 21 ff fc 	l.addi r1,r1,0xfffffffc
    3fe8:	d4 01 10 00 	l.sw 0x0(r1),r2
    3fec:	9c 41 00 04 	l.addi r2,r1,0x4
    3ff0:	19 60 56 70 	l.movhi r11,0x5670
    3ff4:	a9 6b d6 70 	l.ori r11,r11,0xd670
    3ff8:	84 41 00 00 	l.lwz r2,0x0(r1)
    3ffc:	44 00 48 00 	l.jr r9
    4000:	9c 21 00 04 	l.addi r1,r1,0x4

00004004 <_disable_interruptions>:
    4004:	9c 21 ff fc 	l.addi r1,r1,0xfffffffc
    4008:	d4 01 10 00 	l.sw 0x0(r1),r2
    400c:	9c 41 00 04 	l.addi r2,r1,0x4
    4010:	9c 80 00 11 	l.addi r4,r0,0x11
    4014:	b4 64 00 00 	l.mfspr r3,r4,0x0
    4018:	a4 63 ff fb 	l.andi r3,r3,0xfffb
    401c:	c0 04 18 00 	l.mtspr r4,r3,0x0
    4020:	84 41 00 00 	l.lwz r2,0x0(r1)
    4024:	44 00 48 00 	l.jr r9
    4028:	9c 21 00 04 	l.addi r1,r1,0x4

0000402c <_sendFinishTask>:
    402c:	9c 21 ff f4 	l.addi r1,r1,0xfffffff4
    4030:	d4 01 10 04 	l.sw 0x4(r1),r2
    4034:	9c 41 00 0c 	l.addi r2,r1,0xc
    4038:	d4 01 48 00 	l.sw 0x0(r1),r9
    403c:	d4 01 50 08 	l.sw 0x8(r1),r10
    4040:	07 ff f5 6c 	l.jal 15f0 <_getServiceIndex>
    4044:	a9 43 00 00 	l.ori r10,r3,0x0
    4048:	18 60 ff ff 	l.movhi r3,0xffff
    404c:	a8 63 00 00 	l.ori r3,r3,0x0
    4050:	18 c0 00 01 	l.movhi r6,0x1
    4054:	a8 c6 ac c0 	l.ori r6,r6,0xacc0
    4058:	e0 8b 18 04 	l.or r4,r11,r3
    405c:	9d 00 00 00 	l.addi r8,r0,0x0
    4060:	9c 60 08 1c 	l.addi r3,r0,0x81c
    4064:	e0 6b 1b 06 	l.mul r3,r11,r3
    4068:	e0 a3 30 00 	l.add r5,r3,r6
    406c:	d4 05 40 00 	l.sw 0x0(r5),r8
    4070:	9c c5 00 04 	l.addi r6,r5,0x4
    4074:	9d 00 00 05 	l.addi r8,r0,0x5
    4078:	9c e5 00 08 	l.addi r7,r5,0x8
    407c:	d4 06 40 00 	l.sw 0x0(r6),r8
    4080:	a8 65 00 00 	l.ori r3,r5,0x0
    4084:	d4 07 50 00 	l.sw 0x0(r7),r10
    4088:	9c a5 00 0c 	l.addi r5,r5,0xc
    408c:	9c c0 00 70 	l.addi r6,r0,0x70
    4090:	d4 05 30 00 	l.sw 0x0(r5),r6
    4094:	07 ff f8 71 	l.jal 2258 <_SendSlot>
    4098:	15 00 00 00 	l.nop 0x0
    409c:	85 21 00 00 	l.lwz r9,0x0(r1)
    40a0:	84 41 00 04 	l.lwz r2,0x4(r1)
    40a4:	85 41 00 08 	l.lwz r10,0x8(r1)
    40a8:	44 00 48 00 	l.jr r9
    40ac:	9c 21 00 0c 	l.addi r1,r1,0xc

000040b0 <_printFinish>:
    40b0:	9c 21 ff f0 	l.addi r1,r1,0xfffffff0
    40b4:	d4 01 10 04 	l.sw 0x4(r1),r2
    40b8:	9c 41 00 10 	l.addi r2,r1,0x10
    40bc:	d4 01 48 00 	l.sw 0x0(r1),r9
    40c0:	d4 01 50 08 	l.sw 0x8(r1),r10
    40c4:	d4 01 60 0c 	l.sw 0xc(r1),r12
    40c8:	18 80 00 01 	l.movhi r4,0x1
    40cc:	a8 84 6e 94 	l.ori r4,r4,0x6e94
    40d0:	18 60 00 01 	l.movhi r3,0x1
    40d4:	a8 63 5c 32 	l.ori r3,r3,0x5c32
    40d8:	84 84 00 00 	l.lwz r4,0x0(r4)
    40dc:	19 80 00 01 	l.movhi r12,0x1
    40e0:	a9 8c cd 50 	l.ori r12,r12,0xcd50
    40e4:	07 ff f6 cb 	l.jal 1c10 <_putsv>
    40e8:	9d 40 00 00 	l.addi r10,r0,0x0
    40ec:	18 60 00 01 	l.movhi r3,0x1
    40f0:	a8 63 5c 46 	l.ori r3,r3,0x5c46
    40f4:	07 ff f5 1a 	l.jal 155c <_prints>
    40f8:	15 00 00 00 	l.nop 0x0
    40fc:	a8 8a 00 00 	l.ori r4,r10,0x0
    4100:	84 cc 00 00 	l.lwz r6,0x0(r12)
    4104:	18 60 00 01 	l.movhi r3,0x1
    4108:	a8 63 5c 66 	l.ori r3,r3,0x5c66
    410c:	18 a0 00 01 	l.movhi r5,0x1
    4110:	a8 a5 57 bb 	l.ori r5,r5,0x57bb
    4114:	07 ff f6 55 	l.jal 1a68 <_putsvsv>
    4118:	9d 4a 00 01 	l.addi r10,r10,0x1
    411c:	bd 4a 00 23 	l.sfgtsi r10,0x23
    4120:	0f ff ff f7 	l.bnf 40fc <_printFinish+0x4c>
    4124:	9d 8c 00 04 	l.addi r12,r12,0x4
    4128:	18 60 00 01 	l.movhi r3,0x1
    412c:	a8 63 5c 72 	l.ori r3,r3,0x5c72
    4130:	19 80 00 01 	l.movhi r12,0x1
    4134:	a9 8c 7a 60 	l.ori r12,r12,0x7a60
    4138:	07 ff f5 09 	l.jal 155c <_prints>
    413c:	9d 40 00 00 	l.addi r10,r0,0x0
    4140:	a8 8a 00 00 	l.ori r4,r10,0x0
    4144:	84 cc 00 00 	l.lwz r6,0x0(r12)
    4148:	18 60 00 01 	l.movhi r3,0x1
    414c:	a8 63 5c 8f 	l.ori r3,r3,0x5c8f
    4150:	18 a0 00 01 	l.movhi r5,0x1
    4154:	a8 a5 57 bb 	l.ori r5,r5,0x57bb
    4158:	07 ff f6 44 	l.jal 1a68 <_putsvsv>
    415c:	9d 4a 00 01 	l.addi r10,r10,0x1
    4160:	bd 4a 00 03 	l.sfgtsi r10,0x3
    4164:	0f ff ff f7 	l.bnf 4140 <_printFinish+0x90>
    4168:	9d 8c 00 04 	l.addi r12,r12,0x4
    416c:	85 21 00 00 	l.lwz r9,0x0(r1)
    4170:	84 41 00 04 	l.lwz r2,0x4(r1)
    4174:	85 41 00 08 	l.lwz r10,0x8(r1)
    4178:	85 81 00 0c 	l.lwz r12,0xc(r1)
    417c:	44 00 48 00 	l.jr r9
    4180:	9c 21 00 10 	l.addi r1,r1,0x10

00004184 <_synthetic_taskA>:
    4184:	9c 21 ff f0 	l.addi r1,r1,0xfffffff0
    4188:	d4 01 10 04 	l.sw 0x4(r1),r2
    418c:	9c 41 00 10 	l.addi r2,r1,0x10
    4190:	d4 01 48 00 	l.sw 0x0(r1),r9
    4194:	d4 01 50 08 	l.sw 0x8(r1),r10
    4198:	d4 01 60 0c 	l.sw 0xc(r1),r12
    419c:	a8 83 00 00 	l.ori r4,r3,0x0
    41a0:	18 60 00 01 	l.movhi r3,0x1
    41a4:	a8 63 5c 9b 	l.ori r3,r3,0x5c9b
    41a8:	07 ff f4 ed 	l.jal 155c <_prints>
    41ac:	a9 44 00 00 	l.ori r10,r4,0x0
    41b0:	bd 4a 03 e7 	l.sfgtsi r10,0x3e7
    41b4:	10 00 00 30 	l.bf 4274 <_synthetic_taskA+0xf0>
    41b8:	9c 60 00 00 	l.addi r3,r0,0x0
    41bc:	19 80 00 01 	l.movhi r12,0x1
    41c0:	a9 8c cd f0 	l.ori r12,r12,0xcdf0
    41c4:	9c 63 00 01 	l.addi r3,r3,0x1
    41c8:	bd 43 03 e7 	l.sfgtsi r3,0x3e7
    41cc:	0f ff ff fe 	l.bnf 41c4 <_synthetic_taskA+0x40>
    41d0:	9c 80 00 00 	l.addi r4,r0,0x0
    41d4:	9c 60 00 1e 	l.addi r3,r0,0x1e
    41d8:	d4 2c 18 00 	l.sw 0x800(r12),r3
    41dc:	18 60 00 01 	l.movhi r3,0x1
    41e0:	a8 63 cd f0 	l.ori r3,r3,0xcdf0
    41e4:	d4 03 50 00 	l.sw 0x0(r3),r10
    41e8:	9c 84 00 01 	l.addi r4,r4,0x1
    41ec:	bd 44 00 1d 	l.sfgtsi r4,0x1d
    41f0:	0f ff ff fd 	l.bnf 41e4 <_synthetic_taskA+0x60>
    41f4:	9c 63 00 04 	l.addi r3,r3,0x4
    41f8:	18 60 00 01 	l.movhi r3,0x1
    41fc:	a8 63 cd f0 	l.ori r3,r3,0xcdf0
    4200:	07 ff f8 8f 	l.jal 243c <_SendMessage>
    4204:	9c 80 00 02 	l.addi r4,r0,0x2
    4208:	04 00 10 a4 	l.jal 8498 <_clock>
    420c:	15 00 00 00 	l.nop 0x0
    4210:	07 ff f4 e6 	l.jal 15a8 <_printi>
    4214:	a8 6b 00 00 	l.ori r3,r11,0x0
    4218:	18 60 00 01 	l.movhi r3,0x1
    421c:	a8 63 5c b6 	l.ori r3,r3,0x5cb6
    4220:	07 ff f4 cf 	l.jal 155c <_prints>
    4224:	15 00 00 00 	l.nop 0x0
    4228:	04 00 10 9c 	l.jal 8498 <_clock>
    422c:	15 00 00 00 	l.nop 0x0
    4230:	07 ff f4 de 	l.jal 15a8 <_printi>
    4234:	a8 6b 00 00 	l.ori r3,r11,0x0
    4238:	07 ff f4 dc 	l.jal 15a8 <_printi>
    423c:	a8 6a 00 00 	l.ori r3,r10,0x0
    4240:	18 60 00 01 	l.movhi r3,0x1
    4244:	a8 63 57 ae 	l.ori r3,r3,0x57ae
    4248:	07 ff f4 c5 	l.jal 155c <_prints>
    424c:	15 00 00 00 	l.nop 0x0
    4250:	07 ff f5 d9 	l.jal 19b4 <_get_migration_src>
    4254:	15 00 00 00 	l.nop 0x0
    4258:	bc 0b 00 00 	l.sfeqi r11,0x0
    425c:	0c 00 00 0c 	l.bnf 428c <_synthetic_taskA+0x108>
    4260:	15 00 00 00 	l.nop 0x0
    4264:	9d 4a 00 01 	l.addi r10,r10,0x1
    4268:	bd 4a 03 e7 	l.sfgtsi r10,0x3e7
    426c:	0f ff ff d6 	l.bnf 41c4 <_synthetic_taskA+0x40>
    4270:	9c 60 00 00 	l.addi r3,r0,0x0
    4274:	18 60 00 01 	l.movhi r3,0x1
    4278:	a8 63 5c bd 	l.ori r3,r3,0x5cbd
    427c:	07 ff f4 b8 	l.jal 155c <_prints>
    4280:	15 00 00 00 	l.nop 0x0
    4284:	00 00 00 09 	l.j 42a8 <_synthetic_taskA+0x124>
    4288:	9d 60 00 00 	l.addi r11,r0,0x0
    428c:	18 60 00 01 	l.movhi r3,0x1
    4290:	a8 63 5c d9 	l.ori r3,r3,0x5cd9
    4294:	07 ff f4 b2 	l.jal 155c <_prints>
    4298:	15 00 00 00 	l.nop 0x0
    429c:	07 ff f5 9e 	l.jal 1914 <_clear_migration_src>
    42a0:	15 00 00 00 	l.nop 0x0
    42a4:	9d 6a 00 01 	l.addi r11,r10,0x1
    42a8:	85 21 00 00 	l.lwz r9,0x0(r1)
    42ac:	84 41 00 04 	l.lwz r2,0x4(r1)
    42b0:	85 41 00 08 	l.lwz r10,0x8(r1)
    42b4:	85 81 00 0c 	l.lwz r12,0xc(r1)
    42b8:	44 00 48 00 	l.jr r9
    42bc:	9c 21 00 10 	l.addi r1,r1,0x10

000042c0 <_synthetic_taskB>:
    42c0:	9c 21 ff f0 	l.addi r1,r1,0xfffffff0
    42c4:	d4 01 10 04 	l.sw 0x4(r1),r2
    42c8:	9c 41 00 10 	l.addi r2,r1,0x10
    42cc:	d4 01 48 00 	l.sw 0x0(r1),r9
    42d0:	d4 01 50 08 	l.sw 0x8(r1),r10
    42d4:	d4 01 60 0c 	l.sw 0xc(r1),r12
    42d8:	a8 83 00 00 	l.ori r4,r3,0x0
    42dc:	18 60 00 01 	l.movhi r3,0x1
    42e0:	a8 63 5c f6 	l.ori r3,r3,0x5cf6
    42e4:	07 ff f4 9e 	l.jal 155c <_prints>
    42e8:	a9 44 00 00 	l.ori r10,r4,0x0
    42ec:	bd 4a 03 e7 	l.sfgtsi r10,0x3e7
    42f0:	10 00 00 30 	l.bf 43b0 <_synthetic_taskB+0xf0>
    42f4:	9c 60 00 00 	l.addi r3,r0,0x0
    42f8:	19 80 00 01 	l.movhi r12,0x1
    42fc:	a9 8c cd f0 	l.ori r12,r12,0xcdf0
    4300:	9c 63 00 01 	l.addi r3,r3,0x1
    4304:	bd 43 03 e7 	l.sfgtsi r3,0x3e7
    4308:	0f ff ff fe 	l.bnf 4300 <_synthetic_taskB+0x40>
    430c:	9c 80 00 00 	l.addi r4,r0,0x0
    4310:	9c 60 00 1e 	l.addi r3,r0,0x1e
    4314:	d4 2c 18 00 	l.sw 0x800(r12),r3
    4318:	18 60 00 01 	l.movhi r3,0x1
    431c:	a8 63 cd f0 	l.ori r3,r3,0xcdf0
    4320:	d4 03 50 00 	l.sw 0x0(r3),r10
    4324:	9c 84 00 01 	l.addi r4,r4,0x1
    4328:	bd 44 00 1d 	l.sfgtsi r4,0x1d
    432c:	0f ff ff fd 	l.bnf 4320 <_synthetic_taskB+0x60>
    4330:	9c 63 00 04 	l.addi r3,r3,0x4
    4334:	18 60 00 01 	l.movhi r3,0x1
    4338:	a8 63 cd f0 	l.ori r3,r3,0xcdf0
    433c:	07 ff f8 40 	l.jal 243c <_SendMessage>
    4340:	9c 80 00 02 	l.addi r4,r0,0x2
    4344:	04 00 10 55 	l.jal 8498 <_clock>
    4348:	15 00 00 00 	l.nop 0x0
    434c:	07 ff f4 97 	l.jal 15a8 <_printi>
    4350:	a8 6b 00 00 	l.ori r3,r11,0x0
    4354:	18 60 00 01 	l.movhi r3,0x1
    4358:	a8 63 5d 11 	l.ori r3,r3,0x5d11
    435c:	07 ff f4 80 	l.jal 155c <_prints>
    4360:	15 00 00 00 	l.nop 0x0
    4364:	04 00 10 4d 	l.jal 8498 <_clock>
    4368:	15 00 00 00 	l.nop 0x0
    436c:	07 ff f4 8f 	l.jal 15a8 <_printi>
    4370:	a8 6b 00 00 	l.ori r3,r11,0x0
    4374:	07 ff f4 8d 	l.jal 15a8 <_printi>
    4378:	a8 6a 00 00 	l.ori r3,r10,0x0
    437c:	18 60 00 01 	l.movhi r3,0x1
    4380:	a8 63 57 ae 	l.ori r3,r3,0x57ae
    4384:	07 ff f4 76 	l.jal 155c <_prints>
    4388:	15 00 00 00 	l.nop 0x0
    438c:	07 ff f5 8a 	l.jal 19b4 <_get_migration_src>
    4390:	15 00 00 00 	l.nop 0x0
    4394:	bc 0b 00 00 	l.sfeqi r11,0x0
    4398:	0c 00 00 0c 	l.bnf 43c8 <_synthetic_taskB+0x108>
    439c:	15 00 00 00 	l.nop 0x0
    43a0:	9d 4a 00 01 	l.addi r10,r10,0x1
    43a4:	bd 4a 03 e7 	l.sfgtsi r10,0x3e7
    43a8:	0f ff ff d6 	l.bnf 4300 <_synthetic_taskB+0x40>
    43ac:	9c 60 00 00 	l.addi r3,r0,0x0
    43b0:	18 60 00 01 	l.movhi r3,0x1
    43b4:	a8 63 5d 18 	l.ori r3,r3,0x5d18
    43b8:	07 ff f4 69 	l.jal 155c <_prints>
    43bc:	15 00 00 00 	l.nop 0x0
    43c0:	00 00 00 09 	l.j 43e4 <_synthetic_taskB+0x124>
    43c4:	9d 60 00 00 	l.addi r11,r0,0x0
    43c8:	18 60 00 01 	l.movhi r3,0x1
    43cc:	a8 63 5d 34 	l.ori r3,r3,0x5d34
    43d0:	07 ff f4 63 	l.jal 155c <_prints>
    43d4:	15 00 00 00 	l.nop 0x0
    43d8:	07 ff f5 4f 	l.jal 1914 <_clear_migration_src>
    43dc:	15 00 00 00 	l.nop 0x0
    43e0:	9d 6a 00 01 	l.addi r11,r10,0x1
    43e4:	85 21 00 00 	l.lwz r9,0x0(r1)
    43e8:	84 41 00 04 	l.lwz r2,0x4(r1)
    43ec:	85 41 00 08 	l.lwz r10,0x8(r1)
    43f0:	85 81 00 0c 	l.lwz r12,0xc(r1)
    43f4:	44 00 48 00 	l.jr r9
    43f8:	9c 21 00 10 	l.addi r1,r1,0x10

000043fc <_synthetic_taskC>:
    43fc:	9c 21 ff ec 	l.addi r1,r1,0xffffffec
    4400:	d4 01 10 04 	l.sw 0x4(r1),r2
    4404:	9c 41 00 14 	l.addi r2,r1,0x14
    4408:	d4 01 48 00 	l.sw 0x0(r1),r9
    440c:	d4 01 50 08 	l.sw 0x8(r1),r10
    4410:	d4 01 60 0c 	l.sw 0xc(r1),r12
    4414:	d4 01 70 10 	l.sw 0x10(r1),r14
    4418:	a8 83 00 00 	l.ori r4,r3,0x0
    441c:	18 60 00 01 	l.movhi r3,0x1
    4420:	a8 63 5d 51 	l.ori r3,r3,0x5d51
    4424:	07 ff f4 4e 	l.jal 155c <_prints>
    4428:	a9 84 00 00 	l.ori r12,r4,0x0
    442c:	bd 4c 03 e7 	l.sfgtsi r12,0x3e7
    4430:	10 00 00 42 	l.bf 4538 <_synthetic_taskC+0x13c>
    4434:	9c 60 00 1e 	l.addi r3,r0,0x1e
    4438:	19 c0 00 01 	l.movhi r14,0x1
    443c:	a9 ce cd f0 	l.ori r14,r14,0xcdf0
    4440:	9c 80 00 00 	l.addi r4,r0,0x0
    4444:	d4 2e 18 00 	l.sw 0x800(r14),r3
    4448:	18 60 00 01 	l.movhi r3,0x1
    444c:	a8 63 cd f0 	l.ori r3,r3,0xcdf0
    4450:	d4 03 60 00 	l.sw 0x0(r3),r12
    4454:	9c 84 00 01 	l.addi r4,r4,0x1
    4458:	bd 44 00 1d 	l.sfgtsi r4,0x1d
    445c:	0f ff ff fd 	l.bnf 4450 <_synthetic_taskC+0x54>
    4460:	9c 63 00 04 	l.addi r3,r3,0x4
    4464:	9c 80 00 00 	l.addi r4,r0,0x0
    4468:	18 60 00 01 	l.movhi r3,0x1
    446c:	a8 63 cd f0 	l.ori r3,r3,0xcdf0
    4470:	07 ff f9 b9 	l.jal 2b54 <_ReceiveMessage>
    4474:	a9 44 00 00 	l.ori r10,r4,0x0
    4478:	9d 4a 00 01 	l.addi r10,r10,0x1
    447c:	bd 4a 03 e7 	l.sfgtsi r10,0x3e7
    4480:	0f ff ff ff 	l.bnf 447c <_synthetic_taskC+0x80>
    4484:	9d 4a 00 01 	l.addi r10,r10,0x1
    4488:	18 60 00 01 	l.movhi r3,0x1
    448c:	a8 63 cd f0 	l.ori r3,r3,0xcdf0
    4490:	9c 80 00 03 	l.addi r4,r0,0x3
    4494:	07 ff f7 ea 	l.jal 243c <_SendMessage>
    4498:	9d 40 00 00 	l.addi r10,r0,0x0
    449c:	18 60 00 01 	l.movhi r3,0x1
    44a0:	a8 63 cd f0 	l.ori r3,r3,0xcdf0
    44a4:	07 ff f9 ac 	l.jal 2b54 <_ReceiveMessage>
    44a8:	9c 80 00 01 	l.addi r4,r0,0x1
    44ac:	9d 4a 00 01 	l.addi r10,r10,0x1
    44b0:	bd 4a 03 e7 	l.sfgtsi r10,0x3e7
    44b4:	0f ff ff fe 	l.bnf 44ac <_synthetic_taskC+0xb0>
    44b8:	15 00 00 00 	l.nop 0x0
    44bc:	18 60 00 01 	l.movhi r3,0x1
    44c0:	a8 63 cd f0 	l.ori r3,r3,0xcdf0
    44c4:	07 ff f7 de 	l.jal 243c <_SendMessage>
    44c8:	9c 80 00 04 	l.addi r4,r0,0x4
    44cc:	04 00 0f f3 	l.jal 8498 <_clock>
    44d0:	15 00 00 00 	l.nop 0x0
    44d4:	07 ff f4 35 	l.jal 15a8 <_printi>
    44d8:	a8 6b 00 00 	l.ori r3,r11,0x0
    44dc:	18 60 00 01 	l.movhi r3,0x1
    44e0:	a8 63 5d 6c 	l.ori r3,r3,0x5d6c
    44e4:	07 ff f4 1e 	l.jal 155c <_prints>
    44e8:	15 00 00 00 	l.nop 0x0
    44ec:	04 00 0f eb 	l.jal 8498 <_clock>
    44f0:	15 00 00 00 	l.nop 0x0
    44f4:	07 ff f4 2d 	l.jal 15a8 <_printi>
    44f8:	a8 6b 00 00 	l.ori r3,r11,0x0
    44fc:	07 ff f4 2b 	l.jal 15a8 <_printi>
    4500:	a8 6c 00 00 	l.ori r3,r12,0x0
    4504:	18 60 00 01 	l.movhi r3,0x1
    4508:	a8 63 57 ae 	l.ori r3,r3,0x57ae
    450c:	07 ff f4 14 	l.jal 155c <_prints>
    4510:	15 00 00 00 	l.nop 0x0
    4514:	07 ff f5 28 	l.jal 19b4 <_get_migration_src>
    4518:	15 00 00 00 	l.nop 0x0
    451c:	bc 0b 00 00 	l.sfeqi r11,0x0
    4520:	0c 00 00 0c 	l.bnf 4550 <_synthetic_taskC+0x154>
    4524:	15 00 00 00 	l.nop 0x0
    4528:	9d 8c 00 01 	l.addi r12,r12,0x1
    452c:	bd 4c 03 e7 	l.sfgtsi r12,0x3e7
    4530:	0f ff ff c4 	l.bnf 4440 <_synthetic_taskC+0x44>
    4534:	9c 60 00 1e 	l.addi r3,r0,0x1e
    4538:	18 60 00 01 	l.movhi r3,0x1
    453c:	a8 63 5d 73 	l.ori r3,r3,0x5d73
    4540:	07 ff f4 07 	l.jal 155c <_prints>
    4544:	15 00 00 00 	l.nop 0x0
    4548:	00 00 00 09 	l.j 456c <_synthetic_taskC+0x170>
    454c:	9d 60 00 00 	l.addi r11,r0,0x0
    4550:	18 60 00 01 	l.movhi r3,0x1
    4554:	a8 63 5d 8f 	l.ori r3,r3,0x5d8f
    4558:	07 ff f4 01 	l.jal 155c <_prints>
    455c:	15 00 00 00 	l.nop 0x0
    4560:	07 ff f4 ed 	l.jal 1914 <_clear_migration_src>
    4564:	15 00 00 00 	l.nop 0x0
    4568:	9d 6c 00 01 	l.addi r11,r12,0x1
    456c:	85 21 00 00 	l.lwz r9,0x0(r1)
    4570:	84 41 00 04 	l.lwz r2,0x4(r1)
    4574:	85 41 00 08 	l.lwz r10,0x8(r1)
    4578:	85 81 00 0c 	l.lwz r12,0xc(r1)
    457c:	85 c1 00 10 	l.lwz r14,0x10(r1)
    4580:	44 00 48 00 	l.jr r9
    4584:	9c 21 00 14 	l.addi r1,r1,0x14

00004588 <_synthetic_taskD>:
    4588:	9c 21 ff f0 	l.addi r1,r1,0xfffffff0
    458c:	d4 01 10 04 	l.sw 0x4(r1),r2
    4590:	9c 41 00 10 	l.addi r2,r1,0x10
    4594:	d4 01 48 00 	l.sw 0x0(r1),r9
    4598:	d4 01 50 08 	l.sw 0x8(r1),r10
    459c:	d4 01 60 0c 	l.sw 0xc(r1),r12
    45a0:	a8 83 00 00 	l.ori r4,r3,0x0
    45a4:	18 60 00 01 	l.movhi r3,0x1
    45a8:	a8 63 5d ac 	l.ori r3,r3,0x5dac
    45ac:	07 ff f3 ec 	l.jal 155c <_prints>
    45b0:	a9 44 00 00 	l.ori r10,r4,0x0
    45b4:	bd 4a 03 e7 	l.sfgtsi r10,0x3e7
    45b8:	10 00 00 35 	l.bf 468c <_synthetic_taskD+0x104>
    45bc:	9c 60 00 1e 	l.addi r3,r0,0x1e
    45c0:	19 80 00 01 	l.movhi r12,0x1
    45c4:	a9 8c cd f0 	l.ori r12,r12,0xcdf0
    45c8:	9c 80 00 00 	l.addi r4,r0,0x0
    45cc:	d4 2c 18 00 	l.sw 0x800(r12),r3
    45d0:	18 60 00 01 	l.movhi r3,0x1
    45d4:	a8 63 cd f0 	l.ori r3,r3,0xcdf0
    45d8:	d4 03 50 00 	l.sw 0x0(r3),r10
    45dc:	9c 84 00 01 	l.addi r4,r4,0x1
    45e0:	bd 44 00 1d 	l.sfgtsi r4,0x1d
    45e4:	0f ff ff fd 	l.bnf 45d8 <_synthetic_taskD+0x50>
    45e8:	9c 63 00 04 	l.addi r3,r3,0x4
    45ec:	18 60 00 01 	l.movhi r3,0x1
    45f0:	a8 63 cd f0 	l.ori r3,r3,0xcdf0
    45f4:	07 ff f9 58 	l.jal 2b54 <_ReceiveMessage>
    45f8:	9c 80 00 02 	l.addi r4,r0,0x2
    45fc:	9c 60 00 00 	l.addi r3,r0,0x0
    4600:	9c 63 00 01 	l.addi r3,r3,0x1
    4604:	bd 43 03 e7 	l.sfgtsi r3,0x3e7
    4608:	0f ff ff fe 	l.bnf 4600 <_synthetic_taskD+0x78>
    460c:	15 00 00 00 	l.nop 0x0
    4610:	18 60 00 01 	l.movhi r3,0x1
    4614:	a8 63 cd f0 	l.ori r3,r3,0xcdf0
    4618:	07 ff f7 89 	l.jal 243c <_SendMessage>
    461c:	9c 80 00 05 	l.addi r4,r0,0x5
    4620:	04 00 0f 9e 	l.jal 8498 <_clock>
    4624:	15 00 00 00 	l.nop 0x0
    4628:	07 ff f3 e0 	l.jal 15a8 <_printi>
    462c:	a8 6b 00 00 	l.ori r3,r11,0x0
    4630:	18 60 00 01 	l.movhi r3,0x1
    4634:	a8 63 5d c7 	l.ori r3,r3,0x5dc7
    4638:	07 ff f3 c9 	l.jal 155c <_prints>
    463c:	15 00 00 00 	l.nop 0x0
    4640:	04 00 0f 96 	l.jal 8498 <_clock>
    4644:	15 00 00 00 	l.nop 0x0
    4648:	07 ff f3 d8 	l.jal 15a8 <_printi>
    464c:	a8 6b 00 00 	l.ori r3,r11,0x0
    4650:	07 ff f3 d6 	l.jal 15a8 <_printi>
    4654:	a8 6a 00 00 	l.ori r3,r10,0x0
    4658:	18 60 00 01 	l.movhi r3,0x1
    465c:	a8 63 57 ae 	l.ori r3,r3,0x57ae
    4660:	07 ff f3 bf 	l.jal 155c <_prints>
    4664:	15 00 00 00 	l.nop 0x0
    4668:	07 ff f4 d3 	l.jal 19b4 <_get_migration_src>
    466c:	15 00 00 00 	l.nop 0x0
    4670:	bc 0b 00 00 	l.sfeqi r11,0x0
    4674:	0c 00 00 0c 	l.bnf 46a4 <_synthetic_taskD+0x11c>
    4678:	15 00 00 00 	l.nop 0x0
    467c:	9d 4a 00 01 	l.addi r10,r10,0x1
    4680:	bd 4a 03 e7 	l.sfgtsi r10,0x3e7
    4684:	0f ff ff d1 	l.bnf 45c8 <_synthetic_taskD+0x40>
    4688:	9c 60 00 1e 	l.addi r3,r0,0x1e
    468c:	18 60 00 01 	l.movhi r3,0x1
    4690:	a8 63 5d ce 	l.ori r3,r3,0x5dce
    4694:	07 ff f3 b2 	l.jal 155c <_prints>
    4698:	15 00 00 00 	l.nop 0x0
    469c:	00 00 00 09 	l.j 46c0 <_synthetic_taskD+0x138>
    46a0:	9d 60 00 00 	l.addi r11,r0,0x0
    46a4:	18 60 00 01 	l.movhi r3,0x1
    46a8:	a8 63 5d ea 	l.ori r3,r3,0x5dea
    46ac:	07 ff f3 ac 	l.jal 155c <_prints>
    46b0:	15 00 00 00 	l.nop 0x0
    46b4:	07 ff f4 98 	l.jal 1914 <_clear_migration_src>
    46b8:	15 00 00 00 	l.nop 0x0
    46bc:	9d 6a 00 01 	l.addi r11,r10,0x1
    46c0:	85 21 00 00 	l.lwz r9,0x0(r1)
    46c4:	84 41 00 04 	l.lwz r2,0x4(r1)
    46c8:	85 41 00 08 	l.lwz r10,0x8(r1)
    46cc:	85 81 00 0c 	l.lwz r12,0xc(r1)
    46d0:	44 00 48 00 	l.jr r9
    46d4:	9c 21 00 10 	l.addi r1,r1,0x10

000046d8 <_synthetic_taskE>:
    46d8:	9c 21 ff f0 	l.addi r1,r1,0xfffffff0
    46dc:	d4 01 10 04 	l.sw 0x4(r1),r2
    46e0:	9c 41 00 10 	l.addi r2,r1,0x10
    46e4:	d4 01 48 00 	l.sw 0x0(r1),r9
    46e8:	d4 01 50 08 	l.sw 0x8(r1),r10
    46ec:	d4 01 60 0c 	l.sw 0xc(r1),r12
    46f0:	a8 83 00 00 	l.ori r4,r3,0x0
    46f4:	18 60 00 01 	l.movhi r3,0x1
    46f8:	a8 63 5e 07 	l.ori r3,r3,0x5e07
    46fc:	07 ff f3 98 	l.jal 155c <_prints>
    4700:	a9 44 00 00 	l.ori r10,r4,0x0
    4704:	bd 4a 03 e7 	l.sfgtsi r10,0x3e7
    4708:	10 00 00 35 	l.bf 47dc <_synthetic_taskE+0x104>
    470c:	9c 60 00 1e 	l.addi r3,r0,0x1e
    4710:	19 80 00 01 	l.movhi r12,0x1
    4714:	a9 8c cd f0 	l.ori r12,r12,0xcdf0
    4718:	9c 80 00 00 	l.addi r4,r0,0x0
    471c:	d4 2c 18 00 	l.sw 0x800(r12),r3
    4720:	18 60 00 01 	l.movhi r3,0x1
    4724:	a8 63 cd f0 	l.ori r3,r3,0xcdf0
    4728:	d4 03 50 00 	l.sw 0x0(r3),r10
    472c:	9c 84 00 01 	l.addi r4,r4,0x1
    4730:	bd 44 00 1d 	l.sfgtsi r4,0x1d
    4734:	0f ff ff fd 	l.bnf 4728 <_synthetic_taskE+0x50>
    4738:	9c 63 00 04 	l.addi r3,r3,0x4
    473c:	18 60 00 01 	l.movhi r3,0x1
    4740:	a8 63 cd f0 	l.ori r3,r3,0xcdf0
    4744:	07 ff f9 04 	l.jal 2b54 <_ReceiveMessage>
    4748:	9c 80 00 02 	l.addi r4,r0,0x2
    474c:	9c 60 00 00 	l.addi r3,r0,0x0
    4750:	9c 63 00 01 	l.addi r3,r3,0x1
    4754:	bd 43 03 e7 	l.sfgtsi r3,0x3e7
    4758:	0f ff ff fe 	l.bnf 4750 <_synthetic_taskE+0x78>
    475c:	15 00 00 00 	l.nop 0x0
    4760:	18 60 00 01 	l.movhi r3,0x1
    4764:	a8 63 cd f0 	l.ori r3,r3,0xcdf0
    4768:	07 ff f7 35 	l.jal 243c <_SendMessage>
    476c:	9c 80 00 05 	l.addi r4,r0,0x5
    4770:	04 00 0f 4a 	l.jal 8498 <_clock>
    4774:	15 00 00 00 	l.nop 0x0
    4778:	07 ff f3 8c 	l.jal 15a8 <_printi>
    477c:	a8 6b 00 00 	l.ori r3,r11,0x0
    4780:	18 60 00 01 	l.movhi r3,0x1
    4784:	a8 63 5e 22 	l.ori r3,r3,0x5e22
    4788:	07 ff f3 75 	l.jal 155c <_prints>
    478c:	15 00 00 00 	l.nop 0x0
    4790:	04 00 0f 42 	l.jal 8498 <_clock>
    4794:	15 00 00 00 	l.nop 0x0
    4798:	07 ff f3 84 	l.jal 15a8 <_printi>
    479c:	a8 6b 00 00 	l.ori r3,r11,0x0
    47a0:	07 ff f3 82 	l.jal 15a8 <_printi>
    47a4:	a8 6a 00 00 	l.ori r3,r10,0x0
    47a8:	18 60 00 01 	l.movhi r3,0x1
    47ac:	a8 63 57 ae 	l.ori r3,r3,0x57ae
    47b0:	07 ff f3 6b 	l.jal 155c <_prints>
    47b4:	15 00 00 00 	l.nop 0x0
    47b8:	07 ff f4 7f 	l.jal 19b4 <_get_migration_src>
    47bc:	15 00 00 00 	l.nop 0x0
    47c0:	bc 0b 00 00 	l.sfeqi r11,0x0
    47c4:	0c 00 00 0c 	l.bnf 47f4 <_synthetic_taskE+0x11c>
    47c8:	15 00 00 00 	l.nop 0x0
    47cc:	9d 4a 00 01 	l.addi r10,r10,0x1
    47d0:	bd 4a 03 e7 	l.sfgtsi r10,0x3e7
    47d4:	0f ff ff d1 	l.bnf 4718 <_synthetic_taskE+0x40>
    47d8:	9c 60 00 1e 	l.addi r3,r0,0x1e
    47dc:	18 60 00 01 	l.movhi r3,0x1
    47e0:	a8 63 5e 29 	l.ori r3,r3,0x5e29
    47e4:	07 ff f3 5e 	l.jal 155c <_prints>
    47e8:	15 00 00 00 	l.nop 0x0
    47ec:	00 00 00 09 	l.j 4810 <_synthetic_taskE+0x138>
    47f0:	9d 60 00 00 	l.addi r11,r0,0x0
    47f4:	18 60 00 01 	l.movhi r3,0x1
    47f8:	a8 63 5e 45 	l.ori r3,r3,0x5e45
    47fc:	07 ff f3 58 	l.jal 155c <_prints>
    4800:	15 00 00 00 	l.nop 0x0
    4804:	07 ff f4 44 	l.jal 1914 <_clear_migration_src>
    4808:	15 00 00 00 	l.nop 0x0
    480c:	9d 6a 00 01 	l.addi r11,r10,0x1
    4810:	85 21 00 00 	l.lwz r9,0x0(r1)
    4814:	84 41 00 04 	l.lwz r2,0x4(r1)
    4818:	85 41 00 08 	l.lwz r10,0x8(r1)
    481c:	85 81 00 0c 	l.lwz r12,0xc(r1)
    4820:	44 00 48 00 	l.jr r9
    4824:	9c 21 00 10 	l.addi r1,r1,0x10

00004828 <_synthetic_taskF>:
    4828:	9c 21 ff f4 	l.addi r1,r1,0xfffffff4
    482c:	d4 01 10 04 	l.sw 0x4(r1),r2
    4830:	9c 41 00 0c 	l.addi r2,r1,0xc
    4834:	d4 01 48 00 	l.sw 0x0(r1),r9
    4838:	d4 01 50 08 	l.sw 0x8(r1),r10
    483c:	a8 83 00 00 	l.ori r4,r3,0x0
    4840:	18 60 00 01 	l.movhi r3,0x1
    4844:	a8 63 5e 62 	l.ori r3,r3,0x5e62
    4848:	07 ff f3 45 	l.jal 155c <_prints>
    484c:	a9 44 00 00 	l.ori r10,r4,0x0
    4850:	bd 4a 03 e7 	l.sfgtsi r10,0x3e7
    4854:	10 00 00 2a 	l.bf 48fc <_synthetic_taskF+0xd4>
    4858:	15 00 00 00 	l.nop 0x0
    485c:	18 60 00 01 	l.movhi r3,0x1
    4860:	a8 63 cd f0 	l.ori r3,r3,0xcdf0
    4864:	07 ff f8 bc 	l.jal 2b54 <_ReceiveMessage>
    4868:	9c 80 00 04 	l.addi r4,r0,0x4
    486c:	9c 60 00 00 	l.addi r3,r0,0x0
    4870:	9c 63 00 01 	l.addi r3,r3,0x1
    4874:	bd 43 03 e7 	l.sfgtsi r3,0x3e7
    4878:	0f ff ff fe 	l.bnf 4870 <_synthetic_taskF+0x48>
    487c:	15 00 00 00 	l.nop 0x0
    4880:	18 60 00 01 	l.movhi r3,0x1
    4884:	a8 63 cd f0 	l.ori r3,r3,0xcdf0
    4888:	07 ff f8 b3 	l.jal 2b54 <_ReceiveMessage>
    488c:	9c 80 00 03 	l.addi r4,r0,0x3
    4890:	04 00 0f 02 	l.jal 8498 <_clock>
    4894:	15 00 00 00 	l.nop 0x0
    4898:	07 ff f3 44 	l.jal 15a8 <_printi>
    489c:	a8 6b 00 00 	l.ori r3,r11,0x0
    48a0:	18 60 00 01 	l.movhi r3,0x1
    48a4:	a8 63 5e 7d 	l.ori r3,r3,0x5e7d
    48a8:	07 ff f3 2d 	l.jal 155c <_prints>
    48ac:	15 00 00 00 	l.nop 0x0
    48b0:	04 00 0e fa 	l.jal 8498 <_clock>
    48b4:	15 00 00 00 	l.nop 0x0
    48b8:	07 ff f3 3c 	l.jal 15a8 <_printi>
    48bc:	a8 6b 00 00 	l.ori r3,r11,0x0
    48c0:	07 ff f3 3a 	l.jal 15a8 <_printi>
    48c4:	a8 6a 00 00 	l.ori r3,r10,0x0
    48c8:	18 60 00 01 	l.movhi r3,0x1
    48cc:	a8 63 57 ae 	l.ori r3,r3,0x57ae
    48d0:	07 ff f3 23 	l.jal 155c <_prints>
    48d4:	15 00 00 00 	l.nop 0x0
    48d8:	07 ff f4 37 	l.jal 19b4 <_get_migration_src>
    48dc:	15 00 00 00 	l.nop 0x0
    48e0:	bc 0b 00 00 	l.sfeqi r11,0x0
    48e4:	0c 00 00 0c 	l.bnf 4914 <_synthetic_taskF+0xec>
    48e8:	15 00 00 00 	l.nop 0x0
    48ec:	9d 4a 00 01 	l.addi r10,r10,0x1
    48f0:	bd 4a 03 e7 	l.sfgtsi r10,0x3e7
    48f4:	0f ff ff da 	l.bnf 485c <_synthetic_taskF+0x34>
    48f8:	15 00 00 00 	l.nop 0x0
    48fc:	18 60 00 01 	l.movhi r3,0x1
    4900:	a8 63 5e 84 	l.ori r3,r3,0x5e84
    4904:	07 ff f3 16 	l.jal 155c <_prints>
    4908:	15 00 00 00 	l.nop 0x0
    490c:	00 00 00 09 	l.j 4930 <_synthetic_taskF+0x108>
    4910:	9d 60 00 00 	l.addi r11,r0,0x0
    4914:	18 60 00 01 	l.movhi r3,0x1
    4918:	a8 63 5e a0 	l.ori r3,r3,0x5ea0
    491c:	07 ff f3 10 	l.jal 155c <_prints>
    4920:	15 00 00 00 	l.nop 0x0
    4924:	07 ff f3 fc 	l.jal 1914 <_clear_migration_src>
    4928:	15 00 00 00 	l.nop 0x0
    492c:	9d 6a 00 01 	l.addi r11,r10,0x1
    4930:	85 21 00 00 	l.lwz r9,0x0(r1)
    4934:	84 41 00 04 	l.lwz r2,0x4(r1)
    4938:	85 41 00 08 	l.lwz r10,0x8(r1)
    493c:	44 00 48 00 	l.jr r9
    4940:	9c 21 00 0c 	l.addi r1,r1,0xc

00004944 <_dijkstra_divider>:
    4944:	9c 21 f7 a4 	l.addi r1,r1,0xfffff7a4
    4948:	d4 01 10 04 	l.sw 0x4(r1),r2
    494c:	9c 41 08 5c 	l.addi r2,r1,0x85c
    4950:	d4 01 48 00 	l.sw 0x0(r1),r9
    4954:	d4 01 50 08 	l.sw 0x8(r1),r10
    4958:	d4 01 60 0c 	l.sw 0xc(r1),r12
    495c:	d4 01 70 10 	l.sw 0x10(r1),r14
    4960:	a9 43 00 00 	l.ori r10,r3,0x0
    4964:	18 80 00 01 	l.movhi r4,0x1
    4968:	a8 84 45 b8 	l.ori r4,r4,0x45b8
    496c:	9c 62 fc 00 	l.addi r3,r2,0xfffffc00
    4970:	9c a0 04 00 	l.addi r5,r0,0x400
    4974:	04 00 0e df 	l.jal 84f0 <_memcpy>
    4978:	9d 80 00 00 	l.addi r12,r0,0x0
    497c:	18 60 00 01 	l.movhi r3,0x1
    4980:	a8 63 5e bd 	l.ori r3,r3,0x5ebd
    4984:	07 ff f2 f6 	l.jal 155c <_prints>
    4988:	15 00 00 00 	l.nop 0x0
    498c:	b8 6e 00 02 	l.slli r3,r14,0x2
    4990:	a8 e2 00 00 	l.ori r7,r2,0x0
    4994:	e0 c3 10 00 	l.add r6,r3,r2
    4998:	9c a0 00 00 	l.addi r5,r0,0x0
    499c:	9c 87 f8 00 	l.addi r4,r7,0xfffff800
    49a0:	9c 66 fc 00 	l.addi r3,r6,0xfffffc00
    49a4:	85 03 00 00 	l.lwz r8,0x0(r3)
    49a8:	9c a5 00 01 	l.addi r5,r5,0x1
    49ac:	9c c6 00 04 	l.addi r6,r6,0x4
    49b0:	d4 04 40 00 	l.sw 0x0(r4),r8
    49b4:	9c 63 00 04 	l.addi r3,r3,0x4
    49b8:	bd 45 00 0f 	l.sfgtsi r5,0xf
    49bc:	0f ff ff fa 	l.bnf 49a4 <_dijkstra_divider+0x60>
    49c0:	9c 84 00 04 	l.addi r4,r4,0x4
    49c4:	9d 8c 00 01 	l.addi r12,r12,0x1
    49c8:	bd 4c 00 0f 	l.sfgtsi r12,0xf
    49cc:	0f ff ff f3 	l.bnf 4998 <_dijkstra_divider+0x54>
    49d0:	9c e7 00 40 	l.addi r7,r7,0x40
    49d4:	18 60 00 01 	l.movhi r3,0x1
    49d8:	a8 63 cd f0 	l.ori r3,r3,0xcdf0
    49dc:	9c 80 00 10 	l.addi r4,r0,0x10
    49e0:	a9 ca 00 00 	l.ori r14,r10,0x0
    49e4:	bd 4a 00 31 	l.sfgtsi r10,0x31
    49e8:	10 00 00 31 	l.bf 4aac <_dijkstra_divider+0x168>
    49ec:	d4 23 20 00 	l.sw 0x800(r3),r4
    49f0:	18 60 00 01 	l.movhi r3,0x1
    49f4:	a8 63 5e cf 	l.ori r3,r3,0x5ecf
    49f8:	a8 8e 00 00 	l.ori r4,r14,0x0
    49fc:	9d 80 00 00 	l.addi r12,r0,0x0
    4a00:	07 ff f4 84 	l.jal 1c10 <_putsv>
    4a04:	a9 42 00 00 	l.ori r10,r2,0x0
    4a08:	9c a0 00 00 	l.addi r5,r0,0x0
    4a0c:	18 80 00 01 	l.movhi r4,0x1
    4a10:	a8 84 cd f0 	l.ori r4,r4,0xcdf0
    4a14:	9c 6a f8 00 	l.addi r3,r10,0xfffff800
    4a18:	84 c3 00 00 	l.lwz r6,0x0(r3)
    4a1c:	9c a5 00 01 	l.addi r5,r5,0x1
    4a20:	d4 04 30 00 	l.sw 0x0(r4),r6
    4a24:	9c 63 00 04 	l.addi r3,r3,0x4
    4a28:	bd 45 00 0f 	l.sfgtsi r5,0xf
    4a2c:	0f ff ff fb 	l.bnf 4a18 <_dijkstra_divider+0xd4>
    4a30:	9c 84 00 04 	l.addi r4,r4,0x4
    4a34:	18 60 00 01 	l.movhi r3,0x1
    4a38:	a8 63 cd f0 	l.ori r3,r3,0xcdf0
    4a3c:	9c 80 00 07 	l.addi r4,r0,0x7
    4a40:	07 ff f6 7f 	l.jal 243c <_SendMessage>
    4a44:	9d 8c 00 01 	l.addi r12,r12,0x1
    4a48:	18 60 00 01 	l.movhi r3,0x1
    4a4c:	a8 63 cd f0 	l.ori r3,r3,0xcdf0
    4a50:	9c 80 00 08 	l.addi r4,r0,0x8
    4a54:	07 ff f6 7a 	l.jal 243c <_SendMessage>
    4a58:	9d 4a 00 40 	l.addi r10,r10,0x40
    4a5c:	18 60 00 01 	l.movhi r3,0x1
    4a60:	a8 63 cd f0 	l.ori r3,r3,0xcdf0
    4a64:	07 ff f6 76 	l.jal 243c <_SendMessage>
    4a68:	9c 80 00 09 	l.addi r4,r0,0x9
    4a6c:	18 60 00 01 	l.movhi r3,0x1
    4a70:	a8 63 cd f0 	l.ori r3,r3,0xcdf0
    4a74:	07 ff f6 72 	l.jal 243c <_SendMessage>
    4a78:	9c 80 00 0a 	l.addi r4,r0,0xa
    4a7c:	bd 4c 00 0f 	l.sfgtsi r12,0xf
    4a80:	0f ff ff e3 	l.bnf 4a0c <_dijkstra_divider+0xc8>
    4a84:	9c a0 00 00 	l.addi r5,r0,0x0
    4a88:	07 ff f3 cb 	l.jal 19b4 <_get_migration_src>
    4a8c:	15 00 00 00 	l.nop 0x0
    4a90:	bc 0b 00 00 	l.sfeqi r11,0x0
    4a94:	0c 00 00 31 	l.bnf 4b58 <_dijkstra_divider+0x214>
    4a98:	15 00 00 00 	l.nop 0x0
    4a9c:	9d ce 00 01 	l.addi r14,r14,0x1
    4aa0:	bd 4e 00 31 	l.sfgtsi r14,0x31
    4aa4:	0f ff ff d3 	l.bnf 49f0 <_dijkstra_divider+0xac>
    4aa8:	15 00 00 00 	l.nop 0x0
    4aac:	19 00 00 01 	l.movhi r8,0x1
    4ab0:	a9 08 86 9f 	l.ori r8,r8,0x869f
    4ab4:	9d 80 00 00 	l.addi r12,r0,0x0
    4ab8:	d7 e2 40 00 	l.sw 0xfffff800(r2),r8
    4abc:	a9 42 00 00 	l.ori r10,r2,0x0
    4ac0:	9c a0 00 00 	l.addi r5,r0,0x0
    4ac4:	18 80 00 01 	l.movhi r4,0x1
    4ac8:	a8 84 cd f0 	l.ori r4,r4,0xcdf0
    4acc:	9c 6a f8 00 	l.addi r3,r10,0xfffff800
    4ad0:	84 c3 00 00 	l.lwz r6,0x0(r3)
    4ad4:	9c a5 00 01 	l.addi r5,r5,0x1
    4ad8:	d4 04 30 00 	l.sw 0x0(r4),r6
    4adc:	9c 63 00 04 	l.addi r3,r3,0x4
    4ae0:	bd 45 00 0f 	l.sfgtsi r5,0xf
    4ae4:	0f ff ff fb 	l.bnf 4ad0 <_dijkstra_divider+0x18c>
    4ae8:	9c 84 00 04 	l.addi r4,r4,0x4
    4aec:	18 60 00 01 	l.movhi r3,0x1
    4af0:	a8 63 cd f0 	l.ori r3,r3,0xcdf0
    4af4:	9c 80 00 07 	l.addi r4,r0,0x7
    4af8:	07 ff f6 51 	l.jal 243c <_SendMessage>
    4afc:	9d 8c 00 01 	l.addi r12,r12,0x1
    4b00:	18 60 00 01 	l.movhi r3,0x1
    4b04:	a8 63 cd f0 	l.ori r3,r3,0xcdf0
    4b08:	9c 80 00 08 	l.addi r4,r0,0x8
    4b0c:	07 ff f6 4c 	l.jal 243c <_SendMessage>
    4b10:	9d 4a 00 40 	l.addi r10,r10,0x40
    4b14:	18 60 00 01 	l.movhi r3,0x1
    4b18:	a8 63 cd f0 	l.ori r3,r3,0xcdf0
    4b1c:	07 ff f6 48 	l.jal 243c <_SendMessage>
    4b20:	9c 80 00 09 	l.addi r4,r0,0x9
    4b24:	18 60 00 01 	l.movhi r3,0x1
    4b28:	a8 63 cd f0 	l.ori r3,r3,0xcdf0
    4b2c:	07 ff f6 44 	l.jal 243c <_SendMessage>
    4b30:	9c 80 00 0a 	l.addi r4,r0,0xa
    4b34:	bd 4c 00 0f 	l.sfgtsi r12,0xf
    4b38:	0f ff ff e3 	l.bnf 4ac4 <_dijkstra_divider+0x180>
    4b3c:	9c a0 00 00 	l.addi r5,r0,0x0
    4b40:	18 60 00 01 	l.movhi r3,0x1
    4b44:	a8 63 5e e4 	l.ori r3,r3,0x5ee4
    4b48:	07 ff f2 85 	l.jal 155c <_prints>
    4b4c:	15 00 00 00 	l.nop 0x0
    4b50:	00 00 00 09 	l.j 4b74 <_dijkstra_divider+0x230>
    4b54:	9d 60 00 00 	l.addi r11,r0,0x0
    4b58:	18 60 00 01 	l.movhi r3,0x1
    4b5c:	a8 63 5e f6 	l.ori r3,r3,0x5ef6
    4b60:	07 ff f2 7f 	l.jal 155c <_prints>
    4b64:	15 00 00 00 	l.nop 0x0
    4b68:	07 ff f3 6b 	l.jal 1914 <_clear_migration_src>
    4b6c:	15 00 00 00 	l.nop 0x0
    4b70:	9d 6e 00 01 	l.addi r11,r14,0x1
    4b74:	85 21 00 00 	l.lwz r9,0x0(r1)
    4b78:	84 41 00 04 	l.lwz r2,0x4(r1)
    4b7c:	85 41 00 08 	l.lwz r10,0x8(r1)
    4b80:	85 81 00 0c 	l.lwz r12,0xc(r1)
    4b84:	85 c1 00 10 	l.lwz r14,0x10(r1)
    4b88:	44 00 48 00 	l.jr r9
    4b8c:	9c 21 08 5c 	l.addi r1,r1,0x85c

00004b90 <_dijkstra_slave>:
    4b90:	9c 21 fb 2c 	l.addi r1,r1,0xfffffb2c
    4b94:	d4 01 10 04 	l.sw 0x4(r1),r2
    4b98:	9c 41 04 d4 	l.addi r2,r1,0x4d4
    4b9c:	d4 01 48 00 	l.sw 0x0(r1),r9
    4ba0:	d4 01 50 08 	l.sw 0x8(r1),r10
    4ba4:	d4 01 60 0c 	l.sw 0xc(r1),r12
    4ba8:	d4 01 70 10 	l.sw 0x10(r1),r14
    4bac:	18 80 00 01 	l.movhi r4,0x1
    4bb0:	a8 84 6e 94 	l.ori r4,r4,0x6e94
    4bb4:	18 60 00 01 	l.movhi r3,0x1
    4bb8:	a8 63 5f 13 	l.ori r3,r3,0x5f13
    4bbc:	84 84 00 00 	l.lwz r4,0x0(r4)
    4bc0:	19 c0 00 01 	l.movhi r14,0x1
    4bc4:	a9 ce cd f0 	l.ori r14,r14,0xcdf0
    4bc8:	07 ff f4 12 	l.jal 1c10 <_putsv>
    4bcc:	15 00 00 00 	l.nop 0x0
    4bd0:	18 60 00 01 	l.movhi r3,0x1
    4bd4:	a8 63 5f 1d 	l.ori r3,r3,0x5f1d
    4bd8:	07 ff f2 61 	l.jal 155c <_prints>
    4bdc:	9d 40 00 00 	l.addi r10,r0,0x0
    4be0:	9c 60 00 10 	l.addi r3,r0,0x10
    4be4:	a9 82 00 00 	l.ori r12,r2,0x0
    4be8:	d4 2e 18 00 	l.sw 0x800(r14),r3
    4bec:	18 60 00 01 	l.movhi r3,0x1
    4bf0:	a8 63 cd f0 	l.ori r3,r3,0xcdf0
    4bf4:	07 ff f7 d8 	l.jal 2b54 <_ReceiveMessage>
    4bf8:	9c 80 00 06 	l.addi r4,r0,0x6
    4bfc:	9c a0 00 00 	l.addi r5,r0,0x0
    4c00:	9c 6c fb 40 	l.addi r3,r12,0xfffffb40
    4c04:	18 80 00 01 	l.movhi r4,0x1
    4c08:	a8 84 cd f0 	l.ori r4,r4,0xcdf0
    4c0c:	84 c4 00 00 	l.lwz r6,0x0(r4)
    4c10:	9c a5 00 01 	l.addi r5,r5,0x1
    4c14:	d4 03 30 00 	l.sw 0x0(r3),r6
    4c18:	9c 84 00 04 	l.addi r4,r4,0x4
    4c1c:	bd 45 00 0f 	l.sfgtsi r5,0xf
    4c20:	0f ff ff fb 	l.bnf 4c0c <_dijkstra_slave+0x7c>
    4c24:	9c 63 00 04 	l.addi r3,r3,0x4
    4c28:	9d 4a 00 01 	l.addi r10,r10,0x1
    4c2c:	bd 4a 00 0f 	l.sfgtsi r10,0xf
    4c30:	0f ff ff ef 	l.bnf 4bec <_dijkstra_slave+0x5c>
    4c34:	9d 8c 00 40 	l.addi r12,r12,0x40
    4c38:	84 62 fb 40 	l.lwz r3,0xfffffb40(r2)
    4c3c:	18 80 00 01 	l.movhi r4,0x1
    4c40:	a8 84 86 9f 	l.ori r4,r4,0x869f
    4c44:	e4 23 20 00 	l.sfne r3,r4
    4c48:	0c 00 00 4e 	l.bnf 4d80 <_dijkstra_slave+0x1f0>
    4c4c:	9d 40 00 00 	l.addi r10,r0,0x0
    4c50:	a8 62 00 00 	l.ori r3,r2,0x0
    4c54:	d7 e3 57 c0 	l.sw 0xffffffc0(r3),r10
    4c58:	9c a0 27 0f 	l.addi r5,r0,0x270f
    4c5c:	9d 4a 00 01 	l.addi r10,r10,0x1
    4c60:	d7 e3 2f 80 	l.sw 0xffffff80(r3),r5
    4c64:	d7 e3 2f 40 	l.sw 0xffffff40(r3),r5
    4c68:	bd 4a 00 0f 	l.sfgtsi r10,0xf
    4c6c:	0f ff ff fa 	l.bnf 4c54 <_dijkstra_slave+0xc4>
    4c70:	9c 63 00 04 	l.addi r3,r3,0x4
    4c74:	9d 40 00 00 	l.addi r10,r0,0x0
    4c78:	d7 e2 57 80 	l.sw 0xffffff80(r2),r10
    4c7c:	a9 8a 00 00 	l.ori r12,r10,0x0
    4c80:	9c e0 27 0f 	l.addi r7,r0,0x270f
    4c84:	9c a0 00 00 	l.addi r5,r0,0x0
    4c88:	a8 82 00 00 	l.ori r4,r2,0x0
    4c8c:	84 64 ff 80 	l.lwz r3,0xffffff80(r4)
    4c90:	e5 63 38 00 	l.sfges r3,r7
    4c94:	10 00 00 08 	l.bf 4cb4 <_dijkstra_slave+0x124>
    4c98:	15 00 00 00 	l.nop 0x0
    4c9c:	84 c4 ff c0 	l.lwz r6,0xffffffc0(r4)
    4ca0:	bc 06 27 0f 	l.sfeqi r6,0x270f
    4ca4:	10 00 00 04 	l.bf 4cb4 <_dijkstra_slave+0x124>
    4ca8:	15 00 00 00 	l.nop 0x0
    4cac:	a8 e3 00 00 	l.ori r7,r3,0x0
    4cb0:	a9 85 00 00 	l.ori r12,r5,0x0
    4cb4:	9c a5 00 01 	l.addi r5,r5,0x1
    4cb8:	bd 45 00 0f 	l.sfgtsi r5,0xf
    4cbc:	0f ff ff f4 	l.bnf 4c8c <_dijkstra_slave+0xfc>
    4cc0:	9c 84 00 04 	l.addi r4,r4,0x4
    4cc4:	b8 6c 00 02 	l.slli r3,r12,0x2
    4cc8:	b8 8c 00 06 	l.slli r4,r12,0x6
    4ccc:	9c a0 27 0f 	l.addi r5,r0,0x270f
    4cd0:	e0 63 10 00 	l.add r3,r3,r2
    4cd4:	e0 84 10 00 	l.add r4,r4,r2
    4cd8:	d7 e3 2f c0 	l.sw 0xffffffc0(r3),r5
    4cdc:	9c c0 00 00 	l.addi r6,r0,0x0
    4ce0:	9d 63 ff 80 	l.addi r11,r3,0xffffff80
    4ce4:	9c a4 fb 40 	l.addi r5,r4,0xfffffb40
    4ce8:	b8 66 00 02 	l.slli r3,r6,0x2
    4cec:	e0 83 10 00 	l.add r4,r3,r2
    4cf0:	84 64 ff c0 	l.lwz r3,0xffffffc0(r4)
    4cf4:	bc 03 27 0f 	l.sfeqi r3,0x270f
    4cf8:	10 00 00 0e 	l.bf 4d30 <_dijkstra_slave+0x1a0>
    4cfc:	9c c6 00 01 	l.addi r6,r6,0x1
    4d00:	84 65 00 00 	l.lwz r3,0x0(r5)
    4d04:	bc 03 27 0f 	l.sfeqi r3,0x270f
    4d08:	10 00 00 0a 	l.bf 4d30 <_dijkstra_slave+0x1a0>
    4d0c:	9c e4 ff 80 	l.addi r7,r4,0xffffff80
    4d10:	85 0b 00 00 	l.lwz r8,0x0(r11)
    4d14:	85 27 00 00 	l.lwz r9,0x0(r7)
    4d18:	e0 68 18 00 	l.add r3,r8,r3
    4d1c:	e5 a9 18 00 	l.sfles r9,r3
    4d20:	10 00 00 05 	l.bf 4d34 <_dijkstra_slave+0x1a4>
    4d24:	bd 46 00 0f 	l.sfgtsi r6,0xf
    4d28:	d4 07 18 00 	l.sw 0x0(r7),r3
    4d2c:	d7 e4 67 40 	l.sw 0xffffff40(r4),r12
    4d30:	bd 46 00 0f 	l.sfgtsi r6,0xf
    4d34:	0f ff ff ed 	l.bnf 4ce8 <_dijkstra_slave+0x158>
    4d38:	9c a5 00 04 	l.addi r5,r5,0x4
    4d3c:	9d 4a 00 01 	l.addi r10,r10,0x1
    4d40:	bd 4a 00 0f 	l.sfgtsi r10,0xf
    4d44:	0f ff ff d0 	l.bnf 4c84 <_dijkstra_slave+0xf4>
    4d48:	9c e0 27 0f 	l.addi r7,r0,0x270f
    4d4c:	07 ff f3 1a 	l.jal 19b4 <_get_migration_src>
    4d50:	15 00 00 00 	l.nop 0x0
    4d54:	bc 0b 00 00 	l.sfeqi r11,0x0
    4d58:	13 ff ff 9e 	l.bf 4bd0 <_dijkstra_slave+0x40>
    4d5c:	15 00 00 00 	l.nop 0x0
    4d60:	18 60 00 01 	l.movhi r3,0x1
    4d64:	a8 63 5f 2f 	l.ori r3,r3,0x5f2f
    4d68:	07 ff f1 fd 	l.jal 155c <_prints>
    4d6c:	15 00 00 00 	l.nop 0x0
    4d70:	07 ff f2 e9 	l.jal 1914 <_clear_migration_src>
    4d74:	15 00 00 00 	l.nop 0x0
    4d78:	00 00 00 22 	l.j 4e00 <_dijkstra_slave+0x270>
    4d7c:	9d 60 00 01 	l.addi r11,r0,0x1
    4d80:	9c c0 00 20 	l.addi r6,r0,0x20
    4d84:	d4 2e 30 00 	l.sw 0x800(r14),r6
    4d88:	9c 82 ff 80 	l.addi r4,r2,0xffffff80
    4d8c:	18 60 00 01 	l.movhi r3,0x1
    4d90:	a8 63 cd f0 	l.ori r3,r3,0xcdf0
    4d94:	84 a4 00 00 	l.lwz r5,0x0(r4)
    4d98:	9d 4a 00 01 	l.addi r10,r10,0x1
    4d9c:	d4 03 28 00 	l.sw 0x0(r3),r5
    4da0:	9c 84 00 04 	l.addi r4,r4,0x4
    4da4:	bd 4a 00 0f 	l.sfgtsi r10,0xf
    4da8:	0f ff ff fb 	l.bnf 4d94 <_dijkstra_slave+0x204>
    4dac:	9c 63 00 04 	l.addi r3,r3,0x4
    4db0:	9d 40 00 00 	l.addi r10,r0,0x0
    4db4:	18 80 00 01 	l.movhi r4,0x1
    4db8:	a8 84 ce 30 	l.ori r4,r4,0xce30
    4dbc:	9c 62 ff 40 	l.addi r3,r2,0xffffff40
    4dc0:	84 c3 00 00 	l.lwz r6,0x0(r3)
    4dc4:	9d 4a 00 01 	l.addi r10,r10,0x1
    4dc8:	d4 04 30 00 	l.sw 0x0(r4),r6
    4dcc:	9c 63 00 04 	l.addi r3,r3,0x4
    4dd0:	bd 4a 00 0f 	l.sfgtsi r10,0xf
    4dd4:	0f ff ff fb 	l.bnf 4dc0 <_dijkstra_slave+0x230>
    4dd8:	9c 84 00 04 	l.addi r4,r4,0x4
    4ddc:	18 60 00 01 	l.movhi r3,0x1
    4de0:	a8 63 cd f0 	l.ori r3,r3,0xcdf0
    4de4:	07 ff f5 96 	l.jal 243c <_SendMessage>
    4de8:	9c 80 00 0b 	l.addi r4,r0,0xb
    4dec:	18 60 00 01 	l.movhi r3,0x1
    4df0:	a8 63 5f 4a 	l.ori r3,r3,0x5f4a
    4df4:	07 ff f1 da 	l.jal 155c <_prints>
    4df8:	15 00 00 00 	l.nop 0x0
    4dfc:	9d 60 00 00 	l.addi r11,r0,0x0
    4e00:	85 21 00 00 	l.lwz r9,0x0(r1)
    4e04:	84 41 00 04 	l.lwz r2,0x4(r1)
    4e08:	85 41 00 08 	l.lwz r10,0x8(r1)
    4e0c:	85 81 00 0c 	l.lwz r12,0xc(r1)
    4e10:	85 c1 00 10 	l.lwz r14,0x10(r1)
    4e14:	44 00 48 00 	l.jr r9
    4e18:	9c 21 04 d4 	l.addi r1,r1,0x4d4

00004e1c <_dijkstra_print>:
    4e1c:	9c 21 ff 70 	l.addi r1,r1,0xffffff70
    4e20:	d4 01 10 04 	l.sw 0x4(r1),r2
    4e24:	9c 41 00 90 	l.addi r2,r1,0x90
    4e28:	d4 01 48 00 	l.sw 0x0(r1),r9
    4e2c:	d4 01 50 08 	l.sw 0x8(r1),r10
    4e30:	d4 01 60 0c 	l.sw 0xc(r1),r12
    4e34:	18 60 00 01 	l.movhi r3,0x1
    4e38:	a8 63 5f 64 	l.ori r3,r3,0x5f64
    4e3c:	19 80 00 01 	l.movhi r12,0x1
    4e40:	a9 8c cd f0 	l.ori r12,r12,0xcdf0
    4e44:	07 ff f1 c6 	l.jal 155c <_prints>
    4e48:	9d 40 00 00 	l.addi r10,r0,0x0
    4e4c:	9c 60 00 20 	l.addi r3,r0,0x20
    4e50:	9c 80 00 07 	l.addi r4,r0,0x7
    4e54:	d4 2c 18 00 	l.sw 0x800(r12),r3
    4e58:	07 ff f7 3f 	l.jal 2b54 <_ReceiveMessage>
    4e5c:	a8 6c 00 00 	l.ori r3,r12,0x0
    4e60:	a8 6c 00 00 	l.ori r3,r12,0x0
    4e64:	9c 82 ff 80 	l.addi r4,r2,0xffffff80
    4e68:	84 a3 00 00 	l.lwz r5,0x0(r3)
    4e6c:	9d 4a 00 01 	l.addi r10,r10,0x1
    4e70:	d4 04 28 00 	l.sw 0x0(r4),r5
    4e74:	9c 63 00 04 	l.addi r3,r3,0x4
    4e78:	bd 4a 00 1f 	l.sfgtsi r10,0x1f
    4e7c:	0f ff ff fb 	l.bnf 4e68 <_dijkstra_print+0x4c>
    4e80:	9c 84 00 04 	l.addi r4,r4,0x4
    4e84:	18 60 00 01 	l.movhi r3,0x1
    4e88:	a8 63 cd f0 	l.ori r3,r3,0xcdf0
    4e8c:	9c 80 00 08 	l.addi r4,r0,0x8
    4e90:	07 ff f7 31 	l.jal 2b54 <_ReceiveMessage>
    4e94:	9d 40 00 00 	l.addi r10,r0,0x0
    4e98:	9c 82 ff 80 	l.addi r4,r2,0xffffff80
    4e9c:	18 60 00 01 	l.movhi r3,0x1
    4ea0:	a8 63 cd f0 	l.ori r3,r3,0xcdf0
    4ea4:	84 a3 00 00 	l.lwz r5,0x0(r3)
    4ea8:	9d 4a 00 01 	l.addi r10,r10,0x1
    4eac:	d4 04 28 00 	l.sw 0x0(r4),r5
    4eb0:	9c 63 00 04 	l.addi r3,r3,0x4
    4eb4:	bd 4a 00 1f 	l.sfgtsi r10,0x1f
    4eb8:	0f ff ff fb 	l.bnf 4ea4 <_dijkstra_print+0x88>
    4ebc:	9c 84 00 04 	l.addi r4,r4,0x4
    4ec0:	18 60 00 01 	l.movhi r3,0x1
    4ec4:	a8 63 cd f0 	l.ori r3,r3,0xcdf0
    4ec8:	9c 80 00 09 	l.addi r4,r0,0x9
    4ecc:	07 ff f7 22 	l.jal 2b54 <_ReceiveMessage>
    4ed0:	9d 40 00 00 	l.addi r10,r0,0x0
    4ed4:	9c 82 ff 80 	l.addi r4,r2,0xffffff80
    4ed8:	18 60 00 01 	l.movhi r3,0x1
    4edc:	a8 63 cd f0 	l.ori r3,r3,0xcdf0
    4ee0:	84 a3 00 00 	l.lwz r5,0x0(r3)
    4ee4:	9d 4a 00 01 	l.addi r10,r10,0x1
    4ee8:	d4 04 28 00 	l.sw 0x0(r4),r5
    4eec:	9c 63 00 04 	l.addi r3,r3,0x4
    4ef0:	bd 4a 00 1f 	l.sfgtsi r10,0x1f
    4ef4:	0f ff ff fb 	l.bnf 4ee0 <_dijkstra_print+0xc4>
    4ef8:	9c 84 00 04 	l.addi r4,r4,0x4
    4efc:	18 60 00 01 	l.movhi r3,0x1
    4f00:	a8 63 cd f0 	l.ori r3,r3,0xcdf0
    4f04:	9c 80 00 0a 	l.addi r4,r0,0xa
    4f08:	07 ff f7 13 	l.jal 2b54 <_ReceiveMessage>
    4f0c:	9d 40 00 00 	l.addi r10,r0,0x0
    4f10:	9c 82 ff 80 	l.addi r4,r2,0xffffff80
    4f14:	18 60 00 01 	l.movhi r3,0x1
    4f18:	a8 63 cd f0 	l.ori r3,r3,0xcdf0
    4f1c:	84 a3 00 00 	l.lwz r5,0x0(r3)
    4f20:	9d 4a 00 01 	l.addi r10,r10,0x1
    4f24:	d4 04 28 00 	l.sw 0x0(r4),r5
    4f28:	9c 63 00 04 	l.addi r3,r3,0x4
    4f2c:	bd 4a 00 1f 	l.sfgtsi r10,0x1f
    4f30:	0f ff ff fb 	l.bnf 4f1c <_dijkstra_print+0x100>
    4f34:	9c 84 00 04 	l.addi r4,r4,0x4
    4f38:	18 60 00 01 	l.movhi r3,0x1
    4f3c:	a8 63 5f 74 	l.ori r3,r3,0x5f74
    4f40:	07 ff f1 87 	l.jal 155c <_prints>
    4f44:	15 00 00 00 	l.nop 0x0
    4f48:	9d 60 00 00 	l.addi r11,r0,0x0
    4f4c:	85 21 00 00 	l.lwz r9,0x0(r1)
    4f50:	84 41 00 04 	l.lwz r2,0x4(r1)
    4f54:	85 41 00 08 	l.lwz r10,0x8(r1)
    4f58:	85 81 00 0c 	l.lwz r12,0xc(r1)
    4f5c:	44 00 48 00 	l.jr r9
    4f60:	9c 21 00 90 	l.addi r1,r1,0x90

00004f64 <_mpeg_print_mpeg>:
    4f64:	9c 21 ff f4 	l.addi r1,r1,0xfffffff4
    4f68:	d4 01 10 04 	l.sw 0x4(r1),r2
    4f6c:	9c 41 00 0c 	l.addi r2,r1,0xc
    4f70:	d4 01 48 00 	l.sw 0x0(r1),r9
    4f74:	d4 01 50 08 	l.sw 0x8(r1),r10
    4f78:	a8 83 00 00 	l.ori r4,r3,0x0
    4f7c:	18 60 00 01 	l.movhi r3,0x1
    4f80:	a8 63 5f 84 	l.ori r3,r3,0x5f84
    4f84:	07 ff f1 76 	l.jal 155c <_prints>
    4f88:	a9 44 00 00 	l.ori r10,r4,0x0
    4f8c:	bd 4a 00 9f 	l.sfgtsi r10,0x9f
    4f90:	10 00 00 19 	l.bf 4ff4 <_mpeg_print_mpeg+0x90>
    4f94:	15 00 00 00 	l.nop 0x0
    4f98:	18 60 00 01 	l.movhi r3,0x1
    4f9c:	a8 63 cd f0 	l.ori r3,r3,0xcdf0
    4fa0:	07 ff f6 ed 	l.jal 2b54 <_ReceiveMessage>
    4fa4:	9c 80 00 0d 	l.addi r4,r0,0xd
    4fa8:	18 60 00 01 	l.movhi r3,0x1
    4fac:	a8 63 5f 9c 	l.ori r3,r3,0x5f9c
    4fb0:	07 ff f1 6b 	l.jal 155c <_prints>
    4fb4:	15 00 00 00 	l.nop 0x0
    4fb8:	07 ff f1 7c 	l.jal 15a8 <_printi>
    4fbc:	a8 6a 00 00 	l.ori r3,r10,0x0
    4fc0:	18 60 00 01 	l.movhi r3,0x1
    4fc4:	a8 63 57 ae 	l.ori r3,r3,0x57ae
    4fc8:	07 ff f1 65 	l.jal 155c <_prints>
    4fcc:	15 00 00 00 	l.nop 0x0
    4fd0:	07 ff f2 79 	l.jal 19b4 <_get_migration_src>
    4fd4:	15 00 00 00 	l.nop 0x0
    4fd8:	bc 0b 00 00 	l.sfeqi r11,0x0
    4fdc:	0c 00 00 0c 	l.bnf 500c <_mpeg_print_mpeg+0xa8>
    4fe0:	15 00 00 00 	l.nop 0x0
    4fe4:	9d 4a 00 01 	l.addi r10,r10,0x1
    4fe8:	bd 4a 00 9f 	l.sfgtsi r10,0x9f
    4fec:	0f ff ff eb 	l.bnf 4f98 <_mpeg_print_mpeg+0x34>
    4ff0:	15 00 00 00 	l.nop 0x0
    4ff4:	18 60 00 01 	l.movhi r3,0x1
    4ff8:	a8 63 5f a4 	l.ori r3,r3,0x5fa4
    4ffc:	07 ff f1 58 	l.jal 155c <_prints>
    5000:	15 00 00 00 	l.nop 0x0
    5004:	00 00 00 09 	l.j 5028 <_mpeg_print_mpeg+0xc4>
    5008:	9d 60 00 00 	l.addi r11,r0,0x0
    500c:	18 60 00 01 	l.movhi r3,0x1
    5010:	a8 63 5f bb 	l.ori r3,r3,0x5fbb
    5014:	07 ff f1 52 	l.jal 155c <_prints>
    5018:	15 00 00 00 	l.nop 0x0
    501c:	07 ff f2 3e 	l.jal 1914 <_clear_migration_src>
    5020:	15 00 00 00 	l.nop 0x0
    5024:	9d 6a 00 01 	l.addi r11,r10,0x1
    5028:	85 21 00 00 	l.lwz r9,0x0(r1)
    502c:	84 41 00 04 	l.lwz r2,0x4(r1)
    5030:	85 41 00 08 	l.lwz r10,0x8(r1)
    5034:	44 00 48 00 	l.jr r9
    5038:	9c 21 00 0c 	l.addi r1,r1,0xc

0000503c <_mpeg_start>:
    503c:	9c 21 fd ec 	l.addi r1,r1,0xfffffdec
    5040:	d4 01 10 04 	l.sw 0x4(r1),r2
    5044:	9c 41 02 14 	l.addi r2,r1,0x214
    5048:	d4 01 48 00 	l.sw 0x0(r1),r9
    504c:	d4 01 50 08 	l.sw 0x8(r1),r10
    5050:	d4 01 60 0c 	l.sw 0xc(r1),r12
    5054:	d4 01 70 10 	l.sw 0x10(r1),r14
    5058:	9d 42 fe 00 	l.addi r10,r2,0xfffffe00
    505c:	a9 c3 00 00 	l.ori r14,r3,0x0
    5060:	18 80 00 01 	l.movhi r4,0x1
    5064:	a8 84 49 b8 	l.ori r4,r4,0x49b8
    5068:	9c a0 02 00 	l.addi r5,r0,0x200
    506c:	a8 6a 00 00 	l.ori r3,r10,0x0
    5070:	04 00 0d 20 	l.jal 84f0 <_memcpy>
    5074:	9d 80 00 00 	l.addi r12,r0,0x0
    5078:	18 60 00 01 	l.movhi r3,0x1
    507c:	a8 63 5f d2 	l.ori r3,r3,0x5fd2
    5080:	07 ff f1 37 	l.jal 155c <_prints>
    5084:	15 00 00 00 	l.nop 0x0
    5088:	04 00 0d 04 	l.jal 8498 <_clock>
    508c:	15 00 00 00 	l.nop 0x0
    5090:	07 ff f1 46 	l.jal 15a8 <_printi>
    5094:	a8 6b 00 00 	l.ori r3,r11,0x0
    5098:	18 60 00 01 	l.movhi r3,0x1
    509c:	a8 63 57 ae 	l.ori r3,r3,0x57ae
    50a0:	07 ff f1 2f 	l.jal 155c <_prints>
    50a4:	15 00 00 00 	l.nop 0x0
    50a8:	18 a0 00 01 	l.movhi r5,0x1
    50ac:	a8 a5 cd f0 	l.ori r5,r5,0xcdf0
    50b0:	a8 6a 00 00 	l.ori r3,r10,0x0
    50b4:	a8 85 00 00 	l.ori r4,r5,0x0
    50b8:	84 c3 00 00 	l.lwz r6,0x0(r3)
    50bc:	9d 8c 00 01 	l.addi r12,r12,0x1
    50c0:	d4 04 30 00 	l.sw 0x0(r4),r6
    50c4:	9c 63 00 04 	l.addi r3,r3,0x4
    50c8:	bd 4c 00 7f 	l.sfgtsi r12,0x7f
    50cc:	0f ff ff fb 	l.bnf 50b8 <_mpeg_start+0x7c>
    50d0:	9c 84 00 04 	l.addi r4,r4,0x4
    50d4:	a9 8e 00 00 	l.ori r12,r14,0x0
    50d8:	9c 60 00 80 	l.addi r3,r0,0x80
    50dc:	bd 4c 00 9f 	l.sfgtsi r12,0x9f
    50e0:	10 00 00 1e 	l.bf 5158 <_mpeg_start+0x11c>
    50e4:	d4 25 18 00 	l.sw 0x800(r5),r3
    50e8:	04 00 0c ec 	l.jal 8498 <_clock>
    50ec:	15 00 00 00 	l.nop 0x0
    50f0:	9c 80 00 0f 	l.addi r4,r0,0xf
    50f4:	18 60 00 01 	l.movhi r3,0x1
    50f8:	a8 63 cd f0 	l.ori r3,r3,0xcdf0
    50fc:	07 ff f4 d0 	l.jal 243c <_SendMessage>
    5100:	a9 4b 00 00 	l.ori r10,r11,0x0
    5104:	04 00 0c e5 	l.jal 8498 <_clock>
    5108:	15 00 00 00 	l.nop 0x0
    510c:	18 60 00 01 	l.movhi r3,0x1
    5110:	a8 63 5f e9 	l.ori r3,r3,0x5fe9
    5114:	07 ff f1 12 	l.jal 155c <_prints>
    5118:	e1 4b 50 02 	l.sub r10,r11,r10
    511c:	07 ff f1 23 	l.jal 15a8 <_printi>
    5120:	a8 6a 00 00 	l.ori r3,r10,0x0
    5124:	18 60 00 01 	l.movhi r3,0x1
    5128:	a8 63 57 ae 	l.ori r3,r3,0x57ae
    512c:	07 ff f1 0c 	l.jal 155c <_prints>
    5130:	15 00 00 00 	l.nop 0x0
    5134:	07 ff f2 20 	l.jal 19b4 <_get_migration_src>
    5138:	15 00 00 00 	l.nop 0x0
    513c:	bc 0b 00 00 	l.sfeqi r11,0x0
    5140:	0c 00 00 10 	l.bnf 5180 <_mpeg_start+0x144>
    5144:	15 00 00 00 	l.nop 0x0
    5148:	9d 8c 00 01 	l.addi r12,r12,0x1
    514c:	bd 4c 00 9f 	l.sfgtsi r12,0x9f
    5150:	0f ff ff e6 	l.bnf 50e8 <_mpeg_start+0xac>
    5154:	15 00 00 00 	l.nop 0x0
    5158:	04 00 0c d0 	l.jal 8498 <_clock>
    515c:	15 00 00 00 	l.nop 0x0
    5160:	07 ff f1 12 	l.jal 15a8 <_printi>
    5164:	a8 6b 00 00 	l.ori r3,r11,0x0
    5168:	18 60 00 01 	l.movhi r3,0x1
    516c:	a8 63 5f fb 	l.ori r3,r3,0x5ffb
    5170:	07 ff f0 fb 	l.jal 155c <_prints>
    5174:	15 00 00 00 	l.nop 0x0
    5178:	00 00 00 09 	l.j 519c <_mpeg_start+0x160>
    517c:	9d 60 00 00 	l.addi r11,r0,0x0
    5180:	18 60 00 01 	l.movhi r3,0x1
    5184:	a8 63 60 12 	l.ori r3,r3,0x6012
    5188:	07 ff f0 f5 	l.jal 155c <_prints>
    518c:	15 00 00 00 	l.nop 0x0
    5190:	07 ff f1 e1 	l.jal 1914 <_clear_migration_src>
    5194:	15 00 00 00 	l.nop 0x0
    5198:	9d 6c 00 01 	l.addi r11,r12,0x1
    519c:	85 21 00 00 	l.lwz r9,0x0(r1)
    51a0:	84 41 00 04 	l.lwz r2,0x4(r1)
    51a4:	85 41 00 08 	l.lwz r10,0x8(r1)
    51a8:	85 81 00 0c 	l.lwz r12,0xc(r1)
    51ac:	85 c1 00 10 	l.lwz r14,0x10(r1)
    51b0:	44 00 48 00 	l.jr r9
    51b4:	9c 21 02 14 	l.addi r1,r1,0x214

000051b8 <_dtw_recognizer>:
    51b8:	9c 21 f5 f0 	l.addi r1,r1,0xfffff5f0
    51bc:	d4 01 10 04 	l.sw 0x4(r1),r2
    51c0:	9c 41 0a 10 	l.addi r2,r1,0xa10
    51c4:	d4 01 48 00 	l.sw 0x0(r1),r9
    51c8:	d4 01 50 08 	l.sw 0x8(r1),r10
    51cc:	d4 01 60 0c 	l.sw 0xc(r1),r12
    51d0:	d4 01 70 10 	l.sw 0x10(r1),r14
    51d4:	d4 01 80 14 	l.sw 0x14(r1),r16
    51d8:	a9 43 00 00 	l.ori r10,r3,0x0
    51dc:	9c a0 00 13 	l.addi r5,r0,0x13
    51e0:	9c 60 00 12 	l.addi r3,r0,0x12
    51e4:	d7 e2 2f f4 	l.sw 0xfffffff4(r2),r5
    51e8:	d7 e2 1f f0 	l.sw 0xfffffff0(r2),r3
    51ec:	9c a0 00 15 	l.addi r5,r0,0x15
    51f0:	9c 60 00 14 	l.addi r3,r0,0x14
    51f4:	d7 e2 2f fc 	l.sw 0xfffffffc(r2),r5
    51f8:	d7 e2 1f f8 	l.sw 0xfffffff8(r2),r3
    51fc:	18 80 00 01 	l.movhi r4,0x1
    5200:	a8 84 4b b8 	l.ori r4,r4,0x4bb8
    5204:	9c 62 f6 08 	l.addi r3,r2,0xfffff608
    5208:	9c a0 01 e4 	l.addi r5,r0,0x1e4
    520c:	04 00 0c b9 	l.jal 84f0 <_memcpy>
    5210:	9d c0 00 00 	l.addi r14,r0,0x0
    5214:	18 60 00 01 	l.movhi r3,0x1
    5218:	a8 63 60 29 	l.ori r3,r3,0x6029
    521c:	07 ff f0 d0 	l.jal 155c <_prints>
    5220:	15 00 00 00 	l.nop 0x0
    5224:	a8 8e 00 00 	l.ori r4,r14,0x0
    5228:	9d 80 00 00 	l.addi r12,r0,0x0
    522c:	e0 64 10 00 	l.add r3,r4,r2
    5230:	84 a3 f6 08 	l.lwz r5,0xfffff608(r3)
    5234:	9d 8c 00 01 	l.addi r12,r12,0x1
    5238:	d7 c3 2f ec 	l.sw 0xfffff7ec(r3),r5
    523c:	bd 4c 00 0a 	l.sfgtsi r12,0xa
    5240:	0f ff ff fc 	l.bnf 5230 <_dtw_recognizer+0x78>
    5244:	9c 63 00 04 	l.addi r3,r3,0x4
    5248:	9d ce 00 01 	l.addi r14,r14,0x1
    524c:	bd 4e 00 0a 	l.sfgtsi r14,0xa
    5250:	0f ff ff f6 	l.bnf 5228 <_dtw_recognizer+0x70>
    5254:	9c 84 00 2c 	l.addi r4,r4,0x2c
    5258:	9c 60 00 79 	l.addi r3,r0,0x79
    525c:	a9 8a 00 00 	l.ori r12,r10,0x0
    5260:	bd 4a 00 13 	l.sfgtsi r10,0x13
    5264:	10 00 00 19 	l.bf 52c8 <_dtw_recognizer+0x110>
    5268:	d7 e2 1f ec 	l.sw 0xffffffec(r2),r3
    526c:	9e 02 f7 ec 	l.addi r16,r2,0xfffff7ec
    5270:	9d c0 00 00 	l.addi r14,r0,0x0
    5274:	9d 42 ff f0 	l.addi r10,r2,0xfffffff0
    5278:	84 8a 00 00 	l.lwz r4,0x0(r10)
    527c:	a8 70 00 00 	l.ori r3,r16,0x0
    5280:	07 ff f4 6f 	l.jal 243c <_SendMessage>
    5284:	9d ce 00 01 	l.addi r14,r14,0x1
    5288:	18 60 00 01 	l.movhi r3,0x1
    528c:	a8 63 cd f0 	l.ori r3,r3,0xcdf0
    5290:	07 ff f6 31 	l.jal 2b54 <_ReceiveMessage>
    5294:	84 8a 00 00 	l.lwz r4,0x0(r10)
    5298:	bd 4e 00 03 	l.sfgtsi r14,0x3
    529c:	0f ff ff f7 	l.bnf 5278 <_dtw_recognizer+0xc0>
    52a0:	9d 4a 00 04 	l.addi r10,r10,0x4
    52a4:	07 ff f1 c4 	l.jal 19b4 <_get_migration_src>
    52a8:	15 00 00 00 	l.nop 0x0
    52ac:	bc 0b 00 00 	l.sfeqi r11,0x0
    52b0:	0c 00 00 0c 	l.bnf 52e0 <_dtw_recognizer+0x128>
    52b4:	15 00 00 00 	l.nop 0x0
    52b8:	9d 8c 00 01 	l.addi r12,r12,0x1
    52bc:	bd 4c 00 13 	l.sfgtsi r12,0x13
    52c0:	0f ff ff ec 	l.bnf 5270 <_dtw_recognizer+0xb8>
    52c4:	15 00 00 00 	l.nop 0x0
    52c8:	18 60 00 01 	l.movhi r3,0x1
    52cc:	a8 63 60 44 	l.ori r3,r3,0x6044
    52d0:	07 ff f0 a3 	l.jal 155c <_prints>
    52d4:	15 00 00 00 	l.nop 0x0
    52d8:	00 00 00 09 	l.j 52fc <_dtw_recognizer+0x144>
    52dc:	9d 60 00 00 	l.addi r11,r0,0x0
    52e0:	18 60 00 01 	l.movhi r3,0x1
    52e4:	a8 63 60 5e 	l.ori r3,r3,0x605e
    52e8:	07 ff f0 9d 	l.jal 155c <_prints>
    52ec:	15 00 00 00 	l.nop 0x0
    52f0:	07 ff f1 89 	l.jal 1914 <_clear_migration_src>
    52f4:	15 00 00 00 	l.nop 0x0
    52f8:	9d 6c 00 01 	l.addi r11,r12,0x1
    52fc:	85 21 00 00 	l.lwz r9,0x0(r1)
    5300:	84 41 00 04 	l.lwz r2,0x4(r1)
    5304:	85 41 00 08 	l.lwz r10,0x8(r1)
    5308:	85 81 00 0c 	l.lwz r12,0xc(r1)
    530c:	85 c1 00 10 	l.lwz r14,0x10(r1)
    5310:	86 01 00 14 	l.lwz r16,0x14(r1)
    5314:	44 00 48 00 	l.jr r9
    5318:	9c 21 0a 10 	l.addi r1,r1,0xa10

0000531c <_idct_func>:
    531c:	9c 21 f7 c8 	l.addi r1,r1,0xfffff7c8
    5320:	d4 01 10 04 	l.sw 0x4(r1),r2
    5324:	9c 41 08 38 	l.addi r2,r1,0x838
    5328:	d4 01 48 00 	l.sw 0x0(r1),r9
    532c:	d4 01 50 08 	l.sw 0x8(r1),r10
    5330:	d4 01 60 0c 	l.sw 0xc(r1),r12
    5334:	d4 01 70 10 	l.sw 0x10(r1),r14
    5338:	d4 01 80 14 	l.sw 0x14(r1),r16
    533c:	d4 01 90 18 	l.sw 0x18(r1),r18
    5340:	d4 01 a0 1c 	l.sw 0x1c(r1),r20
    5344:	d4 01 b0 20 	l.sw 0x20(r1),r22
    5348:	d4 01 c0 24 	l.sw 0x24(r1),r24
    534c:	d4 01 d0 28 	l.sw 0x28(r1),r26
    5350:	d4 01 e0 2c 	l.sw 0x2c(r1),r28
    5354:	d4 01 f0 30 	l.sw 0x30(r1),r30
    5358:	9e c0 00 00 	l.addi r22,r0,0x0
    535c:	ba 24 00 02 	l.slli r17,r4,0x2
    5360:	ab 44 00 00 	l.ori r26,r4,0x0
    5364:	aa 43 00 00 	l.ori r18,r3,0x0
    5368:	9e 80 00 b5 	l.addi r20,r0,0xb5
    536c:	aa 16 00 00 	l.ori r16,r22,0x0
    5370:	9f e3 00 14 	l.addi r31,r3,0x14
    5374:	9f a3 00 1c 	l.addi r29,r3,0x1c
    5378:	9f 63 00 04 	l.addi r27,r3,0x4
    537c:	9f 23 00 08 	l.addi r25,r3,0x8
    5380:	9e e3 00 18 	l.addi r23,r3,0x18
    5384:	00 00 00 16 	l.j 53dc <_idct_func+0xc0>
    5388:	9d 43 00 10 	l.addi r10,r3,0x10
    538c:	84 75 00 00 	l.lwz r3,0x0(r21)
    5390:	b8 63 00 03 	l.slli r3,r3,0x3
    5394:	d4 1d 18 00 	l.sw 0x0(r29),r3
    5398:	d4 17 18 00 	l.sw 0x0(r23),r3
    539c:	d4 1f 18 00 	l.sw 0x0(r31),r3
    53a0:	d4 0a 18 00 	l.sw 0x0(r10),r3
    53a4:	d4 0c 18 00 	l.sw 0x0(r12),r3
    53a8:	d4 19 18 00 	l.sw 0x0(r25),r3
    53ac:	d4 1b 18 00 	l.sw 0x0(r27),r3
    53b0:	d4 15 18 00 	l.sw 0x0(r21),r3
    53b4:	9e d6 00 01 	l.addi r22,r22,0x1
    53b8:	e2 10 88 00 	l.add r16,r16,r17
    53bc:	e1 4a 88 00 	l.add r10,r10,r17
    53c0:	e2 f7 88 00 	l.add r23,r23,r17
    53c4:	e3 39 88 00 	l.add r25,r25,r17
    53c8:	e3 7b 88 00 	l.add r27,r27,r17
    53cc:	e3 bd 88 00 	l.add r29,r29,r17
    53d0:	bd 56 00 07 	l.sfgtsi r22,0x7
    53d4:	10 00 00 5d 	l.bf 5548 <_idct_func+0x22c>
    53d8:	e3 ff 88 00 	l.add r31,r31,r17
    53dc:	84 6a 00 00 	l.lwz r3,0x0(r10)
    53e0:	e2 b0 90 00 	l.add r21,r16,r18
    53e4:	b9 63 00 0b 	l.slli r11,r3,0xb
    53e8:	85 37 00 00 	l.lwz r9,0x0(r23)
    53ec:	9d 95 00 0c 	l.addi r12,r21,0xc
    53f0:	85 f9 00 00 	l.lwz r15,0x0(r25)
    53f4:	e0 6b 48 04 	l.or r3,r11,r9
    53f8:	84 9b 00 00 	l.lwz r4,0x0(r27)
    53fc:	e0 63 78 04 	l.or r3,r3,r15
    5400:	84 dd 00 00 	l.lwz r6,0x0(r29)
    5404:	e0 63 20 04 	l.or r3,r3,r4
    5408:	85 1f 00 00 	l.lwz r8,0x0(r31)
    540c:	e0 63 30 04 	l.or r3,r3,r6
    5410:	84 ec 00 00 	l.lwz r7,0x0(r12)
    5414:	e0 63 40 04 	l.or r3,r3,r8
    5418:	e0 63 38 04 	l.or r3,r3,r7
    541c:	bc 23 00 00 	l.sfnei r3,0x0
    5420:	0f ff ff db 	l.bnf 538c <_idct_func+0x70>
    5424:	e0 a4 30 00 	l.add r5,r4,r6
    5428:	9c 60 02 35 	l.addi r3,r0,0x235
    542c:	e2 68 38 00 	l.add r19,r8,r7
    5430:	e0 a5 1b 06 	l.mul r5,r5,r3
    5434:	e1 cf 48 00 	l.add r14,r15,r9
    5438:	84 75 00 00 	l.lwz r3,0x0(r21)
    543c:	b8 63 00 0b 	l.slli r3,r3,0xb
    5440:	9d a3 00 80 	l.addi r13,r3,0x80
    5444:	9c 60 08 e4 	l.addi r3,r0,0x8e4
    5448:	e0 84 1b 06 	l.mul r4,r4,r3
    544c:	9c 60 0d 4e 	l.addi r3,r0,0xd4e
    5450:	e0 84 28 00 	l.add r4,r4,r5
    5454:	e0 66 1b 06 	l.mul r3,r6,r3
    5458:	e0 c5 18 02 	l.sub r6,r5,r3
    545c:	9c 60 03 1f 	l.addi r3,r0,0x31f
    5460:	e1 08 1b 06 	l.mul r8,r8,r3
    5464:	9c 60 09 68 	l.addi r3,r0,0x968
    5468:	e0 b3 1b 06 	l.mul r5,r19,r3
    546c:	9c 60 0f b1 	l.addi r3,r0,0xfb1
    5470:	e1 05 40 02 	l.sub r8,r5,r8
    5474:	e0 67 1b 06 	l.mul r3,r7,r3
    5478:	e0 e5 18 02 	l.sub r7,r5,r3
    547c:	9c 60 0e c8 	l.addi r3,r0,0xec8
    5480:	e0 ad 58 00 	l.add r5,r13,r11
    5484:	e2 69 1b 06 	l.mul r19,r9,r3
    5488:	e1 ad 58 02 	l.sub r13,r13,r11
    548c:	9c 60 06 20 	l.addi r3,r0,0x620
    5490:	e1 2f 1b 06 	l.mul r9,r15,r3
    5494:	9c 60 04 54 	l.addi r3,r0,0x454
    5498:	e1 6e 1b 06 	l.mul r11,r14,r3
    549c:	e1 e9 58 00 	l.add r15,r9,r11
    54a0:	e1 2b 98 02 	l.sub r9,r11,r19
    54a4:	e1 64 40 00 	l.add r11,r4,r8
    54a8:	e0 84 40 02 	l.sub r4,r4,r8
    54ac:	e1 06 38 00 	l.add r8,r6,r7
    54b0:	e0 c6 38 02 	l.sub r6,r6,r7
    54b4:	e0 64 30 00 	l.add r3,r4,r6
    54b8:	e2 64 30 02 	l.sub r19,r4,r6
    54bc:	e0 e5 78 00 	l.add r7,r5,r15
    54c0:	e0 c3 a3 06 	l.mul r6,r3,r20
    54c4:	e0 a5 78 02 	l.sub r5,r5,r15
    54c8:	e0 85 40 00 	l.add r4,r5,r8
    54cc:	e1 ed 48 00 	l.add r15,r13,r9
    54d0:	e1 ad 48 02 	l.sub r13,r13,r9
    54d4:	e0 67 58 00 	l.add r3,r7,r11
    54d8:	b8 63 00 88 	l.srai r3,r3,0x8
    54dc:	d4 15 18 00 	l.sw 0x0(r21),r3
    54e0:	e0 65 40 02 	l.sub r3,r5,r8
    54e4:	b9 c3 00 88 	l.srai r14,r3,0x8
    54e8:	e0 b3 a3 06 	l.mul r5,r19,r20
    54ec:	b9 04 00 88 	l.srai r8,r4,0x8
    54f0:	e0 67 58 02 	l.sub r3,r7,r11
    54f4:	b8 e3 00 88 	l.srai r7,r3,0x8
    54f8:	9c 66 00 80 	l.addi r3,r6,0x80
    54fc:	b9 23 00 88 	l.srai r9,r3,0x8
    5500:	e0 6f 48 00 	l.add r3,r15,r9
    5504:	e0 8f 48 02 	l.sub r4,r15,r9
    5508:	b8 63 00 88 	l.srai r3,r3,0x8
    550c:	b8 c4 00 88 	l.srai r6,r4,0x8
    5510:	d4 1b 18 00 	l.sw 0x0(r27),r3
    5514:	9c 65 00 80 	l.addi r3,r5,0x80
    5518:	b8 83 00 88 	l.srai r4,r3,0x8
    551c:	e0 6d 20 00 	l.add r3,r13,r4
    5520:	b8 63 00 88 	l.srai r3,r3,0x8
    5524:	e0 8d 20 02 	l.sub r4,r13,r4
    5528:	d4 19 18 00 	l.sw 0x0(r25),r3
    552c:	b8 84 00 88 	l.srai r4,r4,0x8
    5530:	d4 0c 40 00 	l.sw 0x0(r12),r8
    5534:	d4 0a 70 00 	l.sw 0x0(r10),r14
    5538:	d4 1f 20 00 	l.sw 0x0(r31),r4
    553c:	d4 17 30 00 	l.sw 0x0(r23),r6
    5540:	03 ff ff 9d 	l.j 53b4 <_idct_func+0x98>
    5544:	d4 1d 38 00 	l.sw 0x0(r29),r7
    5548:	b8 9a 00 02 	l.slli r4,r26,0x2
    554c:	b8 ba 00 03 	l.slli r5,r26,0x3
    5550:	b8 da 00 04 	l.slli r6,r26,0x4
    5554:	e3 84 d0 00 	l.add r28,r4,r26
    5558:	bb da 00 01 	l.slli r30,r26,0x1
    555c:	b8 7c 00 02 	l.slli r3,r28,0x2
    5560:	a9 52 00 00 	l.ori r10,r18,0x0
    5564:	d7 c2 2f fc 	l.sw 0xfffff7fc(r2),r5
    5568:	e3 03 90 00 	l.add r24,r3,r18
    556c:	e2 84 90 00 	l.add r20,r4,r18
    5570:	e2 05 90 00 	l.add r16,r5,r18
    5574:	e1 c6 90 00 	l.add r14,r6,r18
    5578:	00 00 00 11 	l.j 55bc <_idct_func+0x2a0>
    557c:	9e c0 00 00 	l.addi r22,r0,0x0
    5580:	84 6a 00 00 	l.lwz r3,0x0(r10)
    5584:	9c 63 00 20 	l.addi r3,r3,0x20
    5588:	b8 63 00 86 	l.srai r3,r3,0x6
    558c:	e0 63 18 00 	l.add r3,r3,r3
    5590:	e0 63 10 00 	l.add r3,r3,r2
    5594:	98 63 fc 00 	l.lhs r3,0xfffffc00(r3)
    5598:	d4 17 18 00 	l.sw 0x0(r23),r3
    559c:	d4 19 18 00 	l.sw 0x0(r25),r3
    55a0:	d4 18 18 00 	l.sw 0x0(r24),r3
    55a4:	d4 0e 18 00 	l.sw 0x0(r14),r3
    55a8:	d4 15 18 00 	l.sw 0x0(r21),r3
    55ac:	d4 10 18 00 	l.sw 0x0(r16),r3
    55b0:	d4 14 18 00 	l.sw 0x0(r20),r3
    55b4:	00 00 00 8e 	l.j 57ec <_idct_func+0x4d0>
    55b8:	d4 0a 18 00 	l.sw 0x0(r10),r3
    55bc:	9c 62 f8 00 	l.addi r3,r2,0xfffff800
    55c0:	18 80 00 01 	l.movhi r4,0x1
    55c4:	a8 84 4d 9c 	l.ori r4,r4,0x4d9c
    55c8:	04 00 0b ca 	l.jal 84f0 <_memcpy>
    55cc:	9c a0 08 00 	l.addi r5,r0,0x800
    55d0:	e0 7c d0 00 	l.add r3,r28,r26
    55d4:	84 c2 f7 fc 	l.lwz r6,0xfffff7fc(r2)
    55d8:	e0 63 b0 00 	l.add r3,r3,r22
    55dc:	b8 63 00 02 	l.slli r3,r3,0x2
    55e0:	e0 86 d0 02 	l.sub r4,r6,r26
    55e4:	84 ae 00 00 	l.lwz r5,0x0(r14)
    55e8:	e0 84 b0 00 	l.add r4,r4,r22
    55ec:	e3 23 90 00 	l.add r25,r3,r18
    55f0:	ba 25 00 08 	l.slli r17,r5,0x8
    55f4:	b8 64 00 02 	l.slli r3,r4,0x2
    55f8:	85 b9 00 00 	l.lwz r13,0x0(r25)
    55fc:	e2 e3 90 00 	l.add r23,r3,r18
    5600:	e0 9e d0 00 	l.add r4,r30,r26
    5604:	85 70 00 00 	l.lwz r11,0x0(r16)
    5608:	e0 84 b0 00 	l.add r4,r4,r22
    560c:	e0 71 68 04 	l.or r3,r17,r13
    5610:	84 b4 00 00 	l.lwz r5,0x0(r20)
    5614:	e0 63 58 04 	l.or r3,r3,r11
    5618:	b8 84 00 02 	l.slli r4,r4,0x2
    561c:	84 d7 00 00 	l.lwz r6,0x0(r23)
    5620:	e0 63 28 04 	l.or r3,r3,r5
    5624:	e2 a4 90 00 	l.add r21,r4,r18
    5628:	84 f8 00 00 	l.lwz r7,0x0(r24)
    562c:	e0 63 30 04 	l.or r3,r3,r6
    5630:	85 15 00 00 	l.lwz r8,0x0(r21)
    5634:	e0 63 38 04 	l.or r3,r3,r7
    5638:	e0 63 40 04 	l.or r3,r3,r8
    563c:	bc 23 00 00 	l.sfnei r3,0x0
    5640:	0f ff ff d0 	l.bnf 5580 <_idct_func+0x264>
    5644:	e0 85 30 00 	l.add r4,r5,r6
    5648:	9c 60 02 35 	l.addi r3,r0,0x235
    564c:	e1 87 40 00 	l.add r12,r7,r8
    5650:	e0 84 1b 06 	l.mul r4,r4,r3
    5654:	e2 6b 68 00 	l.add r19,r11,r13
    5658:	9f 60 00 b5 	l.addi r27,r0,0xb5
    565c:	84 6a 00 00 	l.lwz r3,0x0(r10)
    5660:	9c 84 00 04 	l.addi r4,r4,0x4
    5664:	b9 23 00 08 	l.slli r9,r3,0x8
    5668:	9c 60 08 e4 	l.addi r3,r0,0x8e4
    566c:	9d e9 20 00 	l.addi r15,r9,0x2000
    5670:	e0 a5 1b 06 	l.mul r5,r5,r3
    5674:	9c 60 0d 4e 	l.addi r3,r0,0xd4e
    5678:	e0 c6 1b 06 	l.mul r6,r6,r3
    567c:	e0 65 20 00 	l.add r3,r5,r4
    5680:	b8 a3 00 83 	l.srai r5,r3,0x3
    5684:	9c 60 09 68 	l.addi r3,r0,0x968
    5688:	e1 2c 1b 06 	l.mul r9,r12,r3
    568c:	e0 64 30 02 	l.sub r3,r4,r6
    5690:	b8 c3 00 83 	l.srai r6,r3,0x3
    5694:	9c 89 00 04 	l.addi r4,r9,0x4
    5698:	9c 60 03 1f 	l.addi r3,r0,0x31f
    569c:	e0 e7 1b 06 	l.mul r7,r7,r3
    56a0:	9c 60 0f b1 	l.addi r3,r0,0xfb1
    56a4:	e1 08 1b 06 	l.mul r8,r8,r3
    56a8:	e0 64 38 02 	l.sub r3,r4,r7
    56ac:	b8 e3 00 83 	l.srai r7,r3,0x3
    56b0:	9c 60 04 54 	l.addi r3,r0,0x454
    56b4:	e2 73 1b 06 	l.mul r19,r19,r3
    56b8:	e0 64 40 02 	l.sub r3,r4,r8
    56bc:	b9 03 00 83 	l.srai r8,r3,0x3
    56c0:	e0 8f 88 00 	l.add r4,r15,r17
    56c4:	9c 60 0e c8 	l.addi r3,r0,0xec8
    56c8:	e1 ef 88 02 	l.sub r15,r15,r17
    56cc:	e1 2d 1b 06 	l.mul r9,r13,r3
    56d0:	9e 33 00 04 	l.addi r17,r19,0x4
    56d4:	9c 60 06 20 	l.addi r3,r0,0x620
    56d8:	e1 6b 1b 06 	l.mul r11,r11,r3
    56dc:	e0 71 48 02 	l.sub r3,r17,r9
    56e0:	b9 a3 00 83 	l.srai r13,r3,0x3
    56e4:	e0 6b 88 00 	l.add r3,r11,r17
    56e8:	e2 25 38 00 	l.add r17,r5,r7
    56ec:	b9 63 00 83 	l.srai r11,r3,0x3
    56f0:	e0 a5 38 02 	l.sub r5,r5,r7
    56f4:	e0 e6 40 00 	l.add r7,r6,r8
    56f8:	e0 c6 40 02 	l.sub r6,r6,r8
    56fc:	e0 65 30 00 	l.add r3,r5,r6
    5700:	e1 04 58 00 	l.add r8,r4,r11
    5704:	e1 23 db 06 	l.mul r9,r3,r27
    5708:	e0 84 58 02 	l.sub r4,r4,r11
    570c:	e1 85 30 02 	l.sub r12,r5,r6
    5710:	e1 6f 68 00 	l.add r11,r15,r13
    5714:	e0 a4 38 00 	l.add r5,r4,r7
    5718:	e0 c4 38 02 	l.sub r6,r4,r7
    571c:	e1 ef 68 02 	l.sub r15,r15,r13
    5720:	e0 e8 88 02 	l.sub r7,r8,r17
    5724:	b8 e7 00 8e 	l.srai r7,r7,0xe
    5728:	e0 68 88 00 	l.add r3,r8,r17
    572c:	e1 8c db 06 	l.mul r12,r12,r27
    5730:	b8 63 00 8e 	l.srai r3,r3,0xe
    5734:	e0 63 18 00 	l.add r3,r3,r3
    5738:	e0 83 10 00 	l.add r4,r3,r2
    573c:	b8 65 00 8e 	l.srai r3,r5,0xe
    5740:	98 a4 fc 00 	l.lhs r5,0xfffffc00(r4)
    5744:	b8 86 00 8e 	l.srai r4,r6,0xe
    5748:	d4 0a 28 00 	l.sw 0x0(r10),r5
    574c:	e0 c3 18 00 	l.add r6,r3,r3
    5750:	9c 69 00 80 	l.addi r3,r9,0x80
    5754:	e0 a6 10 00 	l.add r5,r6,r2
    5758:	b9 a3 00 88 	l.srai r13,r3,0x8
    575c:	e0 c4 20 00 	l.add r6,r4,r4
    5760:	e0 6b 68 00 	l.add r3,r11,r13
    5764:	e0 8b 68 02 	l.sub r4,r11,r13
    5768:	b8 63 00 8e 	l.srai r3,r3,0xe
    576c:	b9 04 00 8e 	l.srai r8,r4,0xe
    5770:	99 65 fc 00 	l.lhs r11,0xfffffc00(r5)
    5774:	e0 63 18 00 	l.add r3,r3,r3
    5778:	e0 c6 10 00 	l.add r6,r6,r2
    577c:	e0 63 10 00 	l.add r3,r3,r2
    5780:	99 26 fc 00 	l.lhs r9,0xfffffc00(r6)
    5784:	98 83 fc 00 	l.lhs r4,0xfffffc00(r3)
    5788:	e0 c8 40 00 	l.add r6,r8,r8
    578c:	9c 6c 00 80 	l.addi r3,r12,0x80
    5790:	d4 14 20 00 	l.sw 0x0(r20),r4
    5794:	b8 a3 00 88 	l.srai r5,r3,0x8
    5798:	e0 c6 10 00 	l.add r6,r6,r2
    579c:	e0 6f 28 00 	l.add r3,r15,r5
    57a0:	e0 8f 28 02 	l.sub r4,r15,r5
    57a4:	b8 63 00 8e 	l.srai r3,r3,0xe
    57a8:	b8 84 00 8e 	l.srai r4,r4,0xe
    57ac:	e0 63 18 00 	l.add r3,r3,r3
    57b0:	e0 84 20 00 	l.add r4,r4,r4
    57b4:	e0 63 10 00 	l.add r3,r3,r2
    57b8:	e0 a4 10 00 	l.add r5,r4,r2
    57bc:	98 63 fc 00 	l.lhs r3,0xfffffc00(r3)
    57c0:	e0 87 38 00 	l.add r4,r7,r7
    57c4:	d4 10 18 00 	l.sw 0x0(r16),r3
    57c8:	98 a5 fc 00 	l.lhs r5,0xfffffc00(r5)
    57cc:	e0 64 10 00 	l.add r3,r4,r2
    57d0:	d4 15 58 00 	l.sw 0x0(r21),r11
    57d4:	98 86 fc 00 	l.lhs r4,0xfffffc00(r6)
    57d8:	d4 0e 48 00 	l.sw 0x0(r14),r9
    57dc:	98 63 fc 00 	l.lhs r3,0xfffffc00(r3)
    57e0:	d4 18 28 00 	l.sw 0x0(r24),r5
    57e4:	d4 19 20 00 	l.sw 0x0(r25),r4
    57e8:	d4 17 18 00 	l.sw 0x0(r23),r3
    57ec:	9e d6 00 01 	l.addi r22,r22,0x1
    57f0:	9d ce 00 04 	l.addi r14,r14,0x4
    57f4:	9e 10 00 04 	l.addi r16,r16,0x4
    57f8:	9e 94 00 04 	l.addi r20,r20,0x4
    57fc:	9f 18 00 04 	l.addi r24,r24,0x4
    5800:	bd 56 00 07 	l.sfgtsi r22,0x7
    5804:	0f ff ff 6e 	l.bnf 55bc <_idct_func+0x2a0>
    5808:	9d 4a 00 04 	l.addi r10,r10,0x4
    580c:	85 21 00 00 	l.lwz r9,0x0(r1)
    5810:	84 41 00 04 	l.lwz r2,0x4(r1)
    5814:	85 41 00 08 	l.lwz r10,0x8(r1)
    5818:	85 81 00 0c 	l.lwz r12,0xc(r1)
    581c:	85 c1 00 10 	l.lwz r14,0x10(r1)
    5820:	86 01 00 14 	l.lwz r16,0x14(r1)
    5824:	86 41 00 18 	l.lwz r18,0x18(r1)
    5828:	86 81 00 1c 	l.lwz r20,0x1c(r1)
    582c:	86 c1 00 20 	l.lwz r22,0x20(r1)
    5830:	87 01 00 24 	l.lwz r24,0x24(r1)
    5834:	87 41 00 28 	l.lwz r26,0x28(r1)
    5838:	87 81 00 2c 	l.lwz r28,0x2c(r1)
    583c:	87 c1 00 30 	l.lwz r30,0x30(r1)
    5840:	44 00 48 00 	l.jr r9
    5844:	9c 21 08 38 	l.addi r1,r1,0x838

00005848 <_mpeg_idct>:
    5848:	9c 21 fe e8 	l.addi r1,r1,0xfffffee8
    584c:	d4 01 10 04 	l.sw 0x4(r1),r2
    5850:	9c 41 01 18 	l.addi r2,r1,0x118
    5854:	d4 01 48 00 	l.sw 0x0(r1),r9
    5858:	d4 01 50 08 	l.sw 0x8(r1),r10
    585c:	d4 01 60 0c 	l.sw 0xc(r1),r12
    5860:	d4 01 70 10 	l.sw 0x10(r1),r14
    5864:	d4 01 80 14 	l.sw 0x14(r1),r16
    5868:	a8 83 00 00 	l.ori r4,r3,0x0
    586c:	18 60 00 01 	l.movhi r3,0x1
    5870:	a8 63 60 7c 	l.ori r3,r3,0x607c
    5874:	07 ff ef 3a 	l.jal 155c <_prints>
    5878:	a9 44 00 00 	l.ori r10,r4,0x0
    587c:	04 00 0b 07 	l.jal 8498 <_clock>
    5880:	15 00 00 00 	l.nop 0x0
    5884:	07 ff ef 49 	l.jal 15a8 <_printi>
    5888:	a8 6b 00 00 	l.ori r3,r11,0x0
    588c:	18 60 00 01 	l.movhi r3,0x1
    5890:	a8 63 57 ae 	l.ori r3,r3,0x57ae
    5894:	07 ff ef 32 	l.jal 155c <_prints>
    5898:	15 00 00 00 	l.nop 0x0
    589c:	bd 4a 00 9f 	l.sfgtsi r10,0x9f
    58a0:	10 00 00 41 	l.bf 59a4 <_mpeg_idct+0x15c>
    58a4:	15 00 00 00 	l.nop 0x0
    58a8:	1a 00 00 01 	l.movhi r16,0x1
    58ac:	aa 10 cd f0 	l.ori r16,r16,0xcdf0
    58b0:	9d c2 ff 00 	l.addi r14,r2,0xffffff00
    58b4:	a9 90 00 00 	l.ori r12,r16,0x0
    58b8:	18 60 00 01 	l.movhi r3,0x1
    58bc:	a8 63 cd f0 	l.ori r3,r3,0xcdf0
    58c0:	07 ff f4 a5 	l.jal 2b54 <_ReceiveMessage>
    58c4:	9c 80 00 10 	l.addi r4,r0,0x10
    58c8:	84 6c 08 00 	l.lwz r3,0x800(r12)
    58cc:	9c a0 00 00 	l.addi r5,r0,0x0
    58d0:	e4 a3 28 00 	l.sfleu r3,r5
    58d4:	10 00 00 0c 	l.bf 5904 <_mpeg_idct+0xbc>
    58d8:	a8 c3 00 00 	l.ori r6,r3,0x0
    58dc:	9c 82 ff 00 	l.addi r4,r2,0xffffff00
    58e0:	18 60 00 01 	l.movhi r3,0x1
    58e4:	a8 63 cd f0 	l.ori r3,r3,0xcdf0
    58e8:	84 e3 00 00 	l.lwz r7,0x0(r3)
    58ec:	9c a5 00 01 	l.addi r5,r5,0x1
    58f0:	d4 04 38 00 	l.sw 0x0(r4),r7
    58f4:	9c 63 00 04 	l.addi r3,r3,0x4
    58f8:	e4 65 30 00 	l.sfgeu r5,r6
    58fc:	0f ff ff fb 	l.bnf 58e8 <_mpeg_idct+0xa0>
    5900:	9c 84 00 04 	l.addi r4,r4,0x4
    5904:	a8 6e 00 00 	l.ori r3,r14,0x0
    5908:	07 ff fe 85 	l.jal 531c <_idct_func>
    590c:	9c 80 00 08 	l.addi r4,r0,0x8
    5910:	9c 60 00 40 	l.addi r3,r0,0x40
    5914:	9c a0 00 00 	l.addi r5,r0,0x0
    5918:	d4 2c 18 00 	l.sw 0x800(r12),r3
    591c:	a8 8e 00 00 	l.ori r4,r14,0x0
    5920:	84 d0 08 00 	l.lwz r6,0x800(r16)
    5924:	18 60 00 01 	l.movhi r3,0x1
    5928:	a8 63 cd f0 	l.ori r3,r3,0xcdf0
    592c:	84 e4 00 00 	l.lwz r7,0x0(r4)
    5930:	9c a5 00 01 	l.addi r5,r5,0x1
    5934:	d4 03 38 00 	l.sw 0x0(r3),r7
    5938:	9c 84 00 04 	l.addi r4,r4,0x4
    593c:	e4 65 30 00 	l.sfgeu r5,r6
    5940:	0f ff ff fb 	l.bnf 592c <_mpeg_idct+0xe4>
    5944:	9c 63 00 04 	l.addi r3,r3,0x4
    5948:	18 60 00 01 	l.movhi r3,0x1
    594c:	a8 63 cd f0 	l.ori r3,r3,0xcdf0
    5950:	07 ff f2 bb 	l.jal 243c <_SendMessage>
    5954:	9c 80 00 0c 	l.addi r4,r0,0xc
    5958:	18 60 00 01 	l.movhi r3,0x1
    595c:	a8 63 60 95 	l.ori r3,r3,0x6095
    5960:	07 ff ee ff 	l.jal 155c <_prints>
    5964:	15 00 00 00 	l.nop 0x0
    5968:	07 ff ef 10 	l.jal 15a8 <_printi>
    596c:	a8 6a 00 00 	l.ori r3,r10,0x0
    5970:	18 60 00 01 	l.movhi r3,0x1
    5974:	a8 63 57 ae 	l.ori r3,r3,0x57ae
    5978:	07 ff ee f9 	l.jal 155c <_prints>
    597c:	15 00 00 00 	l.nop 0x0
    5980:	07 ff f0 0d 	l.jal 19b4 <_get_migration_src>
    5984:	15 00 00 00 	l.nop 0x0
    5988:	bc 0b 00 00 	l.sfeqi r11,0x0
    598c:	0c 00 00 10 	l.bnf 59cc <_mpeg_idct+0x184>
    5990:	15 00 00 00 	l.nop 0x0
    5994:	9d 4a 00 01 	l.addi r10,r10,0x1
    5998:	bd 4a 00 9f 	l.sfgtsi r10,0x9f
    599c:	0f ff ff c7 	l.bnf 58b8 <_mpeg_idct+0x70>
    59a0:	15 00 00 00 	l.nop 0x0
    59a4:	04 00 0a bd 	l.jal 8498 <_clock>
    59a8:	15 00 00 00 	l.nop 0x0
    59ac:	07 ff ee ff 	l.jal 15a8 <_printi>
    59b0:	a8 6b 00 00 	l.ori r3,r11,0x0
    59b4:	18 60 00 01 	l.movhi r3,0x1
    59b8:	a8 63 60 9c 	l.ori r3,r3,0x609c
    59bc:	07 ff ee e8 	l.jal 155c <_prints>
    59c0:	15 00 00 00 	l.nop 0x0
    59c4:	00 00 00 09 	l.j 59e8 <_mpeg_idct+0x1a0>
    59c8:	9d 60 00 00 	l.addi r11,r0,0x0
    59cc:	18 60 00 01 	l.movhi r3,0x1
    59d0:	a8 63 60 af 	l.ori r3,r3,0x60af
    59d4:	07 ff ee e2 	l.jal 155c <_prints>
    59d8:	15 00 00 00 	l.nop 0x0
    59dc:	07 ff ef ce 	l.jal 1914 <_clear_migration_src>
    59e0:	15 00 00 00 	l.nop 0x0
    59e4:	9d 6a 00 01 	l.addi r11,r10,0x1
    59e8:	85 21 00 00 	l.lwz r9,0x0(r1)
    59ec:	84 41 00 04 	l.lwz r2,0x4(r1)
    59f0:	85 41 00 08 	l.lwz r10,0x8(r1)
    59f4:	85 81 00 0c 	l.lwz r12,0xc(r1)
    59f8:	85 c1 00 10 	l.lwz r14,0x10(r1)
    59fc:	86 01 00 14 	l.lwz r16,0x14(r1)
    5a00:	44 00 48 00 	l.jr r9
    5a04:	9c 21 01 18 	l.addi r1,r1,0x118

00005a08 <_iquant_func>:
    5a08:	9c 21 ff a8 	l.addi r1,r1,0xffffffa8
    5a0c:	d4 01 10 04 	l.sw 0x4(r1),r2
    5a10:	9c 41 00 58 	l.addi r2,r1,0x58
    5a14:	d4 01 48 00 	l.sw 0x0(r1),r9
    5a18:	d4 01 50 08 	l.sw 0x8(r1),r10
    5a1c:	d4 01 60 0c 	l.sw 0xc(r1),r12
    5a20:	d4 01 70 10 	l.sw 0x10(r1),r14
    5a24:	d4 01 80 14 	l.sw 0x14(r1),r16
    5a28:	a9 43 00 00 	l.ori r10,r3,0x0
    5a2c:	a9 c5 00 00 	l.ori r14,r5,0x0
    5a30:	aa 04 00 00 	l.ori r16,r4,0x0
    5a34:	9c 62 ff c0 	l.addi r3,r2,0xffffffc0
    5a38:	18 80 00 01 	l.movhi r4,0x1
    5a3c:	a8 84 55 9c 	l.ori r4,r4,0x559c
    5a40:	9c a0 00 40 	l.addi r5,r0,0x40
    5a44:	04 00 0a ab 	l.jal 84f0 <_memcpy>
    5a48:	a9 86 00 00 	l.ori r12,r6,0x0
    5a4c:	9c 60 00 03 	l.addi r3,r0,0x3
    5a50:	84 8a 00 00 	l.lwz r4,0x0(r10)
    5a54:	e0 a3 70 02 	l.sub r5,r3,r14
    5a58:	9e 60 00 00 	l.addi r19,r0,0x0
    5a5c:	e0 a4 28 08 	l.sll r5,r4,r5
    5a60:	a9 f3 00 00 	l.ori r15,r19,0x0
    5a64:	aa 22 00 00 	l.ori r17,r2,0x0
    5a68:	d4 0a 28 00 	l.sw 0x0(r10),r5
    5a6c:	a9 b3 00 00 	l.ori r13,r19,0x0
    5a70:	b8 6d 00 02 	l.slli r3,r13,0x2
    5a74:	aa 6d 00 00 	l.ori r19,r13,0x0
    5a78:	9c e0 00 00 	l.addi r7,r0,0x0
    5a7c:	9c d1 ff c0 	l.addi r6,r17,0xffffffc0
    5a80:	e0 83 50 00 	l.add r4,r3,r10
    5a84:	e0 6f 38 04 	l.or r3,r15,r7
    5a88:	bc 03 00 00 	l.sfeqi r3,0x0
    5a8c:	10 00 00 13 	l.bf 5ad8 <_iquant_func+0xd0>
    5a90:	e1 67 68 00 	l.add r11,r7,r13
    5a94:	85 04 00 00 	l.lwz r8,0x0(r4)
    5a98:	9d 20 07 ff 	l.addi r9,r0,0x7ff
    5a9c:	8c 66 00 00 	l.lbz r3,0x0(r6)
    5aa0:	e0 68 1b 06 	l.mul r3,r8,r3
    5aa4:	e0 63 63 06 	l.mul r3,r3,r12
    5aa8:	b8 63 00 84 	l.srai r3,r3,0x4
    5aac:	e5 43 48 00 	l.sfgts r3,r9
    5ab0:	10 00 00 05 	l.bf 5ac4 <_iquant_func+0xbc>
    5ab4:	bd 63 f8 00 	l.sfgesi r3,0xfffff800
    5ab8:	10 00 00 03 	l.bf 5ac4 <_iquant_func+0xbc>
    5abc:	a9 23 00 00 	l.ori r9,r3,0x0
    5ac0:	9d 20 f8 00 	l.addi r9,r0,0xfffff800
    5ac4:	b8 6b 00 02 	l.slli r3,r11,0x2
    5ac8:	d4 04 48 00 	l.sw 0x0(r4),r9
    5acc:	e0 63 50 00 	l.add r3,r3,r10
    5ad0:	84 63 00 00 	l.lwz r3,0x0(r3)
    5ad4:	e0 a5 18 00 	l.add r5,r5,r3
    5ad8:	9c e7 00 01 	l.addi r7,r7,0x1
    5adc:	9c 84 00 04 	l.addi r4,r4,0x4
    5ae0:	bd 47 00 07 	l.sfgtsi r7,0x7
    5ae4:	0f ff ff e8 	l.bnf 5a84 <_iquant_func+0x7c>
    5ae8:	9c c6 00 01 	l.addi r6,r6,0x1
    5aec:	9d ef 00 01 	l.addi r15,r15,0x1
    5af0:	9e 31 00 08 	l.addi r17,r17,0x8
    5af4:	bd 4f 00 07 	l.sfgtsi r15,0x7
    5af8:	0f ff ff de 	l.bnf 5a70 <_iquant_func+0x68>
    5afc:	e1 ad 80 00 	l.add r13,r13,r16
    5b00:	ac a5 00 01 	l.xori r5,r5,0x1
    5b04:	a4 a5 00 01 	l.andi r5,r5,0x1
    5b08:	bc 05 00 00 	l.sfeqi r5,0x0
    5b0c:	10 00 00 07 	l.bf 5b28 <_iquant_func+0x120>
    5b10:	b8 73 00 02 	l.slli r3,r19,0x2
    5b14:	e0 63 50 00 	l.add r3,r3,r10
    5b18:	9c 63 00 1c 	l.addi r3,r3,0x1c
    5b1c:	84 83 00 00 	l.lwz r4,0x0(r3)
    5b20:	ac 84 00 01 	l.xori r4,r4,0x1
    5b24:	d4 03 20 00 	l.sw 0x0(r3),r4
    5b28:	85 21 00 00 	l.lwz r9,0x0(r1)
    5b2c:	84 41 00 04 	l.lwz r2,0x4(r1)
    5b30:	85 41 00 08 	l.lwz r10,0x8(r1)
    5b34:	85 81 00 0c 	l.lwz r12,0xc(r1)
    5b38:	85 c1 00 10 	l.lwz r14,0x10(r1)
    5b3c:	86 01 00 14 	l.lwz r16,0x14(r1)
    5b40:	44 00 48 00 	l.jr r9
    5b44:	9c 21 00 58 	l.addi r1,r1,0x58

00005b48 <_mpeg_iquant>:
    5b48:	9c 21 fe e8 	l.addi r1,r1,0xfffffee8
    5b4c:	d4 01 10 04 	l.sw 0x4(r1),r2
    5b50:	9c 41 01 18 	l.addi r2,r1,0x118
    5b54:	d4 01 48 00 	l.sw 0x0(r1),r9
    5b58:	d4 01 50 08 	l.sw 0x8(r1),r10
    5b5c:	d4 01 60 0c 	l.sw 0xc(r1),r12
    5b60:	d4 01 70 10 	l.sw 0x10(r1),r14
    5b64:	d4 01 80 14 	l.sw 0x14(r1),r16
    5b68:	a8 83 00 00 	l.ori r4,r3,0x0
    5b6c:	18 60 00 01 	l.movhi r3,0x1
    5b70:	a8 63 60 c5 	l.ori r3,r3,0x60c5
    5b74:	07 ff ee 7a 	l.jal 155c <_prints>
    5b78:	a9 44 00 00 	l.ori r10,r4,0x0
    5b7c:	04 00 0a 47 	l.jal 8498 <_clock>
    5b80:	15 00 00 00 	l.nop 0x0
    5b84:	07 ff ee 89 	l.jal 15a8 <_printi>
    5b88:	a8 6b 00 00 	l.ori r3,r11,0x0
    5b8c:	18 60 00 01 	l.movhi r3,0x1
    5b90:	a8 63 57 ae 	l.ori r3,r3,0x57ae
    5b94:	07 ff ee 72 	l.jal 155c <_prints>
    5b98:	15 00 00 00 	l.nop 0x0
    5b9c:	bd 4a 00 9f 	l.sfgtsi r10,0x9f
    5ba0:	10 00 00 43 	l.bf 5cac <_mpeg_iquant+0x164>
    5ba4:	15 00 00 00 	l.nop 0x0
    5ba8:	1a 00 00 01 	l.movhi r16,0x1
    5bac:	aa 10 cd f0 	l.ori r16,r16,0xcdf0
    5bb0:	9d c2 ff 00 	l.addi r14,r2,0xffffff00
    5bb4:	a9 90 00 00 	l.ori r12,r16,0x0
    5bb8:	18 60 00 01 	l.movhi r3,0x1
    5bbc:	a8 63 cd f0 	l.ori r3,r3,0xcdf0
    5bc0:	07 ff f3 e5 	l.jal 2b54 <_ReceiveMessage>
    5bc4:	9c 80 00 0f 	l.addi r4,r0,0xf
    5bc8:	84 6c 08 00 	l.lwz r3,0x800(r12)
    5bcc:	9c a0 00 00 	l.addi r5,r0,0x0
    5bd0:	e4 a3 28 00 	l.sfleu r3,r5
    5bd4:	10 00 00 0c 	l.bf 5c04 <_mpeg_iquant+0xbc>
    5bd8:	a8 c3 00 00 	l.ori r6,r3,0x0
    5bdc:	9c 82 ff 00 	l.addi r4,r2,0xffffff00
    5be0:	18 60 00 01 	l.movhi r3,0x1
    5be4:	a8 63 cd f0 	l.ori r3,r3,0xcdf0
    5be8:	84 e3 00 00 	l.lwz r7,0x0(r3)
    5bec:	9c a5 00 01 	l.addi r5,r5,0x1
    5bf0:	d4 04 38 00 	l.sw 0x0(r4),r7
    5bf4:	9c 63 00 04 	l.addi r3,r3,0x4
    5bf8:	e4 65 30 00 	l.sfgeu r5,r6
    5bfc:	0f ff ff fb 	l.bnf 5be8 <_mpeg_iquant+0xa0>
    5c00:	9c 84 00 04 	l.addi r4,r4,0x4
    5c04:	a8 6e 00 00 	l.ori r3,r14,0x0
    5c08:	9c 80 00 08 	l.addi r4,r0,0x8
    5c0c:	9c a0 00 00 	l.addi r5,r0,0x0
    5c10:	07 ff ff 7e 	l.jal 5a08 <_iquant_func>
    5c14:	9c c0 00 01 	l.addi r6,r0,0x1
    5c18:	9c 60 00 40 	l.addi r3,r0,0x40
    5c1c:	9c a0 00 00 	l.addi r5,r0,0x0
    5c20:	d4 2c 18 00 	l.sw 0x800(r12),r3
    5c24:	a8 8e 00 00 	l.ori r4,r14,0x0
    5c28:	84 d0 08 00 	l.lwz r6,0x800(r16)
    5c2c:	18 60 00 01 	l.movhi r3,0x1
    5c30:	a8 63 cd f0 	l.ori r3,r3,0xcdf0
    5c34:	84 e4 00 00 	l.lwz r7,0x0(r4)
    5c38:	9c a5 00 01 	l.addi r5,r5,0x1
    5c3c:	d4 03 38 00 	l.sw 0x0(r3),r7
    5c40:	9c 84 00 04 	l.addi r4,r4,0x4
    5c44:	e4 65 30 00 	l.sfgeu r5,r6
    5c48:	0f ff ff fb 	l.bnf 5c34 <_mpeg_iquant+0xec>
    5c4c:	9c 63 00 04 	l.addi r3,r3,0x4
    5c50:	18 60 00 01 	l.movhi r3,0x1
    5c54:	a8 63 cd f0 	l.ori r3,r3,0xcdf0
    5c58:	07 ff f1 f9 	l.jal 243c <_SendMessage>
    5c5c:	9c 80 00 0d 	l.addi r4,r0,0xd
    5c60:	18 60 00 01 	l.movhi r3,0x1
    5c64:	a8 63 60 de 	l.ori r3,r3,0x60de
    5c68:	07 ff ee 3d 	l.jal 155c <_prints>
    5c6c:	15 00 00 00 	l.nop 0x0
    5c70:	07 ff ee 4e 	l.jal 15a8 <_printi>
    5c74:	a8 6a 00 00 	l.ori r3,r10,0x0
    5c78:	18 60 00 01 	l.movhi r3,0x1
    5c7c:	a8 63 57 ae 	l.ori r3,r3,0x57ae
    5c80:	07 ff ee 37 	l.jal 155c <_prints>
    5c84:	15 00 00 00 	l.nop 0x0
    5c88:	07 ff ef 4b 	l.jal 19b4 <_get_migration_src>
    5c8c:	15 00 00 00 	l.nop 0x0
    5c90:	bc 0b 00 00 	l.sfeqi r11,0x0
    5c94:	0c 00 00 10 	l.bnf 5cd4 <_mpeg_iquant+0x18c>
    5c98:	15 00 00 00 	l.nop 0x0
    5c9c:	9d 4a 00 01 	l.addi r10,r10,0x1
    5ca0:	bd 4a 00 9f 	l.sfgtsi r10,0x9f
    5ca4:	0f ff ff c5 	l.bnf 5bb8 <_mpeg_iquant+0x70>
    5ca8:	15 00 00 00 	l.nop 0x0
    5cac:	04 00 09 fb 	l.jal 8498 <_clock>
    5cb0:	15 00 00 00 	l.nop 0x0
    5cb4:	07 ff ee 3d 	l.jal 15a8 <_printi>
    5cb8:	a8 6b 00 00 	l.ori r3,r11,0x0
    5cbc:	18 60 00 01 	l.movhi r3,0x1
    5cc0:	a8 63 60 e7 	l.ori r3,r3,0x60e7
    5cc4:	07 ff ee 26 	l.jal 155c <_prints>
    5cc8:	15 00 00 00 	l.nop 0x0
    5ccc:	00 00 00 09 	l.j 5cf0 <_mpeg_iquant+0x1a8>
    5cd0:	9d 60 00 00 	l.addi r11,r0,0x0
    5cd4:	18 60 00 01 	l.movhi r3,0x1
    5cd8:	a8 63 60 ff 	l.ori r3,r3,0x60ff
    5cdc:	07 ff ee 20 	l.jal 155c <_prints>
    5ce0:	15 00 00 00 	l.nop 0x0
    5ce4:	07 ff ef 0c 	l.jal 1914 <_clear_migration_src>
    5ce8:	15 00 00 00 	l.nop 0x0
    5cec:	9d 6a 00 01 	l.addi r11,r10,0x1
    5cf0:	85 21 00 00 	l.lwz r9,0x0(r1)
    5cf4:	84 41 00 04 	l.lwz r2,0x4(r1)
    5cf8:	85 41 00 08 	l.lwz r10,0x8(r1)
    5cfc:	85 81 00 0c 	l.lwz r12,0xc(r1)
    5d00:	85 c1 00 10 	l.lwz r14,0x10(r1)
    5d04:	86 01 00 14 	l.lwz r16,0x14(r1)
    5d08:	44 00 48 00 	l.jr r9
    5d0c:	9c 21 01 18 	l.addi r1,r1,0x118

00005d10 <_getbits>:
    5d10:	9c 21 ff f8 	l.addi r1,r1,0xfffffff8
    5d14:	d4 01 10 04 	l.sw 0x4(r1),r2
    5d18:	9c 41 00 08 	l.addi r2,r1,0x8
    5d1c:	d4 01 48 00 	l.sw 0x0(r1),r9
    5d20:	19 e0 00 01 	l.movhi r15,0x1
    5d24:	a9 ef 6d 60 	l.ori r15,r15,0x6d60
    5d28:	18 e0 00 01 	l.movhi r7,0x1
    5d2c:	a8 e7 6d 5e 	l.ori r7,r7,0x6d5e
    5d30:	19 20 00 01 	l.movhi r9,0x1
    5d34:	a9 29 6d 5c 	l.ori r9,r9,0x6d5c
    5d38:	b8 c6 00 10 	l.slli r6,r6,0x10
    5d3c:	b8 c6 00 90 	l.srai r6,r6,0x10
    5d40:	b8 63 00 10 	l.slli r3,r3,0x10
    5d44:	b8 63 00 90 	l.srai r3,r3,0x10
    5d48:	b8 84 00 10 	l.slli r4,r4,0x10
    5d4c:	b8 84 00 90 	l.srai r4,r4,0x10
    5d50:	9a 2f 00 00 	l.lhs r17,0x0(r15)
    5d54:	bc 26 00 00 	l.sfnei r6,0x0
    5d58:	9d 60 00 00 	l.addi r11,r0,0x0
    5d5c:	99 07 00 00 	l.lhs r8,0x0(r7)
    5d60:	aa ef 00 00 	l.ori r23,r15,0x0
    5d64:	aa 67 00 00 	l.ori r19,r7,0x0
    5d68:	8d a9 00 01 	l.lbz r13,0x1(r9)
    5d6c:	10 00 00 27 	l.bf 5e08 <_getbits+0xf8>
    5d70:	aa a9 00 00 	l.ori r21,r9,0x0
    5d74:	e5 a3 58 00 	l.sfles r3,r11
    5d78:	10 00 00 1d 	l.bf 5dec <_getbits+0xdc>
    5d7c:	a9 eb 00 00 	l.ori r15,r11,0x0
    5d80:	b8 d1 00 02 	l.slli r6,r17,0x2
    5d84:	e0 a6 28 00 	l.add r5,r6,r5
    5d88:	84 c5 00 00 	l.lwz r6,0x0(r5)
    5d8c:	9c ef 00 01 	l.addi r7,r15,0x1
    5d90:	9d 28 ff ff 	l.addi r9,r8,0xffffffff
    5d94:	e0 c6 68 03 	l.and r6,r6,r13
    5d98:	b9 e7 00 10 	l.slli r15,r7,0x10
    5d9c:	b9 ef 00 90 	l.srai r15,r15,0x10
    5da0:	e0 c6 40 88 	l.sra r6,r6,r8
    5da4:	b9 6b 00 01 	l.slli r11,r11,0x1
    5da8:	b9 ad 00 41 	l.srli r13,r13,0x1
    5dac:	b9 09 00 10 	l.slli r8,r9,0x10
    5db0:	b9 08 00 90 	l.srai r8,r8,0x10
    5db4:	b8 c6 00 10 	l.slli r6,r6,0x10
    5db8:	b8 c6 00 90 	l.srai r6,r6,0x10
    5dbc:	9c f1 00 01 	l.addi r7,r17,0x1
    5dc0:	bc 28 ff ff 	l.sfnei r8,0xffffffff
    5dc4:	10 00 00 07 	l.bf 5de0 <_getbits+0xd0>
    5dc8:	e1 6b 30 00 	l.add r11,r11,r6
    5dcc:	ba 27 00 10 	l.slli r17,r7,0x10
    5dd0:	ba 31 00 90 	l.srai r17,r17,0x10
    5dd4:	9c a5 00 04 	l.addi r5,r5,0x4
    5dd8:	9d 00 00 07 	l.addi r8,r0,0x7
    5ddc:	9d a0 00 80 	l.addi r13,r0,0x80
    5de0:	e5 6f 18 00 	l.sfges r15,r3
    5de4:	0f ff ff e9 	l.bnf 5d88 <_getbits+0x78>
    5de8:	15 00 00 00 	l.nop 0x0
    5dec:	bc 04 00 00 	l.sfeqi r4,0x0
    5df0:	10 00 00 0b 	l.bf 5e1c <_getbits+0x10c>
    5df4:	15 00 00 00 	l.nop 0x0
    5df8:	dc 17 88 00 	l.sh 0x0(r23),r17
    5dfc:	dc 13 40 00 	l.sh 0x0(r19),r8
    5e00:	00 00 00 07 	l.j 5e1c <_getbits+0x10c>
    5e04:	dc 15 68 00 	l.sh 0x0(r21),r13
    5e08:	9c 60 00 07 	l.addi r3,r0,0x7
    5e0c:	dc 0f 58 00 	l.sh 0x0(r15),r11
    5e10:	dc 07 18 00 	l.sh 0x0(r7),r3
    5e14:	9c 60 00 80 	l.addi r3,r0,0x80
    5e18:	dc 09 18 00 	l.sh 0x0(r9),r3
    5e1c:	85 21 00 00 	l.lwz r9,0x0(r1)
    5e20:	84 41 00 04 	l.lwz r2,0x4(r1)
    5e24:	44 00 48 00 	l.jr r9
    5e28:	9c 21 00 08 	l.addi r1,r1,0x8

00005e2c <_getDC>:
    5e2c:	9c 21 ff f0 	l.addi r1,r1,0xfffffff0
    5e30:	d4 01 10 04 	l.sw 0x4(r1),r2
    5e34:	9c 41 00 10 	l.addi r2,r1,0x10
    5e38:	d4 01 48 00 	l.sw 0x0(r1),r9
    5e3c:	d4 01 50 08 	l.sw 0x8(r1),r10
    5e40:	d4 01 60 0c 	l.sw 0xc(r1),r12
    5e44:	a9 84 00 00 	l.ori r12,r4,0x0
    5e48:	b9 43 00 10 	l.slli r10,r3,0x10
    5e4c:	b9 4a 00 90 	l.srai r10,r10,0x10
    5e50:	9c 80 00 00 	l.addi r4,r0,0x0
    5e54:	a8 ac 00 00 	l.ori r5,r12,0x0
    5e58:	9c 60 00 05 	l.addi r3,r0,0x5
    5e5c:	07 ff ff ad 	l.jal 5d10 <_getbits>
    5e60:	a8 c4 00 00 	l.ori r6,r4,0x0
    5e64:	b9 6b 00 10 	l.slli r11,r11,0x10
    5e68:	b9 6b 00 90 	l.srai r11,r11,0x10
    5e6c:	bd 4b 00 1e 	l.sfgtsi r11,0x1e
    5e70:	10 00 00 25 	l.bf 5f04 <_getDC+0xd8>
    5e74:	bc 0a 00 00 	l.sfeqi r10,0x0
    5e78:	0c 00 00 49 	l.bnf 5f9c <_getDC+0x170>
    5e7c:	9c 80 00 01 	l.addi r4,r0,0x1
    5e80:	b9 6b 00 02 	l.slli r11,r11,0x2
    5e84:	a8 ac 00 00 	l.ori r5,r12,0x0
    5e88:	18 60 00 01 	l.movhi r3,0x1
    5e8c:	a8 63 6f 90 	l.ori r3,r3,0x6f90
    5e90:	e1 6b 18 00 	l.add r11,r11,r3
    5e94:	9c c0 00 00 	l.addi r6,r0,0x0
    5e98:	91 4b 00 00 	l.lbs r10,0x0(r11)
    5e9c:	07 ff ff 9d 	l.jal 5d10 <_getbits>
    5ea0:	90 6b 00 01 	l.lbs r3,0x1(r11)
    5ea4:	bc 2a 00 00 	l.sfnei r10,0x0
    5ea8:	0c 00 00 42 	l.bnf 5fb0 <_getDC+0x184>
    5eac:	9d 60 00 00 	l.addi r11,r0,0x0
    5eb0:	9c 80 00 01 	l.addi r4,r0,0x1
    5eb4:	a8 ac 00 00 	l.ori r5,r12,0x0
    5eb8:	a8 6a 00 00 	l.ori r3,r10,0x0
    5ebc:	07 ff ff 95 	l.jal 5d10 <_getbits>
    5ec0:	9c c0 00 00 	l.addi r6,r0,0x0
    5ec4:	b9 6b 00 10 	l.slli r11,r11,0x10
    5ec8:	b9 6b 00 90 	l.srai r11,r11,0x10
    5ecc:	9c 8a ff ff 	l.addi r4,r10,0xffffffff
    5ed0:	e0 8b 20 88 	l.sra r4,r11,r4
    5ed4:	ac 84 00 01 	l.xori r4,r4,0x1
    5ed8:	a4 84 00 01 	l.andi r4,r4,0x1
    5edc:	bc 04 00 00 	l.sfeqi r4,0x0
    5ee0:	10 00 00 34 	l.bf 5fb0 <_getDC+0x184>
    5ee4:	9c 60 00 01 	l.addi r3,r0,0x1
    5ee8:	e0 63 50 08 	l.sll r3,r3,r10
    5eec:	e0 6b 18 02 	l.sub r3,r11,r3
    5ef0:	9c 63 00 01 	l.addi r3,r3,0x1
    5ef4:	b9 63 00 10 	l.slli r11,r3,0x10
    5ef8:	b9 6b 00 90 	l.srai r11,r11,0x10
    5efc:	00 00 00 2d 	l.j 5fb0 <_getDC+0x184>
    5f00:	15 00 00 00 	l.nop 0x0
    5f04:	10 00 00 18 	l.bf 5f64 <_getDC+0x138>
    5f08:	9c 80 00 00 	l.addi r4,r0,0x0
    5f0c:	a8 ac 00 00 	l.ori r5,r12,0x0
    5f10:	a8 c4 00 00 	l.ori r6,r4,0x0
    5f14:	07 ff ff 7f 	l.jal 5d10 <_getbits>
    5f18:	9c 60 00 0a 	l.addi r3,r0,0xa
    5f1c:	9d 6b fc 20 	l.addi r11,r11,0xfffffc20
    5f20:	9c 80 00 01 	l.addi r4,r0,0x1
    5f24:	b9 6b 00 10 	l.slli r11,r11,0x10
    5f28:	b9 6b 00 90 	l.srai r11,r11,0x10
    5f2c:	a8 ac 00 00 	l.ori r5,r12,0x0
    5f30:	9c c0 00 00 	l.addi r6,r0,0x0
    5f34:	b9 6b 00 02 	l.slli r11,r11,0x2
    5f38:	18 60 00 01 	l.movhi r3,0x1
    5f3c:	a8 63 6f 10 	l.ori r3,r3,0x6f10
    5f40:	e1 6b 18 00 	l.add r11,r11,r3
    5f44:	91 4b 00 00 	l.lbs r10,0x0(r11)
    5f48:	07 ff ff 72 	l.jal 5d10 <_getbits>
    5f4c:	90 6b 00 01 	l.lbs r3,0x1(r11)
    5f50:	bc 2a 00 00 	l.sfnei r10,0x0
    5f54:	13 ff ff d7 	l.bf 5eb0 <_getDC+0x84>
    5f58:	9d 60 00 00 	l.addi r11,r0,0x0
    5f5c:	00 00 00 15 	l.j 5fb0 <_getDC+0x184>
    5f60:	15 00 00 00 	l.nop 0x0
    5f64:	9c 60 00 09 	l.addi r3,r0,0x9
    5f68:	a8 c4 00 00 	l.ori r6,r4,0x0
    5f6c:	07 ff ff 69 	l.jal 5d10 <_getbits>
    5f70:	a8 ac 00 00 	l.ori r5,r12,0x0
    5f74:	9d 6b fe 10 	l.addi r11,r11,0xfffffe10
    5f78:	9c 80 00 01 	l.addi r4,r0,0x1
    5f7c:	b9 6b 00 10 	l.slli r11,r11,0x10
    5f80:	b9 6b 00 90 	l.srai r11,r11,0x10
    5f84:	a8 ac 00 00 	l.ori r5,r12,0x0
    5f88:	9c c0 00 00 	l.addi r6,r0,0x0
    5f8c:	18 60 00 01 	l.movhi r3,0x1
    5f90:	a8 63 6e d0 	l.ori r3,r3,0x6ed0
    5f94:	03 ff ff eb 	l.j 5f40 <_getDC+0x114>
    5f98:	b9 6b 00 02 	l.slli r11,r11,0x2
    5f9c:	b9 6b 00 02 	l.slli r11,r11,0x2
    5fa0:	18 60 00 01 	l.movhi r3,0x1
    5fa4:	a8 63 70 10 	l.ori r3,r3,0x7010
    5fa8:	03 ff ff ba 	l.j 5e90 <_getDC+0x64>
    5fac:	a8 ac 00 00 	l.ori r5,r12,0x0
    5fb0:	85 21 00 00 	l.lwz r9,0x0(r1)
    5fb4:	84 41 00 04 	l.lwz r2,0x4(r1)
    5fb8:	85 41 00 08 	l.lwz r10,0x8(r1)
    5fbc:	85 81 00 0c 	l.lwz r12,0xc(r1)
    5fc0:	44 00 48 00 	l.jr r9
    5fc4:	9c 21 00 10 	l.addi r1,r1,0x10

00005fc8 <_ivlc_func>:
    5fc8:	9c 21 ff e4 	l.addi r1,r1,0xffffffe4
    5fcc:	d4 01 10 04 	l.sw 0x4(r1),r2
    5fd0:	9c 41 00 1c 	l.addi r2,r1,0x1c
    5fd4:	d4 01 48 00 	l.sw 0x0(r1),r9
    5fd8:	d4 01 50 08 	l.sw 0x8(r1),r10
    5fdc:	d4 01 60 0c 	l.sw 0xc(r1),r12
    5fe0:	d4 01 70 10 	l.sw 0x10(r1),r14
    5fe4:	d4 01 80 14 	l.sw 0x14(r1),r16
    5fe8:	d4 01 90 18 	l.sw 0x18(r1),r18
    5fec:	aa 03 00 00 	l.ori r16,r3,0x0
    5ff0:	b9 44 00 10 	l.slli r10,r4,0x10
    5ff4:	b9 4a 00 90 	l.srai r10,r10,0x10
    5ff8:	ba 45 00 10 	l.slli r18,r5,0x10
    5ffc:	ba 52 00 90 	l.srai r18,r18,0x10
    6000:	9c 60 00 00 	l.addi r3,r0,0x0
    6004:	a9 86 00 00 	l.ori r12,r6,0x0
    6008:	a8 83 00 00 	l.ori r4,r3,0x0
    600c:	9c c0 00 01 	l.addi r6,r0,0x1
    6010:	07 ff ff 40 	l.jal 5d10 <_getbits>
    6014:	a8 a3 00 00 	l.ori r5,r3,0x0
    6018:	bc 2a 00 00 	l.sfnei r10,0x0
    601c:	0c 00 00 03 	l.bnf 6028 <_ivlc_func+0x60>
    6020:	9c 60 00 00 	l.addi r3,r0,0x0
    6024:	9c 60 00 01 	l.addi r3,r0,0x1
    6028:	a8 8c 00 00 	l.ori r4,r12,0x0
    602c:	07 ff ff 80 	l.jal 5e2c <_getDC>
    6030:	9d c0 00 01 	l.addi r14,r0,0x1
    6034:	d4 10 58 00 	l.sw 0x0(r16),r11
    6038:	9c 80 00 00 	l.addi r4,r0,0x0
    603c:	9c 60 00 10 	l.addi r3,r0,0x10
    6040:	a8 ac 00 00 	l.ori r5,r12,0x0
    6044:	07 ff ff 33 	l.jal 5d10 <_getbits>
    6048:	a8 c4 00 00 	l.ori r6,r4,0x0
    604c:	bc ab 03 ff 	l.sfleui r11,0x3ff
    6050:	10 00 00 41 	l.bf 6154 <_ivlc_func+0x18c>
    6054:	bc ab 01 ff 	l.sfleui r11,0x1ff
    6058:	b9 6b 00 48 	l.srli r11,r11,0x8
    605c:	18 60 00 01 	l.movhi r3,0x1
    6060:	a8 63 69 5c 	l.ori r3,r3,0x695c
    6064:	b9 6b 00 02 	l.slli r11,r11,0x2
    6068:	e1 4b 18 00 	l.add r10,r11,r3
    606c:	9c 80 00 01 	l.addi r4,r0,0x1
    6070:	90 6a 00 02 	l.lbs r3,0x2(r10)
    6074:	a8 ac 00 00 	l.ori r5,r12,0x0
    6078:	07 ff ff 26 	l.jal 5d10 <_getbits>
    607c:	9c c0 00 00 	l.addi r6,r0,0x0
    6080:	90 8a 00 00 	l.lbs r4,0x0(r10)
    6084:	bc 24 00 40 	l.sfnei r4,0x40
    6088:	0c 00 00 71 	l.bnf 624c <_ivlc_func+0x284>
    608c:	bc 24 00 41 	l.sfnei r4,0x41
    6090:	10 00 00 43 	l.bf 619c <_ivlc_func+0x1d4>
    6094:	9c 60 00 01 	l.addi r3,r0,0x1
    6098:	9c 60 00 06 	l.addi r3,r0,0x6
    609c:	9c 80 00 01 	l.addi r4,r0,0x1
    60a0:	a8 ac 00 00 	l.ori r5,r12,0x0
    60a4:	07 ff ff 1b 	l.jal 5d10 <_getbits>
    60a8:	9c c0 00 00 	l.addi r6,r0,0x0
    60ac:	9c 60 00 0c 	l.addi r3,r0,0xc
    60b0:	e1 ce 58 00 	l.add r14,r14,r11
    60b4:	9c 80 00 01 	l.addi r4,r0,0x1
    60b8:	a8 ac 00 00 	l.ori r5,r12,0x0
    60bc:	07 ff ff 15 	l.jal 5d10 <_getbits>
    60c0:	9c c0 00 00 	l.addi r6,r0,0x0
    60c4:	a4 6b 07 ff 	l.andi r3,r11,0x7ff
    60c8:	bc 23 00 00 	l.sfnei r3,0x0
    60cc:	0c 00 00 60 	l.bnf 624c <_ivlc_func+0x284>
    60d0:	a9 4b 00 00 	l.ori r10,r11,0x0
    60d4:	bd ab 07 ff 	l.sflesi r11,0x7ff
    60d8:	10 00 00 05 	l.bf 60ec <_ivlc_func+0x124>
    60dc:	9c 80 00 00 	l.addi r4,r0,0x0
    60e0:	9c 60 10 00 	l.addi r3,r0,0x1000
    60e4:	9c 80 00 01 	l.addi r4,r0,0x1
    60e8:	e1 43 58 02 	l.sub r10,r3,r11
    60ec:	bd ae 00 3f 	l.sflesi r14,0x3f
    60f0:	0c 00 00 57 	l.bnf 624c <_ivlc_func+0x284>
    60f4:	bc 04 00 00 	l.sfeqi r4,0x0
    60f8:	18 a0 00 01 	l.movhi r5,0x1
    60fc:	a8 a5 6d 62 	l.ori r5,r5,0x6d62
    6100:	e0 6e 28 00 	l.add r3,r14,r5
    6104:	a9 6a 00 00 	l.ori r11,r10,0x0
    6108:	8c 63 00 00 	l.lbz r3,0x0(r3)
    610c:	b8 83 00 43 	l.srli r4,r3,0x3
    6110:	a4 a3 00 07 	l.andi r5,r3,0x7
    6114:	e0 64 93 06 	l.mul r3,r4,r18
    6118:	e0 63 28 00 	l.add r3,r3,r5
    611c:	b8 63 00 02 	l.slli r3,r3,0x2
    6120:	10 00 00 03 	l.bf 612c <_ivlc_func+0x164>
    6124:	e0 63 80 00 	l.add r3,r3,r16
    6128:	e1 60 50 02 	l.sub r11,r0,r10
    612c:	d4 03 58 00 	l.sw 0x0(r3),r11
    6130:	9d ce 00 01 	l.addi r14,r14,0x1
    6134:	9c 80 00 00 	l.addi r4,r0,0x0
    6138:	9c 60 00 10 	l.addi r3,r0,0x10
    613c:	a8 ac 00 00 	l.ori r5,r12,0x0
    6140:	07 ff fe f4 	l.jal 5d10 <_getbits>
    6144:	a8 c4 00 00 	l.ori r6,r4,0x0
    6148:	bc ab 03 ff 	l.sfleui r11,0x3ff
    614c:	0f ff ff c3 	l.bnf 6058 <_ivlc_func+0x90>
    6150:	bc ab 01 ff 	l.sfleui r11,0x1ff
    6154:	10 00 00 1a 	l.bf 61bc <_ivlc_func+0x1f4>
    6158:	bc ab 00 ff 	l.sfleui r11,0xff
    615c:	b9 6b 00 46 	l.srli r11,r11,0x6
    6160:	18 a0 00 01 	l.movhi r5,0x1
    6164:	a8 a5 69 2c 	l.ori r5,r5,0x692c
    6168:	b9 6b 00 02 	l.slli r11,r11,0x2
    616c:	e1 4b 28 00 	l.add r10,r11,r5
    6170:	90 6a 00 02 	l.lbs r3,0x2(r10)
    6174:	9c 80 00 01 	l.addi r4,r0,0x1
    6178:	a8 ac 00 00 	l.ori r5,r12,0x0
    617c:	07 ff fe e5 	l.jal 5d10 <_getbits>
    6180:	9c c0 00 00 	l.addi r6,r0,0x0
    6184:	90 8a 00 00 	l.lbs r4,0x0(r10)
    6188:	bc 24 00 40 	l.sfnei r4,0x40
    618c:	13 ff ff c1 	l.bf 6090 <_ivlc_func+0xc8>
    6190:	bc 24 00 41 	l.sfnei r4,0x41
    6194:	00 00 00 2e 	l.j 624c <_ivlc_func+0x284>
    6198:	15 00 00 00 	l.nop 0x0
    619c:	e1 ce 20 00 	l.add r14,r14,r4
    61a0:	91 4a 00 01 	l.lbs r10,0x1(r10)
    61a4:	a8 83 00 00 	l.ori r4,r3,0x0
    61a8:	a8 ac 00 00 	l.ori r5,r12,0x0
    61ac:	07 ff fe d9 	l.jal 5d10 <_getbits>
    61b0:	9c c0 00 00 	l.addi r6,r0,0x0
    61b4:	03 ff ff ce 	l.j 60ec <_ivlc_func+0x124>
    61b8:	a8 8b 00 00 	l.ori r4,r11,0x0
    61bc:	10 00 00 07 	l.bf 61d8 <_ivlc_func+0x210>
    61c0:	bc ab 00 7f 	l.sfleui r11,0x7f
    61c4:	b9 6b 00 44 	l.srli r11,r11,0x4
    61c8:	18 60 00 01 	l.movhi r3,0x1
    61cc:	a8 63 68 cc 	l.ori r3,r3,0x68cc
    61d0:	03 ff ff a6 	l.j 6068 <_ivlc_func+0xa0>
    61d4:	b9 6b 00 02 	l.slli r11,r11,0x2
    61d8:	10 00 00 08 	l.bf 61f8 <_ivlc_func+0x230>
    61dc:	bc ab 00 3f 	l.sfleui r11,0x3f
    61e0:	b9 6b 00 43 	l.srli r11,r11,0x3
    61e4:	18 a0 00 01 	l.movhi r5,0x1
    61e8:	a8 a5 68 8c 	l.ori r5,r5,0x688c
    61ec:	b9 6b 00 02 	l.slli r11,r11,0x2
    61f0:	03 ff ff e0 	l.j 6170 <_ivlc_func+0x1a8>
    61f4:	e1 4b 28 00 	l.add r10,r11,r5
    61f8:	10 00 00 08 	l.bf 6218 <_ivlc_func+0x250>
    61fc:	bc ab 00 1f 	l.sfleui r11,0x1f
    6200:	9c 60 ff fc 	l.addi r3,r0,0xfffffffc
    6204:	18 a0 00 01 	l.movhi r5,0x1
    6208:	a8 a5 68 4c 	l.ori r5,r5,0x684c
    620c:	e1 6b 18 03 	l.and r11,r11,r3
    6210:	03 ff ff d8 	l.j 6170 <_ivlc_func+0x1a8>
    6214:	e1 4b 28 00 	l.add r10,r11,r5
    6218:	0c 00 00 08 	l.bnf 6238 <_ivlc_func+0x270>
    621c:	bc ab 00 0f 	l.sfleui r11,0xf
    6220:	10 00 00 0b 	l.bf 624c <_ivlc_func+0x284>
    6224:	b9 6b 00 02 	l.slli r11,r11,0x2
    6228:	18 a0 00 01 	l.movhi r5,0x1
    622c:	a8 a5 67 cc 	l.ori r5,r5,0x67cc
    6230:	03 ff ff d0 	l.j 6170 <_ivlc_func+0x1a8>
    6234:	e1 4b 28 00 	l.add r10,r11,r5
    6238:	b9 6b 00 41 	l.srli r11,r11,0x1
    623c:	18 60 00 01 	l.movhi r3,0x1
    6240:	a8 63 68 0c 	l.ori r3,r3,0x680c
    6244:	03 ff ff 89 	l.j 6068 <_ivlc_func+0xa0>
    6248:	b9 6b 00 02 	l.slli r11,r11,0x2
    624c:	85 21 00 00 	l.lwz r9,0x0(r1)
    6250:	84 41 00 04 	l.lwz r2,0x4(r1)
    6254:	85 41 00 08 	l.lwz r10,0x8(r1)
    6258:	85 81 00 0c 	l.lwz r12,0xc(r1)
    625c:	85 c1 00 10 	l.lwz r14,0x10(r1)
    6260:	86 01 00 14 	l.lwz r16,0x14(r1)
    6264:	86 41 00 18 	l.lwz r18,0x18(r1)
    6268:	44 00 48 00 	l.jr r9
    626c:	9c 21 00 1c 	l.addi r1,r1,0x1c

00006270 <_mpeg_ivlc>:
    6270:	9c 21 fc e0 	l.addi r1,r1,0xfffffce0
    6274:	d4 01 10 04 	l.sw 0x4(r1),r2
    6278:	9c 41 03 20 	l.addi r2,r1,0x320
    627c:	d4 01 48 00 	l.sw 0x0(r1),r9
    6280:	d4 01 50 08 	l.sw 0x8(r1),r10
    6284:	d4 01 60 0c 	l.sw 0xc(r1),r12
    6288:	d4 01 70 10 	l.sw 0x10(r1),r14
    628c:	d4 01 80 14 	l.sw 0x14(r1),r16
    6290:	d4 01 90 18 	l.sw 0x18(r1),r18
    6294:	d4 01 a0 1c 	l.sw 0x1c(r1),r20
    6298:	a8 83 00 00 	l.ori r4,r3,0x0
    629c:	18 60 00 01 	l.movhi r3,0x1
    62a0:	a8 63 61 17 	l.ori r3,r3,0x6117
    62a4:	07 ff ec ae 	l.jal 155c <_prints>
    62a8:	a9 84 00 00 	l.ori r12,r4,0x0
    62ac:	04 00 08 7b 	l.jal 8498 <_clock>
    62b0:	15 00 00 00 	l.nop 0x0
    62b4:	07 ff ec bd 	l.jal 15a8 <_printi>
    62b8:	a8 6b 00 00 	l.ori r3,r11,0x0
    62bc:	18 60 00 01 	l.movhi r3,0x1
    62c0:	a8 63 57 ae 	l.ori r3,r3,0x57ae
    62c4:	07 ff ec a6 	l.jal 155c <_prints>
    62c8:	15 00 00 00 	l.nop 0x0
    62cc:	bd 4c 00 9f 	l.sfgtsi r12,0x9f
    62d0:	10 00 00 4b 	l.bf 63fc <_mpeg_ivlc+0x18c>
    62d4:	15 00 00 00 	l.nop 0x0
    62d8:	1a 40 00 01 	l.movhi r18,0x1
    62dc:	aa 52 cd f0 	l.ori r18,r18,0xcdf0
    62e0:	9e 02 fd 00 	l.addi r16,r2,0xfffffd00
    62e4:	9e 82 fe 00 	l.addi r20,r2,0xfffffe00
    62e8:	a9 d2 00 00 	l.ori r14,r18,0x0
    62ec:	18 60 00 01 	l.movhi r3,0x1
    62f0:	a8 63 cd f0 	l.ori r3,r3,0xcdf0
    62f4:	9c 80 00 0e 	l.addi r4,r0,0xe
    62f8:	07 ff f2 17 	l.jal 2b54 <_ReceiveMessage>
    62fc:	9d 40 00 00 	l.addi r10,r0,0x0
    6300:	84 6e 08 00 	l.lwz r3,0x800(r14)
    6304:	e4 a3 50 00 	l.sfleu r3,r10
    6308:	10 00 00 0c 	l.bf 6338 <_mpeg_ivlc+0xc8>
    630c:	9c 82 fe 00 	l.addi r4,r2,0xfffffe00
    6310:	a8 a3 00 00 	l.ori r5,r3,0x0
    6314:	18 60 00 01 	l.movhi r3,0x1
    6318:	a8 63 cd f0 	l.ori r3,r3,0xcdf0
    631c:	84 c3 00 00 	l.lwz r6,0x0(r3)
    6320:	9d 4a 00 01 	l.addi r10,r10,0x1
    6324:	d4 04 30 00 	l.sw 0x0(r4),r6
    6328:	9c 63 00 04 	l.addi r3,r3,0x4
    632c:	e4 6a 28 00 	l.sfgeu r10,r5
    6330:	0f ff ff fb 	l.bnf 631c <_mpeg_ivlc+0xac>
    6334:	9c 84 00 04 	l.addi r4,r4,0x4
    6338:	9d 40 00 00 	l.addi r10,r0,0x0
    633c:	9c 62 fd 00 	l.addi r3,r2,0xfffffd00
    6340:	9c 80 00 00 	l.addi r4,r0,0x0
    6344:	9d 4a 00 01 	l.addi r10,r10,0x1
    6348:	d4 03 20 00 	l.sw 0x0(r3),r4
    634c:	bd 4a 00 3f 	l.sfgtsi r10,0x3f
    6350:	0f ff ff fd 	l.bnf 6344 <_mpeg_ivlc+0xd4>
    6354:	9c 63 00 04 	l.addi r3,r3,0x4
    6358:	a9 44 00 00 	l.ori r10,r4,0x0
    635c:	a8 70 00 00 	l.ori r3,r16,0x0
    6360:	9c a0 00 08 	l.addi r5,r0,0x8
    6364:	07 ff ff 19 	l.jal 5fc8 <_ivlc_func>
    6368:	a8 d4 00 00 	l.ori r6,r20,0x0
    636c:	9c c0 00 40 	l.addi r6,r0,0x40
    6370:	a8 90 00 00 	l.ori r4,r16,0x0
    6374:	d4 2e 30 00 	l.sw 0x800(r14),r6
    6378:	18 60 00 01 	l.movhi r3,0x1
    637c:	a8 63 cd f0 	l.ori r3,r3,0xcdf0
    6380:	84 b2 08 00 	l.lwz r5,0x800(r18)
    6384:	84 c4 00 00 	l.lwz r6,0x0(r4)
    6388:	9d 4a 00 01 	l.addi r10,r10,0x1
    638c:	d4 03 30 00 	l.sw 0x0(r3),r6
    6390:	9c 84 00 04 	l.addi r4,r4,0x4
    6394:	e4 6a 28 00 	l.sfgeu r10,r5
    6398:	0f ff ff fb 	l.bnf 6384 <_mpeg_ivlc+0x114>
    639c:	9c 63 00 04 	l.addi r3,r3,0x4
    63a0:	18 60 00 01 	l.movhi r3,0x1
    63a4:	a8 63 cd f0 	l.ori r3,r3,0xcdf0
    63a8:	07 ff f0 25 	l.jal 243c <_SendMessage>
    63ac:	9c 80 00 10 	l.addi r4,r0,0x10
    63b0:	18 60 00 01 	l.movhi r3,0x1
    63b4:	a8 63 61 2e 	l.ori r3,r3,0x612e
    63b8:	07 ff ec 69 	l.jal 155c <_prints>
    63bc:	15 00 00 00 	l.nop 0x0
    63c0:	07 ff ec 7a 	l.jal 15a8 <_printi>
    63c4:	a8 6c 00 00 	l.ori r3,r12,0x0
    63c8:	18 60 00 01 	l.movhi r3,0x1
    63cc:	a8 63 57 ae 	l.ori r3,r3,0x57ae
    63d0:	07 ff ec 63 	l.jal 155c <_prints>
    63d4:	15 00 00 00 	l.nop 0x0
    63d8:	07 ff ed 77 	l.jal 19b4 <_get_migration_src>
    63dc:	15 00 00 00 	l.nop 0x0
    63e0:	bc 0b 00 00 	l.sfeqi r11,0x0
    63e4:	0c 00 00 10 	l.bnf 6424 <_mpeg_ivlc+0x1b4>
    63e8:	15 00 00 00 	l.nop 0x0
    63ec:	9d 8c 00 01 	l.addi r12,r12,0x1
    63f0:	bd 4c 00 9f 	l.sfgtsi r12,0x9f
    63f4:	0f ff ff be 	l.bnf 62ec <_mpeg_ivlc+0x7c>
    63f8:	15 00 00 00 	l.nop 0x0
    63fc:	04 00 08 27 	l.jal 8498 <_clock>
    6400:	15 00 00 00 	l.nop 0x0
    6404:	07 ff ec 69 	l.jal 15a8 <_printi>
    6408:	a8 6b 00 00 	l.ori r3,r11,0x0
    640c:	18 60 00 01 	l.movhi r3,0x1
    6410:	a8 63 61 35 	l.ori r3,r3,0x6135
    6414:	07 ff ec 52 	l.jal 155c <_prints>
    6418:	15 00 00 00 	l.nop 0x0
    641c:	00 00 00 09 	l.j 6440 <_mpeg_ivlc+0x1d0>
    6420:	9d 60 00 00 	l.addi r11,r0,0x0
    6424:	18 60 00 01 	l.movhi r3,0x1
    6428:	a8 63 61 48 	l.ori r3,r3,0x6148
    642c:	07 ff ec 4c 	l.jal 155c <_prints>
    6430:	15 00 00 00 	l.nop 0x0
    6434:	07 ff ed 38 	l.jal 1914 <_clear_migration_src>
    6438:	15 00 00 00 	l.nop 0x0
    643c:	9d 6c 00 01 	l.addi r11,r12,0x1
    6440:	85 21 00 00 	l.lwz r9,0x0(r1)
    6444:	84 41 00 04 	l.lwz r2,0x4(r1)
    6448:	85 41 00 08 	l.lwz r10,0x8(r1)
    644c:	85 81 00 0c 	l.lwz r12,0xc(r1)
    6450:	85 c1 00 10 	l.lwz r14,0x10(r1)
    6454:	86 01 00 14 	l.lwz r16,0x14(r1)
    6458:	86 41 00 18 	l.lwz r18,0x18(r1)
    645c:	86 81 00 1c 	l.lwz r20,0x1c(r1)
    6460:	44 00 48 00 	l.jr r9
    6464:	9c 21 03 20 	l.addi r1,r1,0x320

00006468 <_dtw_abs>:
    6468:	9c 21 ff fc 	l.addi r1,r1,0xfffffffc
    646c:	d4 01 10 00 	l.sw 0x0(r1),r2
    6470:	9c 41 00 04 	l.addi r2,r1,0x4
    6474:	bd 63 00 00 	l.sfgesi r3,0x0
    6478:	0c 00 00 03 	l.bnf 6484 <_dtw_abs+0x1c>
    647c:	e1 60 18 02 	l.sub r11,r0,r3
    6480:	a9 63 00 00 	l.ori r11,r3,0x0
    6484:	84 41 00 00 	l.lwz r2,0x0(r1)
    6488:	44 00 48 00 	l.jr r9
    648c:	9c 21 00 04 	l.addi r1,r1,0x4

00006490 <_dtw_randNum>:
    6490:	9c 21 ff f4 	l.addi r1,r1,0xfffffff4
    6494:	d4 01 10 04 	l.sw 0x4(r1),r2
    6498:	9c 41 00 0c 	l.addi r2,r1,0xc
    649c:	d4 01 48 00 	l.sw 0x0(r1),r9
    64a0:	d4 01 50 08 	l.sw 0x8(r1),r10
    64a4:	a9 44 00 00 	l.ori r10,r4,0x0
    64a8:	a4 83 00 01 	l.andi r4,r3,0x1
    64ac:	e0 c0 20 02 	l.sub r6,r0,r4
    64b0:	b8 63 00 81 	l.srai r3,r3,0x1
    64b4:	a8 85 00 00 	l.ori r4,r5,0x0
    64b8:	a4 a6 b4 00 	l.andi r5,r6,0xb400
    64bc:	04 00 06 8e 	l.jal 7ef4 <___modsi3>
    64c0:	e0 63 28 05 	l.xor r3,r3,r5
    64c4:	e1 6b 50 00 	l.add r11,r11,r10
    64c8:	85 21 00 00 	l.lwz r9,0x0(r1)
    64cc:	84 41 00 04 	l.lwz r2,0x4(r1)
    64d0:	85 41 00 08 	l.lwz r10,0x8(r1)
    64d4:	44 00 48 00 	l.jr r9
    64d8:	9c 21 00 0c 	l.addi r1,r1,0xc

000064dc <_randPattern>:
    64dc:	9c 21 ff e8 	l.addi r1,r1,0xffffffe8
    64e0:	d4 01 10 04 	l.sw 0x4(r1),r2
    64e4:	9c 41 00 18 	l.addi r2,r1,0x18
    64e8:	d4 01 48 00 	l.sw 0x0(r1),r9
    64ec:	d4 01 50 08 	l.sw 0x8(r1),r10
    64f0:	d4 01 60 0c 	l.sw 0xc(r1),r12
    64f4:	d4 01 70 10 	l.sw 0x10(r1),r14
    64f8:	d4 01 80 14 	l.sw 0x14(r1),r16
    64fc:	9d c0 00 00 	l.addi r14,r0,0x0
    6500:	aa 03 00 00 	l.ori r16,r3,0x0
    6504:	a9 8e 00 00 	l.ori r12,r14,0x0
    6508:	9c a0 00 64 	l.addi r5,r0,0x64
    650c:	9c 60 00 17 	l.addi r3,r0,0x17
    6510:	9c 80 00 02 	l.addi r4,r0,0x2
    6514:	07 ff ff df 	l.jal 6490 <_dtw_randNum>
    6518:	9d 40 00 00 	l.addi r10,r0,0x0
    651c:	a8 6b 00 00 	l.ori r3,r11,0x0
    6520:	04 00 06 75 	l.jal 7ef4 <___modsi3>
    6524:	9c 80 13 88 	l.addi r4,r0,0x1388
    6528:	07 ff ff d0 	l.jal 6468 <_dtw_abs>
    652c:	a8 6b 00 00 	l.ori r3,r11,0x0
    6530:	e0 6c 80 00 	l.add r3,r12,r16
    6534:	d4 03 58 00 	l.sw 0x0(r3),r11
    6538:	9d 4a 00 01 	l.addi r10,r10,0x1
    653c:	bd 4a 00 0a 	l.sfgtsi r10,0xa
    6540:	0f ff ff fd 	l.bnf 6534 <_randPattern+0x58>
    6544:	9c 63 00 04 	l.addi r3,r3,0x4
    6548:	9d ce 00 01 	l.addi r14,r14,0x1
    654c:	bd 4e 00 0a 	l.sfgtsi r14,0xa
    6550:	0f ff ff ee 	l.bnf 6508 <_randPattern+0x2c>
    6554:	9d 8c 00 2c 	l.addi r12,r12,0x2c
    6558:	85 21 00 00 	l.lwz r9,0x0(r1)
    655c:	84 41 00 04 	l.lwz r2,0x4(r1)
    6560:	85 41 00 08 	l.lwz r10,0x8(r1)
    6564:	85 81 00 0c 	l.lwz r12,0xc(r1)
    6568:	85 c1 00 10 	l.lwz r14,0x10(r1)
    656c:	86 01 00 14 	l.lwz r16,0x14(r1)
    6570:	44 00 48 00 	l.jr r9
    6574:	9c 21 00 18 	l.addi r1,r1,0x18

00006578 <_dtw_bank>:
    6578:	9c 21 fd ec 	l.addi r1,r1,0xfffffdec
    657c:	d4 01 10 04 	l.sw 0x4(r1),r2
    6580:	9c 41 02 14 	l.addi r2,r1,0x214
    6584:	d4 01 48 00 	l.sw 0x0(r1),r9
    6588:	d4 01 50 08 	l.sw 0x8(r1),r10
    658c:	d4 01 60 0c 	l.sw 0xc(r1),r12
    6590:	d4 01 70 10 	l.sw 0x10(r1),r14
    6594:	d4 01 80 14 	l.sw 0x14(r1),r16
    6598:	d4 01 90 18 	l.sw 0x18(r1),r18
    659c:	d4 01 a0 1c 	l.sw 0x1c(r1),r20
    65a0:	a8 83 00 00 	l.ori r4,r3,0x0
    65a4:	9d 20 00 13 	l.addi r9,r0,0x13
    65a8:	9c 60 00 12 	l.addi r3,r0,0x12
    65ac:	d7 e2 4e 10 	l.sw 0xfffffe10(r2),r9
    65b0:	d7 e2 1e 0c 	l.sw 0xfffffe0c(r2),r3
    65b4:	9d 20 00 15 	l.addi r9,r0,0x15
    65b8:	9c 60 00 14 	l.addi r3,r0,0x14
    65bc:	d7 e2 1e 14 	l.sw 0xfffffe14(r2),r3
    65c0:	d7 e2 4e 18 	l.sw 0xfffffe18(r2),r9
    65c4:	18 60 00 01 	l.movhi r3,0x1
    65c8:	a8 63 61 5e 	l.ori r3,r3,0x615e
    65cc:	07 ff eb e4 	l.jal 155c <_prints>
    65d0:	aa 04 00 00 	l.ori r16,r4,0x0
    65d4:	bd 50 00 13 	l.sfgtsi r16,0x13
    65d8:	10 00 00 35 	l.bf 66ac <_dtw_bank+0x134>
    65dc:	15 00 00 00 	l.nop 0x0
    65e0:	9e 82 fe 1c 	l.addi r20,r2,0xfffffe1c
    65e4:	1a 40 00 01 	l.movhi r18,0x1
    65e8:	aa 52 cd f0 	l.ori r18,r18,0xcdf0
    65ec:	9d 80 00 2c 	l.addi r12,r0,0x2c
    65f0:	9d 40 00 00 	l.addi r10,r0,0x0
    65f4:	9d c2 fe 0c 	l.addi r14,r2,0xfffffe0c
    65f8:	07 ff ff b9 	l.jal 64dc <_randPattern>
    65fc:	a8 74 00 00 	l.ori r3,r20,0x0
    6600:	9c e0 00 00 	l.addi r7,r0,0x0
    6604:	a9 02 00 00 	l.ori r8,r2,0x0
    6608:	e0 a7 63 06 	l.mul r5,r7,r12
    660c:	9c c0 00 00 	l.addi r6,r0,0x0
    6610:	9c 68 fe 1c 	l.addi r3,r8,0xfffffe1c
    6614:	19 20 00 01 	l.movhi r9,0x1
    6618:	a9 29 cd f0 	l.ori r9,r9,0xcdf0
    661c:	9c c6 00 01 	l.addi r6,r6,0x1
    6620:	e0 85 48 00 	l.add r4,r5,r9
    6624:	bd 46 00 0a 	l.sfgtsi r6,0xa
    6628:	85 23 00 00 	l.lwz r9,0x0(r3)
    662c:	9c a5 00 04 	l.addi r5,r5,0x4
    6630:	d4 04 48 00 	l.sw 0x0(r4),r9
    6634:	0f ff ff f8 	l.bnf 6614 <_dtw_bank+0x9c>
    6638:	9c 63 00 04 	l.addi r3,r3,0x4
    663c:	9c e7 00 01 	l.addi r7,r7,0x1
    6640:	bd 47 00 0a 	l.sfgtsi r7,0xa
    6644:	0f ff ff f1 	l.bnf 6608 <_dtw_bank+0x90>
    6648:	9d 08 00 2c 	l.addi r8,r8,0x2c
    664c:	9c 60 00 79 	l.addi r3,r0,0x79
    6650:	84 8e 00 00 	l.lwz r4,0x0(r14)
    6654:	d4 32 18 00 	l.sw 0x800(r18),r3
    6658:	18 60 00 01 	l.movhi r3,0x1
    665c:	a8 63 cd f0 	l.ori r3,r3,0xcdf0
    6660:	07 ff ef 77 	l.jal 243c <_SendMessage>
    6664:	9d ce 00 04 	l.addi r14,r14,0x4
    6668:	a8 8a 00 00 	l.ori r4,r10,0x0
    666c:	18 60 00 01 	l.movhi r3,0x1
    6670:	a8 63 61 72 	l.ori r3,r3,0x6172
    6674:	07 ff ed 67 	l.jal 1c10 <_putsv>
    6678:	9d 4a 00 01 	l.addi r10,r10,0x1
    667c:	bd 4a 00 03 	l.sfgtsi r10,0x3
    6680:	0f ff ff de 	l.bnf 65f8 <_dtw_bank+0x80>
    6684:	15 00 00 00 	l.nop 0x0
    6688:	07 ff ec cb 	l.jal 19b4 <_get_migration_src>
    668c:	15 00 00 00 	l.nop 0x0
    6690:	bc 0b 00 00 	l.sfeqi r11,0x0
    6694:	0c 00 00 0c 	l.bnf 66c4 <_dtw_bank+0x14c>
    6698:	15 00 00 00 	l.nop 0x0
    669c:	9e 10 00 01 	l.addi r16,r16,0x1
    66a0:	bd 50 00 13 	l.sfgtsi r16,0x13
    66a4:	0f ff ff d3 	l.bnf 65f0 <_dtw_bank+0x78>
    66a8:	15 00 00 00 	l.nop 0x0
    66ac:	18 60 00 01 	l.movhi r3,0x1
    66b0:	a8 63 61 8b 	l.ori r3,r3,0x618b
    66b4:	07 ff eb aa 	l.jal 155c <_prints>
    66b8:	15 00 00 00 	l.nop 0x0
    66bc:	00 00 00 09 	l.j 66e0 <_dtw_bank+0x168>
    66c0:	9d 60 00 00 	l.addi r11,r0,0x0
    66c4:	18 60 00 01 	l.movhi r3,0x1
    66c8:	a8 63 61 9f 	l.ori r3,r3,0x619f
    66cc:	07 ff eb a4 	l.jal 155c <_prints>
    66d0:	15 00 00 00 	l.nop 0x0
    66d4:	07 ff ec 90 	l.jal 1914 <_clear_migration_src>
    66d8:	15 00 00 00 	l.nop 0x0
    66dc:	9d 70 00 01 	l.addi r11,r16,0x1
    66e0:	85 21 00 00 	l.lwz r9,0x0(r1)
    66e4:	84 41 00 04 	l.lwz r2,0x4(r1)
    66e8:	85 41 00 08 	l.lwz r10,0x8(r1)
    66ec:	85 81 00 0c 	l.lwz r12,0xc(r1)
    66f0:	85 c1 00 10 	l.lwz r14,0x10(r1)
    66f4:	86 01 00 14 	l.lwz r16,0x14(r1)
    66f8:	86 41 00 18 	l.lwz r18,0x18(r1)
    66fc:	86 81 00 1c 	l.lwz r20,0x1c(r1)
    6700:	44 00 48 00 	l.jr r9
    6704:	9c 21 02 14 	l.addi r1,r1,0x214

00006708 <_dtw_euclideanDistance>:
    6708:	9c 21 ff fc 	l.addi r1,r1,0xfffffffc
    670c:	d4 01 10 00 	l.sw 0x0(r1),r2
    6710:	9c 41 00 04 	l.addi r2,r1,0x4
    6714:	9d 60 00 00 	l.addi r11,r0,0x0
    6718:	a8 eb 00 00 	l.ori r7,r11,0x0
    671c:	b8 a7 00 02 	l.slli r5,r7,0x2
    6720:	e0 c5 20 00 	l.add r6,r5,r4
    6724:	9c e7 00 01 	l.addi r7,r7,0x1
    6728:	e0 a5 18 00 	l.add r5,r5,r3
    672c:	84 c6 00 00 	l.lwz r6,0x0(r6)
    6730:	bd 47 00 0a 	l.sfgtsi r7,0xa
    6734:	84 a5 00 00 	l.lwz r5,0x0(r5)
    6738:	e0 a5 30 02 	l.sub r5,r5,r6
    673c:	e0 a5 2b 06 	l.mul r5,r5,r5
    6740:	0f ff ff f7 	l.bnf 671c <_dtw_euclideanDistance+0x14>
    6744:	e1 6b 28 00 	l.add r11,r11,r5
    6748:	84 41 00 00 	l.lwz r2,0x0(r1)
    674c:	44 00 48 00 	l.jr r9
    6750:	9c 21 00 04 	l.addi r1,r1,0x4

00006754 <_dtw_min>:
    6754:	9c 21 ff fc 	l.addi r1,r1,0xfffffffc
    6758:	d4 01 10 00 	l.sw 0x0(r1),r2
    675c:	9c 41 00 04 	l.addi r2,r1,0x4
    6760:	e5 a3 20 00 	l.sfles r3,r4
    6764:	10 00 00 03 	l.bf 6770 <_dtw_min+0x1c>
    6768:	a9 63 00 00 	l.ori r11,r3,0x0
    676c:	a9 64 00 00 	l.ori r11,r4,0x0
    6770:	84 41 00 00 	l.lwz r2,0x0(r1)
    6774:	44 00 48 00 	l.jr r9
    6778:	9c 21 00 04 	l.addi r1,r1,0x4

0000677c <_dtw_dynamicTimeWarping>:
    677c:	9c 21 ff 50 	l.addi r1,r1,0xffffff50
    6780:	d4 01 10 04 	l.sw 0x4(r1),r2
    6784:	9c 41 00 b0 	l.addi r2,r1,0xb0
    6788:	d4 01 48 00 	l.sw 0x0(r1),r9
    678c:	d4 01 50 08 	l.sw 0x8(r1),r10
    6790:	d4 01 60 0c 	l.sw 0xc(r1),r12
    6794:	d4 01 70 10 	l.sw 0x10(r1),r14
    6798:	d4 01 80 14 	l.sw 0x14(r1),r16
    679c:	d4 01 90 18 	l.sw 0x18(r1),r18
    67a0:	d4 01 a0 1c 	l.sw 0x1c(r1),r20
    67a4:	d4 01 b0 20 	l.sw 0x20(r1),r22
    67a8:	d4 01 c0 24 	l.sw 0x24(r1),r24
    67ac:	d4 01 d0 28 	l.sw 0x28(r1),r26
    67b0:	ab 04 00 00 	l.ori r24,r4,0x0
    67b4:	aa 43 00 00 	l.ori r18,r3,0x0
    67b8:	07 ff ff d4 	l.jal 6708 <_dtw_euclideanDistance>
    67bc:	9d c0 00 01 	l.addi r14,r0,0x1
    67c0:	d7 e2 5f a8 	l.sw 0xffffffa8(r2),r11
    67c4:	9d 58 00 2c 	l.addi r10,r24,0x2c
    67c8:	9d 82 00 04 	l.addi r12,r2,0x4
    67cc:	a8 8a 00 00 	l.ori r4,r10,0x0
    67d0:	a8 72 00 00 	l.ori r3,r18,0x0
    67d4:	07 ff ff cd 	l.jal 6708 <_dtw_euclideanDistance>
    67d8:	9d ce 00 01 	l.addi r14,r14,0x1
    67dc:	84 6c ff a4 	l.lwz r3,0xffffffa4(r12)
    67e0:	9d 4a 00 2c 	l.addi r10,r10,0x2c
    67e4:	bd 4e 00 0a 	l.sfgtsi r14,0xa
    67e8:	e0 63 58 00 	l.add r3,r3,r11
    67ec:	d7 ec 1f a8 	l.sw 0xffffffa8(r12),r3
    67f0:	0f ff ff f7 	l.bnf 67cc <_dtw_dynamicTimeWarping+0x50>
    67f4:	9d 8c 00 04 	l.addi r12,r12,0x4
    67f8:	9e 80 00 2c 	l.addi r20,r0,0x2c
    67fc:	9f 40 00 01 	l.addi r26,r0,0x1
    6800:	e2 d2 a0 00 	l.add r22,r18,r20
    6804:	9c 60 00 00 	l.addi r3,r0,0x0
    6808:	a8 82 00 00 	l.ori r4,r2,0x0
    680c:	84 a4 ff d4 	l.lwz r5,0xffffffd4(r4)
    6810:	9c 63 00 01 	l.addi r3,r3,0x1
    6814:	d7 e4 2f 7c 	l.sw 0xffffff7c(r4),r5
    6818:	bd 43 00 0a 	l.sfgtsi r3,0xa
    681c:	0f ff ff fc 	l.bnf 680c <_dtw_dynamicTimeWarping+0x90>
    6820:	9c 84 00 04 	l.addi r4,r4,0x4
    6824:	9c 60 00 00 	l.addi r3,r0,0x0
    6828:	a8 82 00 00 	l.ori r4,r2,0x0
    682c:	84 a4 ff a8 	l.lwz r5,0xffffffa8(r4)
    6830:	9c 63 00 01 	l.addi r3,r3,0x1
    6834:	d7 e4 2f d4 	l.sw 0xffffffd4(r4),r5
    6838:	bd 43 00 0a 	l.sfgtsi r3,0xa
    683c:	0f ff ff fc 	l.bnf 682c <_dtw_dynamicTimeWarping+0xb0>
    6840:	9c 84 00 04 	l.addi r4,r4,0x4
    6844:	9c 60 00 00 	l.addi r3,r0,0x0
    6848:	9c 63 00 01 	l.addi r3,r3,0x1
    684c:	bd 43 00 0a 	l.sfgtsi r3,0xa
    6850:	0f ff ff ff 	l.bnf 684c <_dtw_dynamicTimeWarping+0xd0>
    6854:	9c 63 00 01 	l.addi r3,r3,0x1
    6858:	a8 76 00 00 	l.ori r3,r22,0x0
    685c:	a8 98 00 00 	l.ori r4,r24,0x0
    6860:	07 ff ff aa 	l.jal 6708 <_dtw_euclideanDistance>
    6864:	9d c0 00 01 	l.addi r14,r0,0x1
    6868:	84 62 ff d4 	l.lwz r3,0xffffffd4(r2)
    686c:	9d 98 00 2c 	l.addi r12,r24,0x2c
    6870:	e0 63 58 00 	l.add r3,r3,r11
    6874:	d7 e2 1f a8 	l.sw 0xffffffa8(r2),r3
    6878:	b8 6e 00 02 	l.slli r3,r14,0x2
    687c:	e0 83 10 00 	l.add r4,r3,r2
    6880:	9d ce 00 01 	l.addi r14,r14,0x1
    6884:	84 64 ff d0 	l.lwz r3,0xffffffd0(r4)
    6888:	9d 44 ff d4 	l.addi r10,r4,0xffffffd4
    688c:	9e 04 ff a8 	l.addi r16,r4,0xffffffa8
    6890:	07 ff ff b1 	l.jal 6754 <_dtw_min>
    6894:	84 84 ff a4 	l.lwz r4,0xffffffa4(r4)
    6898:	84 6a 00 00 	l.lwz r3,0x0(r10)
    689c:	07 ff ff ae 	l.jal 6754 <_dtw_min>
    68a0:	a8 8b 00 00 	l.ori r4,r11,0x0
    68a4:	a9 4b 00 00 	l.ori r10,r11,0x0
    68a8:	a8 8c 00 00 	l.ori r4,r12,0x0
    68ac:	e0 74 90 00 	l.add r3,r20,r18
    68b0:	07 ff ff 96 	l.jal 6708 <_dtw_euclideanDistance>
    68b4:	9d 8c 00 2c 	l.addi r12,r12,0x2c
    68b8:	e1 6b 50 00 	l.add r11,r11,r10
    68bc:	bd 4e 00 0a 	l.sfgtsi r14,0xa
    68c0:	0f ff ff ee 	l.bnf 6878 <_dtw_dynamicTimeWarping+0xfc>
    68c4:	d4 10 58 00 	l.sw 0x0(r16),r11
    68c8:	9f 5a 00 01 	l.addi r26,r26,0x1
    68cc:	9e d6 00 2c 	l.addi r22,r22,0x2c
    68d0:	bd 5a 00 0a 	l.sfgtsi r26,0xa
    68d4:	0f ff ff cc 	l.bnf 6804 <_dtw_dynamicTimeWarping+0x88>
    68d8:	9e 94 00 2c 	l.addi r20,r20,0x2c
    68dc:	85 62 ff d0 	l.lwz r11,0xffffffd0(r2)
    68e0:	85 21 00 00 	l.lwz r9,0x0(r1)
    68e4:	84 41 00 04 	l.lwz r2,0x4(r1)
    68e8:	85 41 00 08 	l.lwz r10,0x8(r1)
    68ec:	85 81 00 0c 	l.lwz r12,0xc(r1)
    68f0:	85 c1 00 10 	l.lwz r14,0x10(r1)
