
application0.OR1K.elf:     file format elf32-or32

Disassembly of section .text:

00000000 <_start-0x100>:
	...

00000100 <_start>:
     100:	9c 40 00 00 	l.addi r2,r0,0x0
     104:	9c 60 00 00 	l.addi r3,r0,0x0
     108:	9c 80 00 00 	l.addi r4,r0,0x0
     10c:	9c a0 00 00 	l.addi r5,r0,0x0
     110:	9c c0 00 00 	l.addi r6,r0,0x0
     114:	9c e0 00 00 	l.addi r7,r0,0x0
     118:	9d 00 00 00 	l.addi r8,r0,0x0
     11c:	9d 20 00 00 	l.addi r9,r0,0x0
     120:	9d 40 00 00 	l.addi r10,r0,0x0
     124:	9d 60 00 00 	l.addi r11,r0,0x0
     128:	9d 80 00 00 	l.addi r12,r0,0x0
     12c:	9d a0 00 00 	l.addi r13,r0,0x0
     130:	9d c0 00 00 	l.addi r14,r0,0x0
     134:	9d e0 00 00 	l.addi r15,r0,0x0
     138:	9e 00 00 00 	l.addi r16,r0,0x0
     13c:	9e 20 00 00 	l.addi r17,r0,0x0
     140:	9e 40 00 00 	l.addi r18,r0,0x0
     144:	9e 60 00 00 	l.addi r19,r0,0x0
     148:	9e 80 00 00 	l.addi r20,r0,0x0
     14c:	9e a0 00 00 	l.addi r21,r0,0x0
     150:	9e c0 00 00 	l.addi r22,r0,0x0
     154:	9e e0 00 00 	l.addi r23,r0,0x0
     158:	9f 00 00 00 	l.addi r24,r0,0x0
     15c:	9f 20 00 00 	l.addi r25,r0,0x0
     160:	9f 40 00 00 	l.addi r26,r0,0x0
     164:	9f 60 00 00 	l.addi r27,r0,0x0
     168:	9f 80 00 00 	l.addi r28,r0,0x0
     16c:	9f a0 00 00 	l.addi r29,r0,0x0
     170:	9f c0 00 00 	l.addi r30,r0,0x0
     174:	9f e0 00 00 	l.addi r31,r0,0x0
     178:	18 20 ff ff 	l.movhi r1,0xffff
     17c:	a8 21 ff fc 	l.ori r1,r1,0xfffc
     180:	18 40 00 00 	l.movhi r2,0x0
     184:	a8 42 1c 88 	l.ori r2,r2,0x1c88
     188:	44 00 10 00 	l.jr r2
     18c:	15 00 00 00 	l.nop 0x0
	...

00000200 <_buserr_vector>:
     200:	9c 21 ff 88 	l.addi r1,r1,0xffffff88
     204:	d4 01 48 1c 	l.sw 0x1c(r1),r9
     208:	d4 01 50 20 	l.sw 0x20(r1),r10
     20c:	19 20 00 00 	l.movhi r9,0x0
     210:	a9 29 0e 24 	l.ori r9,r9,0xe24
     214:	19 40 00 00 	l.movhi r10,0x0
     218:	a9 4a e2 ac 	l.ori r10,r10,0xe2ac
     21c:	44 00 48 00 	l.jr r9
     220:	15 00 00 00 	l.nop 0x0

00000224 <_buserr_vector_end>:
	...

00000300 <_dpfault_vector>:
     300:	9c 21 ff 88 	l.addi r1,r1,0xffffff88
     304:	d4 01 48 1c 	l.sw 0x1c(r1),r9
     308:	d4 01 50 20 	l.sw 0x20(r1),r10
     30c:	19 20 00 00 	l.movhi r9,0x0
     310:	a9 29 0e 24 	l.ori r9,r9,0xe24
     314:	19 40 00 00 	l.movhi r10,0x0
     318:	a9 4a e2 ac 	l.ori r10,r10,0xe2ac
     31c:	44 00 48 00 	l.jr r9
     320:	15 00 00 00 	l.nop 0x0

00000324 <_dpfault_vector_end>:
	...

00000400 <_ipfault_vector>:
     400:	9c 21 ff 88 	l.addi r1,r1,0xffffff88
     404:	d4 01 48 1c 	l.sw 0x1c(r1),r9
     408:	d4 01 50 20 	l.sw 0x20(r1),r10
     40c:	19 20 00 00 	l.movhi r9,0x0
     410:	a9 29 0e 24 	l.ori r9,r9,0xe24
     414:	19 40 00 00 	l.movhi r10,0x0
     418:	a9 4a e2 ac 	l.ori r10,r10,0xe2ac
     41c:	44 00 48 00 	l.jr r9
     420:	15 00 00 00 	l.nop 0x0

00000424 <_ipfault_vector_end>:
	...

00000500 <_lpint_vector>:
     500:	9c 21 ff 88 	l.addi r1,r1,0xffffff88
     504:	d4 01 48 1c 	l.sw 0x1c(r1),r9
     508:	d4 01 50 20 	l.sw 0x20(r1),r10
     50c:	19 20 00 00 	l.movhi r9,0x0
     510:	a9 29 0e 24 	l.ori r9,r9,0xe24
     514:	19 40 00 00 	l.movhi r10,0x0
     518:	a9 4a e2 ac 	l.ori r10,r10,0xe2ac
     51c:	44 00 48 00 	l.jr r9
     520:	15 00 00 00 	l.nop 0x0

00000524 <_lpint_vector_end>:
	...

00000600 <_align_vector>:
     600:	9c 21 ff 88 	l.addi r1,r1,0xffffff88
     604:	d4 01 48 1c 	l.sw 0x1c(r1),r9
     608:	d4 01 50 20 	l.sw 0x20(r1),r10
     60c:	19 20 00 00 	l.movhi r9,0x0
     610:	a9 29 0e 24 	l.ori r9,r9,0xe24
     614:	19 40 00 00 	l.movhi r10,0x0
     618:	a9 4a e2 ac 	l.ori r10,r10,0xe2ac
     61c:	44 00 48 00 	l.jr r9
     620:	15 00 00 00 	l.nop 0x0

00000624 <_align_vector_end>:
	...

00000700 <_illinsn_vector>:
     700:	9c 21 ff 88 	l.addi r1,r1,0xffffff88
     704:	d4 01 48 1c 	l.sw 0x1c(r1),r9
     708:	d4 01 50 20 	l.sw 0x20(r1),r10
     70c:	19 20 00 00 	l.movhi r9,0x0
     710:	a9 29 0e 24 	l.ori r9,r9,0xe24
     714:	19 40 00 00 	l.movhi r10,0x0
     718:	a9 4a e2 ac 	l.ori r10,r10,0xe2ac
     71c:	44 00 48 00 	l.jr r9
     720:	15 00 00 00 	l.nop 0x0

00000724 <_illinsn_vector_end>:
	...

00000800 <_hpint_vector>:
     800:	9c 21 ff 88 	l.addi r1,r1,0xffffff88
     804:	d4 01 48 1c 	l.sw 0x1c(r1),r9
     808:	d4 01 50 20 	l.sw 0x20(r1),r10
     80c:	19 20 00 00 	l.movhi r9,0x0
     810:	a9 29 0e 24 	l.ori r9,r9,0xe24
     814:	19 40 00 00 	l.movhi r10,0x0
     818:	a9 4a e2 b8 	l.ori r10,r10,0xe2b8
     81c:	44 00 48 00 	l.jr r9
     820:	15 00 00 00 	l.nop 0x0

00000824 <_hpint_vector_end>:
	...

00000900 <_dtlbmiss_vector>:
     900:	9c 21 ff 88 	l.addi r1,r1,0xffffff88
     904:	d4 01 48 1c 	l.sw 0x1c(r1),r9
     908:	d4 01 50 20 	l.sw 0x20(r1),r10
     90c:	19 20 00 00 	l.movhi r9,0x0
     910:	a9 29 0e 24 	l.ori r9,r9,0xe24
     914:	19 40 00 00 	l.movhi r10,0x0
     918:	a9 4a e2 ac 	l.ori r10,r10,0xe2ac
     91c:	44 00 48 00 	l.jr r9
     920:	15 00 00 00 	l.nop 0x0

00000924 <_dtlbmiss_vector_end>:
	...

00000a00 <_itlbmiss_vector>:
     a00:	9c 21 ff 88 	l.addi r1,r1,0xffffff88
     a04:	d4 01 48 1c 	l.sw 0x1c(r1),r9
     a08:	d4 01 50 20 	l.sw 0x20(r1),r10
     a0c:	19 20 00 00 	l.movhi r9,0x0
     a10:	a9 29 0e 24 	l.ori r9,r9,0xe24
     a14:	19 40 00 00 	l.movhi r10,0x0
     a18:	a9 4a e2 ac 	l.ori r10,r10,0xe2ac
     a1c:	44 00 48 00 	l.jr r9
     a20:	15 00 00 00 	l.nop 0x0

00000a24 <_itlbmiss_vector_end>:
	...

00000b00 <_range_vector>:
     b00:	9c 21 ff 88 	l.addi r1,r1,0xffffff88
     b04:	d4 01 48 1c 	l.sw 0x1c(r1),r9
     b08:	d4 01 50 20 	l.sw 0x20(r1),r10
     b0c:	19 20 00 00 	l.movhi r9,0x0
     b10:	a9 29 0e 24 	l.ori r9,r9,0xe24
     b14:	19 40 00 00 	l.movhi r10,0x0
     b18:	a9 4a e2 ac 	l.ori r10,r10,0xe2ac
     b1c:	44 00 48 00 	l.jr r9
     b20:	15 00 00 00 	l.nop 0x0

00000b24 <_range_vector_end>:
	...

00000c00 <_syscall_vector>:
     c00:	9c 21 ff 88 	l.addi r1,r1,0xffffff88
     c04:	d4 01 48 1c 	l.sw 0x1c(r1),r9
     c08:	d4 01 50 20 	l.sw 0x20(r1),r10
     c0c:	19 20 00 00 	l.movhi r9,0x0
     c10:	a9 29 0e 24 	l.ori r9,r9,0xe24
     c14:	19 40 00 00 	l.movhi r10,0x0
     c18:	a9 4a e2 ac 	l.ori r10,r10,0xe2ac
     c1c:	44 00 48 00 	l.jr r9
     c20:	15 00 00 00 	l.nop 0x0

00000c24 <_syscall_vector_end>:
	...

00000d00 <_break_vector>:
     d00:	9c 21 ff 88 	l.addi r1,r1,0xffffff88
     d04:	d4 01 48 1c 	l.sw 0x1c(r1),r9
     d08:	d4 01 50 20 	l.sw 0x20(r1),r10
     d0c:	19 20 00 00 	l.movhi r9,0x0
     d10:	a9 29 0e 24 	l.ori r9,r9,0xe24
     d14:	19 40 00 00 	l.movhi r10,0x0
     d18:	a9 4a e2 ac 	l.ori r10,r10,0xe2ac
     d1c:	44 00 48 00 	l.jr r9
     d20:	15 00 00 00 	l.nop 0x0

00000d24 <_break_vector_end>:
	...

00000e00 <_trap_vector>:
     e00:	9c 21 ff 88 	l.addi r1,r1,0xffffff88
     e04:	d4 01 48 1c 	l.sw 0x1c(r1),r9
     e08:	d4 01 50 20 	l.sw 0x20(r1),r10
     e0c:	19 20 00 00 	l.movhi r9,0x0
     e10:	a9 29 0e 24 	l.ori r9,r9,0xe24
     e14:	19 40 00 00 	l.movhi r10,0x0
     e18:	a9 4a e2 ac 	l.ori r10,r10,0xe2ac
     e1c:	44 00 48 00 	l.jr r9
     e20:	15 00 00 00 	l.nop 0x0

00000e24 <_trap_vector_end>:
     e24:	d4 01 10 00 	l.sw 0x0(r1),r2
     e28:	d4 01 18 04 	l.sw 0x4(r1),r3
     e2c:	d4 01 20 08 	l.sw 0x8(r1),r4
     e30:	d4 01 28 0c 	l.sw 0xc(r1),r5
     e34:	d4 01 30 10 	l.sw 0x10(r1),r6
     e38:	d4 01 38 14 	l.sw 0x14(r1),r7
     e3c:	d4 01 40 18 	l.sw 0x18(r1),r8
     e40:	d4 01 58 24 	l.sw 0x24(r1),r11
     e44:	d4 01 60 28 	l.sw 0x28(r1),r12
     e48:	d4 01 68 2c 	l.sw 0x2c(r1),r13
     e4c:	d4 01 70 30 	l.sw 0x30(r1),r14
     e50:	d4 01 78 34 	l.sw 0x34(r1),r15
     e54:	d4 01 80 38 	l.sw 0x38(r1),r16
     e58:	d4 01 88 3c 	l.sw 0x3c(r1),r17
     e5c:	d4 01 90 40 	l.sw 0x40(r1),r18
     e60:	d4 01 98 44 	l.sw 0x44(r1),r19
     e64:	d4 01 a0 48 	l.sw 0x48(r1),r20
     e68:	d4 01 a8 4c 	l.sw 0x4c(r1),r21
     e6c:	d4 01 b0 50 	l.sw 0x50(r1),r22
     e70:	d4 01 b8 54 	l.sw 0x54(r1),r23
     e74:	d4 01 c0 58 	l.sw 0x58(r1),r24
     e78:	d4 01 c8 5c 	l.sw 0x5c(r1),r25
     e7c:	d4 01 d0 60 	l.sw 0x60(r1),r26
     e80:	d4 01 d8 64 	l.sw 0x64(r1),r27
     e84:	d4 01 e0 68 	l.sw 0x68(r1),r28
     e88:	d4 01 e8 6c 	l.sw 0x6c(r1),r29
     e8c:	d4 01 f0 70 	l.sw 0x70(r1),r30
     e90:	d4 01 f8 74 	l.sw 0x74(r1),r31
     e94:	19 20 00 00 	l.movhi r9,0x0
     e98:	a9 29 0e a8 	l.ori r9,r9,0xea8
     e9c:	85 4a 00 00 	l.lwz r10,0x0(r10)
     ea0:	44 00 50 00 	l.jr r10
     ea4:	15 00 00 00 	l.nop 0x0

00000ea8 <end_except>:
     ea8:	84 41 00 00 	l.lwz r2,0x0(r1)
     eac:	84 61 00 04 	l.lwz r3,0x4(r1)
     eb0:	84 81 00 08 	l.lwz r4,0x8(r1)
     eb4:	84 a1 00 0c 	l.lwz r5,0xc(r1)
     eb8:	84 c1 00 10 	l.lwz r6,0x10(r1)
     ebc:	84 e1 00 14 	l.lwz r7,0x14(r1)
     ec0:	85 01 00 18 	l.lwz r8,0x18(r1)
     ec4:	85 21 00 1c 	l.lwz r9,0x1c(r1)
     ec8:	85 41 00 20 	l.lwz r10,0x20(r1)
     ecc:	85 61 00 24 	l.lwz r11,0x24(r1)
     ed0:	85 81 00 28 	l.lwz r12,0x28(r1)
     ed4:	85 a1 00 2c 	l.lwz r13,0x2c(r1)
     ed8:	85 c1 00 30 	l.lwz r14,0x30(r1)
     edc:	85 e1 00 34 	l.lwz r15,0x34(r1)
     ee0:	86 01 00 38 	l.lwz r16,0x38(r1)
     ee4:	86 21 00 3c 	l.lwz r17,0x3c(r1)
     ee8:	86 41 00 40 	l.lwz r18,0x40(r1)
     eec:	86 61 00 44 	l.lwz r19,0x44(r1)
     ef0:	86 81 00 48 	l.lwz r20,0x48(r1)
     ef4:	86 a1 00 4c 	l.lwz r21,0x4c(r1)
     ef8:	86 c1 00 50 	l.lwz r22,0x50(r1)
     efc:	86 e1 00 54 	l.lwz r23,0x54(r1)
     f00:	87 01 00 58 	l.lwz r24,0x58(r1)
     f04:	87 21 00 5c 	l.lwz r25,0x5c(r1)
     f08:	87 41 00 60 	l.lwz r26,0x60(r1)
     f0c:	87 61 00 64 	l.lwz r27,0x64(r1)
     f10:	87 81 00 68 	l.lwz r28,0x68(r1)
     f14:	87 a1 00 6c 	l.lwz r29,0x6c(r1)
     f18:	87 c1 00 70 	l.lwz r30,0x70(r1)
     f1c:	87 e1 00 74 	l.lwz r31,0x74(r1)
     f20:	9c 21 00 78 	l.addi r1,r1,0x78
     f24:	24 00 00 00 	l.rfe 
     f28:	15 00 00 00 	l.nop 0x0

00000f2c <_interruptHandler>:
     f2c:	9c 21 fe c8 	l.addi r1,r1,0xfffffec8
     f30:	d4 01 10 04 	l.sw 0x4(r1),r2
     f34:	9c 41 01 38 	l.addi r2,r1,0x138
     f38:	d4 01 48 00 	l.sw 0x0(r1),r9
     f3c:	9c 60 00 00 	l.addi r3,r0,0x0
     f40:	d7 e2 1f fc 	l.sw 0xfffffffc(r2),r3
     f44:	18 80 00 00 	l.movhi r4,0x0
     f48:	a8 84 e2 94 	l.ori r4,r4,0xe294
     f4c:	d7 e2 27 f4 	l.sw 0xfffffff4(r2),r4
     f50:	84 62 ff f4 	l.lwz r3,0xfffffff4(r2)
     f54:	84 63 00 00 	l.lwz r3,0x0(r3)
     f58:	d7 e2 1f f8 	l.sw 0xfffffff8(r2),r3
     f5c:	84 82 ff f8 	l.lwz r4,0xfffffff8(r2)
     f60:	84 84 00 00 	l.lwz r4,0x0(r4)
     f64:	d7 e2 27 f0 	l.sw 0xfffffff0(r2),r4
     f68:	84 62 ff f0 	l.lwz r3,0xfffffff0(r2)
     f6c:	bc 03 00 01 	l.sfeqi r3,0x1
     f70:	10 00 01 33 	l.bf 143c <_interruptHandler+0x510>
     f74:	15 00 00 00 	l.nop 0x0
     f78:	18 80 00 00 	l.movhi r4,0x0
     f7c:	a8 84 e2 94 	l.ori r4,r4,0xe294
     f80:	d7 e2 27 e8 	l.sw 0xffffffe8(r2),r4
     f84:	84 62 ff e8 	l.lwz r3,0xffffffe8(r2)
     f88:	84 63 00 00 	l.lwz r3,0x0(r3)
     f8c:	d7 e2 1f ec 	l.sw 0xffffffec(r2),r3
     f90:	84 82 ff ec 	l.lwz r4,0xffffffec(r2)
     f94:	84 84 00 00 	l.lwz r4,0x0(r4)
     f98:	d7 e2 27 e4 	l.sw 0xffffffe4(r2),r4
     f9c:	84 62 ff e4 	l.lwz r3,0xffffffe4(r2)
     fa0:	bc 23 00 03 	l.sfnei r3,0x3
     fa4:	13 ff ff e8 	l.bf f44 <_interruptHandler+0x18>
     fa8:	15 00 00 00 	l.nop 0x0
     fac:	18 80 00 00 	l.movhi r4,0x0
     fb0:	a8 84 eb 34 	l.ori r4,r4,0xeb34
     fb4:	d7 e2 27 e0 	l.sw 0xffffffe0(r2),r4
     fb8:	84 62 ff e0 	l.lwz r3,0xffffffe0(r2)
     fbc:	84 63 00 00 	l.lwz r3,0x0(r3)
     fc0:	d7 e2 1f dc 	l.sw 0xffffffdc(r2),r3
     fc4:	84 82 ff dc 	l.lwz r4,0xffffffdc(r2)
     fc8:	bc 24 00 00 	l.sfnei r4,0x0
     fcc:	10 00 00 1a 	l.bf 1034 <_interruptHandler+0x108>
     fd0:	15 00 00 00 	l.nop 0x0
     fd4:	18 60 00 00 	l.movhi r3,0x0
     fd8:	a8 63 f3 60 	l.ori r3,r3,0xf360
     fdc:	d7 e2 1f d8 	l.sw 0xffffffd8(r2),r3
     fe0:	18 80 00 00 	l.movhi r4,0x0
     fe4:	a8 84 e2 9c 	l.ori r4,r4,0xe29c
     fe8:	d7 e2 27 d0 	l.sw 0xffffffd0(r2),r4
     fec:	84 62 ff d0 	l.lwz r3,0xffffffd0(r2)
     ff0:	84 63 00 00 	l.lwz r3,0x0(r3)
     ff4:	d7 e2 1f d4 	l.sw 0xffffffd4(r2),r3
     ff8:	84 82 ff d4 	l.lwz r4,0xffffffd4(r2)
     ffc:	84 64 00 00 	l.lwz r3,0x0(r4)
    1000:	84 82 ff d8 	l.lwz r4,0xffffffd8(r2)
    1004:	d4 04 18 10 	l.sw 0x10(r4),r3
    1008:	18 80 00 00 	l.movhi r4,0x0
    100c:	a8 84 e2 94 	l.ori r4,r4,0xe294
    1010:	d7 e2 27 c8 	l.sw 0xffffffc8(r2),r4
    1014:	84 62 ff c8 	l.lwz r3,0xffffffc8(r2)
    1018:	84 63 00 00 	l.lwz r3,0x0(r3)
    101c:	d7 e2 1f cc 	l.sw 0xffffffcc(r2),r3
    1020:	9c 60 00 00 	l.addi r3,r0,0x0
    1024:	84 82 ff cc 	l.lwz r4,0xffffffcc(r2)
    1028:	d4 04 18 00 	l.sw 0x0(r4),r3
    102c:	00 00 00 f3 	l.j 13f8 <_interruptHandler+0x4cc>
    1030:	15 00 00 00 	l.nop 0x0
    1034:	18 80 00 00 	l.movhi r4,0x0
    1038:	a8 84 eb 34 	l.ori r4,r4,0xeb34
    103c:	d7 e2 27 c4 	l.sw 0xffffffc4(r2),r4
    1040:	84 62 ff c4 	l.lwz r3,0xffffffc4(r2)
    1044:	84 63 00 00 	l.lwz r3,0x0(r3)
    1048:	d7 e2 1f c0 	l.sw 0xffffffc0(r2),r3
    104c:	84 82 ff c0 	l.lwz r4,0xffffffc0(r2)
    1050:	bc 24 00 01 	l.sfnei r4,0x1
    1054:	10 00 00 34 	l.bf 1124 <_interruptHandler+0x1f8>
    1058:	15 00 00 00 	l.nop 0x0
    105c:	18 60 00 00 	l.movhi r3,0x0
    1060:	a8 63 f3 60 	l.ori r3,r3,0xf360
    1064:	d7 e2 1f bc 	l.sw 0xffffffbc(r2),r3
    1068:	18 80 00 00 	l.movhi r4,0x0
    106c:	a8 84 e2 9c 	l.ori r4,r4,0xe29c
    1070:	d7 e2 27 b4 	l.sw 0xffffffb4(r2),r4
    1074:	84 62 ff b4 	l.lwz r3,0xffffffb4(r2)
    1078:	84 63 00 00 	l.lwz r3,0x0(r3)
    107c:	d7 e2 1f b8 	l.sw 0xffffffb8(r2),r3
    1080:	84 82 ff b8 	l.lwz r4,0xffffffb8(r2)
    1084:	84 84 00 00 	l.lwz r4,0x0(r4)
    1088:	d7 e2 27 b0 	l.sw 0xffffffb0(r2),r4
    108c:	84 62 ff b0 	l.lwz r3,0xffffffb0(r2)
    1090:	9c 63 ff fd 	l.addi r3,r3,0xfffffffd
    1094:	d7 e2 1f ac 	l.sw 0xffffffac(r2),r3
    1098:	84 62 ff ac 	l.lwz r3,0xffffffac(r2)
    109c:	84 82 ff bc 	l.lwz r4,0xffffffbc(r2)
    10a0:	d4 04 18 00 	l.sw 0x0(r4),r3
    10a4:	18 80 00 00 	l.movhi r4,0x0
    10a8:	a8 84 f3 60 	l.ori r4,r4,0xf360
    10ac:	d7 e2 27 a8 	l.sw 0xffffffa8(r2),r4
    10b0:	18 60 00 00 	l.movhi r3,0x0
    10b4:	a8 63 f3 60 	l.ori r3,r3,0xf360
    10b8:	d7 e2 1f a4 	l.sw 0xffffffa4(r2),r3
    10bc:	84 82 ff a4 	l.lwz r4,0xffffffa4(r2)
    10c0:	84 84 00 00 	l.lwz r4,0x0(r4)
    10c4:	d7 e2 27 a0 	l.sw 0xffffffa0(r2),r4
    10c8:	84 62 ff a0 	l.lwz r3,0xffffffa0(r2)
    10cc:	d7 e2 1f 9c 	l.sw 0xffffff9c(r2),r3
    10d0:	84 82 ff 9c 	l.lwz r4,0xffffff9c(r2)
    10d4:	b8 84 00 02 	l.slli r4,r4,0x2
    10d8:	d7 e2 27 98 	l.sw 0xffffff98(r2),r4
    10dc:	84 62 ff 98 	l.lwz r3,0xffffff98(r2)
    10e0:	04 00 04 a2 	l.jal 2368 <_malloc>
    10e4:	15 00 00 00 	l.nop 0x0
    10e8:	d7 e2 5f 94 	l.sw 0xffffff94(r2),r11
    10ec:	84 82 ff 94 	l.lwz r4,0xffffff94(r2)
    10f0:	84 62 ff a8 	l.lwz r3,0xffffffa8(r2)
    10f4:	d4 03 20 14 	l.sw 0x14(r3),r4
    10f8:	18 60 00 00 	l.movhi r3,0x0
    10fc:	a8 63 e2 94 	l.ori r3,r3,0xe294
    1100:	d7 e2 1f 8c 	l.sw 0xffffff8c(r2),r3
    1104:	84 82 ff 8c 	l.lwz r4,0xffffff8c(r2)
    1108:	84 84 00 00 	l.lwz r4,0x0(r4)
    110c:	d7 e2 27 90 	l.sw 0xffffff90(r2),r4
    1110:	9c 80 00 00 	l.addi r4,r0,0x0
    1114:	84 62 ff 90 	l.lwz r3,0xffffff90(r2)
    1118:	d4 03 20 00 	l.sw 0x0(r3),r4
    111c:	00 00 00 b7 	l.j 13f8 <_interruptHandler+0x4cc>
    1120:	15 00 00 00 	l.nop 0x0
    1124:	18 60 00 00 	l.movhi r3,0x0
    1128:	a8 63 f3 60 	l.ori r3,r3,0xf360
    112c:	d7 e2 1f 88 	l.sw 0xffffff88(r2),r3
    1130:	84 82 ff 88 	l.lwz r4,0xffffff88(r2)
    1134:	84 84 00 00 	l.lwz r4,0x0(r4)
    1138:	d7 e2 27 80 	l.sw 0xffffff80(r2),r4
    113c:	84 62 ff 80 	l.lwz r3,0xffffff80(r2)
    1140:	9c 63 00 02 	l.addi r3,r3,0x2
    1144:	d7 e2 1f 84 	l.sw 0xffffff84(r2),r3
    1148:	18 80 00 00 	l.movhi r4,0x0
    114c:	a8 84 eb 34 	l.ori r4,r4,0xeb34
    1150:	d7 e2 27 7c 	l.sw 0xffffff7c(r2),r4
    1154:	84 62 ff 7c 	l.lwz r3,0xffffff7c(r2)
    1158:	84 63 00 00 	l.lwz r3,0x0(r3)
    115c:	d7 e2 1f 78 	l.sw 0xffffff78(r2),r3
    1160:	84 82 ff 84 	l.lwz r4,0xffffff84(r2)
    1164:	84 62 ff 78 	l.lwz r3,0xffffff78(r2)
    1168:	e4 24 18 00 	l.sfne r4,r3
    116c:	10 00 00 1a 	l.bf 11d4 <_interruptHandler+0x2a8>
    1170:	15 00 00 00 	l.nop 0x0
    1174:	18 80 00 00 	l.movhi r4,0x0
    1178:	a8 84 f3 60 	l.ori r4,r4,0xf360
    117c:	d7 e2 27 74 	l.sw 0xffffff74(r2),r4
    1180:	18 60 00 00 	l.movhi r3,0x0
    1184:	a8 63 e2 9c 	l.ori r3,r3,0xe29c
    1188:	d7 e2 1f 6c 	l.sw 0xffffff6c(r2),r3
    118c:	84 82 ff 6c 	l.lwz r4,0xffffff6c(r2)
    1190:	84 84 00 00 	l.lwz r4,0x0(r4)
    1194:	d7 e2 27 70 	l.sw 0xffffff70(r2),r4
    1198:	84 62 ff 70 	l.lwz r3,0xffffff70(r2)
    119c:	84 83 00 00 	l.lwz r4,0x0(r3)
    11a0:	84 62 ff 74 	l.lwz r3,0xffffff74(r2)
    11a4:	d4 03 20 04 	l.sw 0x4(r3),r4
    11a8:	18 60 00 00 	l.movhi r3,0x0
    11ac:	a8 63 e2 94 	l.ori r3,r3,0xe294
    11b0:	d7 e2 1f 64 	l.sw 0xffffff64(r2),r3
    11b4:	84 82 ff 64 	l.lwz r4,0xffffff64(r2)
    11b8:	84 84 00 00 	l.lwz r4,0x0(r4)
    11bc:	d7 e2 27 68 	l.sw 0xffffff68(r2),r4
    11c0:	9c 80 00 00 	l.addi r4,r0,0x0
    11c4:	84 62 ff 68 	l.lwz r3,0xffffff68(r2)
    11c8:	d4 03 20 00 	l.sw 0x0(r3),r4
    11cc:	00 00 00 8b 	l.j 13f8 <_interruptHandler+0x4cc>
    11d0:	15 00 00 00 	l.nop 0x0
    11d4:	18 60 00 00 	l.movhi r3,0x0
    11d8:	a8 63 f3 60 	l.ori r3,r3,0xf360
    11dc:	d7 e2 1f 60 	l.sw 0xffffff60(r2),r3
    11e0:	84 82 ff 60 	l.lwz r4,0xffffff60(r2)
    11e4:	84 84 00 00 	l.lwz r4,0x0(r4)
    11e8:	d7 e2 27 58 	l.sw 0xffffff58(r2),r4
    11ec:	84 62 ff 58 	l.lwz r3,0xffffff58(r2)
    11f0:	9c 63 00 03 	l.addi r3,r3,0x3
    11f4:	d7 e2 1f 5c 	l.sw 0xffffff5c(r2),r3
    11f8:	18 80 00 00 	l.movhi r4,0x0
    11fc:	a8 84 eb 34 	l.ori r4,r4,0xeb34
    1200:	d7 e2 27 54 	l.sw 0xffffff54(r2),r4
    1204:	84 62 ff 54 	l.lwz r3,0xffffff54(r2)
    1208:	84 63 00 00 	l.lwz r3,0x0(r3)
    120c:	d7 e2 1f 50 	l.sw 0xffffff50(r2),r3
    1210:	84 82 ff 5c 	l.lwz r4,0xffffff5c(r2)
    1214:	84 62 ff 50 	l.lwz r3,0xffffff50(r2)
    1218:	e4 24 18 00 	l.sfne r4,r3
    121c:	10 00 00 1a 	l.bf 1284 <_interruptHandler+0x358>
    1220:	15 00 00 00 	l.nop 0x0
    1224:	18 80 00 00 	l.movhi r4,0x0
    1228:	a8 84 f3 60 	l.ori r4,r4,0xf360
    122c:	d7 e2 27 4c 	l.sw 0xffffff4c(r2),r4
    1230:	18 60 00 00 	l.movhi r3,0x0
    1234:	a8 63 e2 9c 	l.ori r3,r3,0xe29c
    1238:	d7 e2 1f 44 	l.sw 0xffffff44(r2),r3
    123c:	84 82 ff 44 	l.lwz r4,0xffffff44(r2)
    1240:	84 84 00 00 	l.lwz r4,0x0(r4)
    1244:	d7 e2 27 48 	l.sw 0xffffff48(r2),r4
    1248:	84 62 ff 48 	l.lwz r3,0xffffff48(r2)
    124c:	84 83 00 00 	l.lwz r4,0x0(r3)
    1250:	84 62 ff 4c 	l.lwz r3,0xffffff4c(r2)
    1254:	d4 03 20 08 	l.sw 0x8(r3),r4
    1258:	18 60 00 00 	l.movhi r3,0x0
    125c:	a8 63 e2 94 	l.ori r3,r3,0xe294
    1260:	d7 e2 1f 3c 	l.sw 0xffffff3c(r2),r3
    1264:	84 82 ff 3c 	l.lwz r4,0xffffff3c(r2)
    1268:	84 84 00 00 	l.lwz r4,0x0(r4)
    126c:	d7 e2 27 40 	l.sw 0xffffff40(r2),r4
    1270:	9c 80 00 00 	l.addi r4,r0,0x0
    1274:	84 62 ff 40 	l.lwz r3,0xffffff40(r2)
    1278:	d4 03 20 00 	l.sw 0x0(r3),r4
    127c:	00 00 00 5f 	l.j 13f8 <_interruptHandler+0x4cc>
    1280:	15 00 00 00 	l.nop 0x0
    1284:	18 60 00 00 	l.movhi r3,0x0
    1288:	a8 63 f3 60 	l.ori r3,r3,0xf360
    128c:	d7 e2 1f 38 	l.sw 0xffffff38(r2),r3
    1290:	84 82 ff 38 	l.lwz r4,0xffffff38(r2)
    1294:	84 84 00 00 	l.lwz r4,0x0(r4)
    1298:	d7 e2 27 30 	l.sw 0xffffff30(r2),r4
    129c:	84 62 ff 30 	l.lwz r3,0xffffff30(r2)
    12a0:	9c 63 00 04 	l.addi r3,r3,0x4
    12a4:	d7 e2 1f 34 	l.sw 0xffffff34(r2),r3
    12a8:	18 80 00 00 	l.movhi r4,0x0
    12ac:	a8 84 eb 34 	l.ori r4,r4,0xeb34
    12b0:	d7 e2 27 2c 	l.sw 0xffffff2c(r2),r4
    12b4:	84 62 ff 2c 	l.lwz r3,0xffffff2c(r2)
    12b8:	84 63 00 00 	l.lwz r3,0x0(r3)
    12bc:	d7 e2 1f 28 	l.sw 0xffffff28(r2),r3
    12c0:	84 82 ff 34 	l.lwz r4,0xffffff34(r2)
    12c4:	84 62 ff 28 	l.lwz r3,0xffffff28(r2)
    12c8:	e4 24 18 00 	l.sfne r4,r3
    12cc:	10 00 00 20 	l.bf 134c <_interruptHandler+0x420>
    12d0:	15 00 00 00 	l.nop 0x0
    12d4:	18 80 00 00 	l.movhi r4,0x0
    12d8:	a8 84 f3 60 	l.ori r4,r4,0xf360
    12dc:	d7 e2 27 24 	l.sw 0xffffff24(r2),r4
    12e0:	18 60 00 00 	l.movhi r3,0x0
    12e4:	a8 63 e2 9c 	l.ori r3,r3,0xe29c
    12e8:	d7 e2 1f 1c 	l.sw 0xffffff1c(r2),r3
    12ec:	84 82 ff 1c 	l.lwz r4,0xffffff1c(r2)
    12f0:	84 84 00 00 	l.lwz r4,0x0(r4)
    12f4:	d7 e2 27 20 	l.sw 0xffffff20(r2),r4
    12f8:	84 62 ff 20 	l.lwz r3,0xffffff20(r2)
    12fc:	84 83 00 00 	l.lwz r4,0x0(r3)
    1300:	84 62 ff 24 	l.lwz r3,0xffffff24(r2)
    1304:	d4 03 20 0c 	l.sw 0xc(r3),r4
    1308:	18 60 00 00 	l.movhi r3,0x0
    130c:	a8 63 eb 30 	l.ori r3,r3,0xeb30
    1310:	d7 e2 1f 18 	l.sw 0xffffff18(r2),r3
    1314:	9c 60 00 01 	l.addi r3,r0,0x1
    1318:	84 82 ff 18 	l.lwz r4,0xffffff18(r2)
    131c:	d4 04 18 00 	l.sw 0x0(r4),r3
    1320:	18 80 00 00 	l.movhi r4,0x0
    1324:	a8 84 e2 94 	l.ori r4,r4,0xe294
    1328:	d7 e2 27 10 	l.sw 0xffffff10(r2),r4
    132c:	84 62 ff 10 	l.lwz r3,0xffffff10(r2)
    1330:	84 63 00 00 	l.lwz r3,0x0(r3)
    1334:	d7 e2 1f 14 	l.sw 0xffffff14(r2),r3
    1338:	9c 60 00 01 	l.addi r3,r0,0x1
    133c:	84 82 ff 14 	l.lwz r4,0xffffff14(r2)
    1340:	d4 04 18 00 	l.sw 0x0(r4),r3
    1344:	00 00 00 3e 	l.j 143c <_interruptHandler+0x510>
    1348:	15 00 00 00 	l.nop 0x0
    134c:	18 80 00 00 	l.movhi r4,0x0
    1350:	a8 84 f3 60 	l.ori r4,r4,0xf360
    1354:	d7 e2 27 0c 	l.sw 0xffffff0c(r2),r4
    1358:	18 60 00 00 	l.movhi r3,0x0
    135c:	a8 63 eb 34 	l.ori r3,r3,0xeb34
    1360:	d7 e2 1f 04 	l.sw 0xffffff04(r2),r3
    1364:	84 82 ff 04 	l.lwz r4,0xffffff04(r2)
    1368:	84 84 00 00 	l.lwz r4,0x0(r4)
    136c:	d7 e2 27 08 	l.sw 0xffffff08(r2),r4
    1370:	84 62 ff 08 	l.lwz r3,0xffffff08(r2)
    1374:	d7 e2 1f 00 	l.sw 0xffffff00(r2),r3
    1378:	84 82 ff 00 	l.lwz r4,0xffffff00(r2)
    137c:	b8 84 00 02 	l.slli r4,r4,0x2
    1380:	d7 e2 26 fc 	l.sw 0xfffffefc(r2),r4
    1384:	84 62 ff 0c 	l.lwz r3,0xffffff0c(r2)
    1388:	84 63 00 14 	l.lwz r3,0x14(r3)
    138c:	d7 e2 1e f4 	l.sw 0xfffffef4(r2),r3
    1390:	84 82 fe fc 	l.lwz r4,0xfffffefc(r2)
    1394:	84 62 fe f4 	l.lwz r3,0xfffffef4(r2)
    1398:	e0 84 18 00 	l.add r4,r4,r3
    139c:	d7 e2 26 f8 	l.sw 0xfffffef8(r2),r4
    13a0:	84 82 fe f8 	l.lwz r4,0xfffffef8(r2)
    13a4:	9c 84 ff f8 	l.addi r4,r4,0xfffffff8
    13a8:	d7 e2 26 f0 	l.sw 0xfffffef0(r2),r4
    13ac:	18 60 00 00 	l.movhi r3,0x0
    13b0:	a8 63 e2 9c 	l.ori r3,r3,0xe29c
    13b4:	d7 e2 1e e8 	l.sw 0xfffffee8(r2),r3
    13b8:	84 82 fe e8 	l.lwz r4,0xfffffee8(r2)
    13bc:	84 84 00 00 	l.lwz r4,0x0(r4)
    13c0:	d7 e2 26 ec 	l.sw 0xfffffeec(r2),r4
    13c4:	84 62 fe ec 	l.lwz r3,0xfffffeec(r2)
    13c8:	84 83 00 00 	l.lwz r4,0x0(r3)
    13cc:	84 62 fe f0 	l.lwz r3,0xfffffef0(r2)
    13d0:	d4 03 20 00 	l.sw 0x0(r3),r4
    13d4:	18 60 00 00 	l.movhi r3,0x0
    13d8:	a8 63 e2 94 	l.ori r3,r3,0xe294
    13dc:	d7 e2 1e e0 	l.sw 0xfffffee0(r2),r3
    13e0:	84 82 fe e0 	l.lwz r4,0xfffffee0(r2)
    13e4:	84 84 00 00 	l.lwz r4,0x0(r4)
    13e8:	d7 e2 26 e4 	l.sw 0xfffffee4(r2),r4
    13ec:	9c 80 00 00 	l.addi r4,r0,0x0
    13f0:	84 62 fe e4 	l.lwz r3,0xfffffee4(r2)
    13f4:	d4 03 20 00 	l.sw 0x0(r3),r4
    13f8:	18 60 00 00 	l.movhi r3,0x0
    13fc:	a8 63 eb 34 	l.ori r3,r3,0xeb34
    1400:	d7 e2 1e dc 	l.sw 0xfffffedc(r2),r3
    1404:	18 80 00 00 	l.movhi r4,0x0
    1408:	a8 84 eb 34 	l.ori r4,r4,0xeb34
    140c:	d7 e2 26 d8 	l.sw 0xfffffed8(r2),r4
    1410:	84 62 fe d8 	l.lwz r3,0xfffffed8(r2)
    1414:	84 63 00 00 	l.lwz r3,0x0(r3)
    1418:	d7 e2 1e d4 	l.sw 0xfffffed4(r2),r3
    141c:	84 82 fe d4 	l.lwz r4,0xfffffed4(r2)
    1420:	9c 84 00 01 	l.addi r4,r4,0x1
    1424:	d7 e2 26 d0 	l.sw 0xfffffed0(r2),r4
    1428:	84 82 fe d0 	l.lwz r4,0xfffffed0(r2)
    142c:	84 62 fe dc 	l.lwz r3,0xfffffedc(r2)
    1430:	d4 03 20 00 	l.sw 0x0(r3),r4
    1434:	03 ff fe c4 	l.j f44 <_interruptHandler+0x18>
    1438:	15 00 00 00 	l.nop 0x0
    143c:	85 21 00 00 	l.lwz r9,0x0(r1)
    1440:	84 41 00 04 	l.lwz r2,0x4(r1)
    1444:	44 00 48 00 	l.jr r9
    1448:	9c 21 01 38 	l.addi r1,r1,0x138

0000144c <_sendPckt>:
    144c:	9c 21 ff 48 	l.addi r1,r1,0xffffff48
    1450:	d4 01 10 04 	l.sw 0x4(r1),r2
    1454:	9c 41 00 b8 	l.addi r2,r1,0xb8
    1458:	d4 01 48 00 	l.sw 0x0(r1),r9
    145c:	d7 e2 1f f4 	l.sw 0xfffffff4(r2),r3
    1460:	18 60 80 00 	l.movhi r3,0x8000
    1464:	a8 63 00 08 	l.ori r3,r3,0x8
    1468:	d7 e2 1f fc 	l.sw 0xfffffffc(r2),r3
    146c:	18 80 80 00 	l.movhi r4,0x8000
    1470:	a8 84 00 0c 	l.ori r4,r4,0xc
    1474:	d7 e2 27 f8 	l.sw 0xfffffff8(r2),r4
    1478:	18 60 00 00 	l.movhi r3,0x0
    147c:	a8 63 eb 38 	l.ori r3,r3,0xeb38
    1480:	d7 e2 1f f0 	l.sw 0xfffffff0(r2),r3
    1484:	9c 60 00 00 	l.addi r3,r0,0x0
    1488:	84 82 ff f0 	l.lwz r4,0xfffffff0(r2)
    148c:	d4 04 18 00 	l.sw 0x0(r4),r3
    1490:	18 80 00 00 	l.movhi r4,0x0
    1494:	a8 84 eb 48 	l.ori r4,r4,0xeb48
    1498:	d7 e2 27 ec 	l.sw 0xffffffec(r2),r4
    149c:	04 00 03 cd 	l.jal 23d0 <_clock>
    14a0:	15 00 00 00 	l.nop 0x0
    14a4:	84 62 ff ec 	l.lwz r3,0xffffffec(r2)
    14a8:	d4 03 58 00 	l.sw 0x0(r3),r11
    14ac:	18 80 00 00 	l.movhi r4,0x0
    14b0:	a8 84 eb 48 	l.ori r4,r4,0xeb48
    14b4:	d7 e2 27 e8 	l.sw 0xffffffe8(r2),r4
    14b8:	18 60 00 00 	l.movhi r3,0x0
    14bc:	a8 63 eb 48 	l.ori r3,r3,0xeb48
    14c0:	d7 e2 1f e4 	l.sw 0xffffffe4(r2),r3
    14c4:	18 80 00 00 	l.movhi r4,0x0
    14c8:	a8 84 ef 50 	l.ori r4,r4,0xef50
    14cc:	d7 e2 27 e0 	l.sw 0xffffffe0(r2),r4
    14d0:	84 62 ff e4 	l.lwz r3,0xffffffe4(r2)
    14d4:	84 63 00 00 	l.lwz r3,0x0(r3)
    14d8:	d7 e2 1f dc 	l.sw 0xffffffdc(r2),r3
    14dc:	84 82 ff e0 	l.lwz r4,0xffffffe0(r2)
    14e0:	84 84 00 00 	l.lwz r4,0x0(r4)
    14e4:	d7 e2 27 d8 	l.sw 0xffffffd8(r2),r4
    14e8:	84 62 ff dc 	l.lwz r3,0xffffffdc(r2)
    14ec:	84 82 ff d8 	l.lwz r4,0xffffffd8(r2)
    14f0:	e0 63 20 02 	l.sub r3,r3,r4
    14f4:	d7 e2 1f d4 	l.sw 0xffffffd4(r2),r3
    14f8:	84 82 ff d4 	l.lwz r4,0xffffffd4(r2)
    14fc:	84 62 ff e8 	l.lwz r3,0xffffffe8(r2)
    1500:	d4 03 20 00 	l.sw 0x0(r3),r4
    1504:	84 62 ff f4 	l.lwz r3,0xfffffff4(r2)
    1508:	84 63 00 14 	l.lwz r3,0x14(r3)
    150c:	d7 e2 1f d0 	l.sw 0xffffffd0(r2),r3
    1510:	18 80 00 00 	l.movhi r4,0x0
    1514:	a8 84 eb 48 	l.ori r4,r4,0xeb48
    1518:	d7 e2 27 cc 	l.sw 0xffffffcc(r2),r4
    151c:	84 62 ff cc 	l.lwz r3,0xffffffcc(r2)
    1520:	84 83 00 00 	l.lwz r4,0x0(r3)
    1524:	84 62 ff d0 	l.lwz r3,0xffffffd0(r2)
    1528:	d4 03 20 00 	l.sw 0x0(r3),r4
    152c:	84 62 ff f4 	l.lwz r3,0xfffffff4(r2)
    1530:	84 63 00 00 	l.lwz r3,0x0(r3)
    1534:	d7 e2 1f c4 	l.sw 0xffffffc4(r2),r3
    1538:	84 82 ff c4 	l.lwz r4,0xffffffc4(r2)
    153c:	9c 84 00 05 	l.addi r4,r4,0x5
    1540:	d7 e2 27 c8 	l.sw 0xffffffc8(r2),r4
    1544:	18 60 00 00 	l.movhi r3,0x0
    1548:	a8 63 eb 38 	l.ori r3,r3,0xeb38
    154c:	d7 e2 1f c0 	l.sw 0xffffffc0(r2),r3
    1550:	84 82 ff c0 	l.lwz r4,0xffffffc0(r2)
    1554:	84 84 00 00 	l.lwz r4,0x0(r4)
    1558:	d7 e2 27 bc 	l.sw 0xffffffbc(r2),r4
    155c:	84 62 ff c8 	l.lwz r3,0xffffffc8(r2)
    1560:	84 82 ff bc 	l.lwz r4,0xffffffbc(r2)
    1564:	e4 a3 20 00 	l.sfleu r3,r4
    1568:	10 00 00 7a 	l.bf 1750 <_sendPckt+0x304>
    156c:	15 00 00 00 	l.nop 0x0
    1570:	84 62 ff f8 	l.lwz r3,0xfffffff8(r2)
    1574:	d7 e2 1f b8 	l.sw 0xffffffb8(r2),r3
    1578:	84 82 ff b8 	l.lwz r4,0xffffffb8(r2)
    157c:	84 84 00 00 	l.lwz r4,0x0(r4)
    1580:	d7 e2 27 b4 	l.sw 0xffffffb4(r2),r4
    1584:	84 62 ff b4 	l.lwz r3,0xffffffb4(r2)
    1588:	bc 03 00 00 	l.sfeqi r3,0x0
    158c:	10 00 00 04 	l.bf 159c <_sendPckt+0x150>
    1590:	15 00 00 00 	l.nop 0x0
    1594:	03 ff ff f7 	l.j 1570 <_sendPckt+0x124>
    1598:	15 00 00 00 	l.nop 0x0
    159c:	18 80 00 00 	l.movhi r4,0x0
    15a0:	a8 84 eb 38 	l.ori r4,r4,0xeb38
    15a4:	d7 e2 27 b0 	l.sw 0xffffffb0(r2),r4
    15a8:	84 62 ff b0 	l.lwz r3,0xffffffb0(r2)
    15ac:	84 63 00 00 	l.lwz r3,0x0(r3)
    15b0:	d7 e2 1f ac 	l.sw 0xffffffac(r2),r3
    15b4:	84 82 ff ac 	l.lwz r4,0xffffffac(r2)
    15b8:	bc 24 00 00 	l.sfnei r4,0x0
    15bc:	10 00 00 0a 	l.bf 15e4 <_sendPckt+0x198>
    15c0:	15 00 00 00 	l.nop 0x0
    15c4:	84 62 ff fc 	l.lwz r3,0xfffffffc(r2)
    15c8:	d7 e2 1f a8 	l.sw 0xffffffa8(r2),r3
    15cc:	84 82 ff f4 	l.lwz r4,0xfffffff4(r2)
    15d0:	84 64 00 10 	l.lwz r3,0x10(r4)
    15d4:	84 82 ff a8 	l.lwz r4,0xffffffa8(r2)
    15d8:	d4 04 18 00 	l.sw 0x0(r4),r3
    15dc:	00 00 00 4c 	l.j 170c <_sendPckt+0x2c0>
    15e0:	15 00 00 00 	l.nop 0x0
    15e4:	18 80 00 00 	l.movhi r4,0x0
    15e8:	a8 84 eb 38 	l.ori r4,r4,0xeb38
    15ec:	d7 e2 27 a4 	l.sw 0xffffffa4(r2),r4
    15f0:	84 62 ff a4 	l.lwz r3,0xffffffa4(r2)
    15f4:	84 63 00 00 	l.lwz r3,0x0(r3)
    15f8:	d7 e2 1f a0 	l.sw 0xffffffa0(r2),r3
    15fc:	84 82 ff a0 	l.lwz r4,0xffffffa0(r2)
    1600:	bc 24 00 01 	l.sfnei r4,0x1
    1604:	10 00 00 0f 	l.bf 1640 <_sendPckt+0x1f4>
    1608:	15 00 00 00 	l.nop 0x0
    160c:	84 62 ff fc 	l.lwz r3,0xfffffffc(r2)
    1610:	d7 e2 1f 9c 	l.sw 0xffffff9c(r2),r3
    1614:	84 82 ff f4 	l.lwz r4,0xfffffff4(r2)
    1618:	84 84 00 00 	l.lwz r4,0x0(r4)
    161c:	d7 e2 27 98 	l.sw 0xffffff98(r2),r4
    1620:	84 62 ff 98 	l.lwz r3,0xffffff98(r2)
    1624:	9c 63 00 03 	l.addi r3,r3,0x3
    1628:	d7 e2 1f 94 	l.sw 0xffffff94(r2),r3
    162c:	84 62 ff 94 	l.lwz r3,0xffffff94(r2)
    1630:	84 82 ff 9c 	l.lwz r4,0xffffff9c(r2)
    1634:	d4 04 18 00 	l.sw 0x0(r4),r3
    1638:	00 00 00 35 	l.j 170c <_sendPckt+0x2c0>
    163c:	15 00 00 00 	l.nop 0x0
    1640:	84 82 ff f4 	l.lwz r4,0xfffffff4(r2)
    1644:	84 84 00 00 	l.lwz r4,0x0(r4)
    1648:	d7 e2 27 8c 	l.sw 0xffffff8c(r2),r4
    164c:	84 62 ff 8c 	l.lwz r3,0xffffff8c(r2)
    1650:	9c 63 00 02 	l.addi r3,r3,0x2
    1654:	d7 e2 1f 90 	l.sw 0xffffff90(r2),r3
    1658:	18 80 00 00 	l.movhi r4,0x0
    165c:	a8 84 eb 38 	l.ori r4,r4,0xeb38
    1660:	d7 e2 27 88 	l.sw 0xffffff88(r2),r4
    1664:	84 62 ff 88 	l.lwz r3,0xffffff88(r2)
    1668:	84 63 00 00 	l.lwz r3,0x0(r3)
    166c:	d7 e2 1f 84 	l.sw 0xffffff84(r2),r3
    1670:	84 82 ff 90 	l.lwz r4,0xffffff90(r2)
    1674:	84 62 ff 84 	l.lwz r3,0xffffff84(r2)
    1678:	e4 44 18 00 	l.sfgtu r4,r3
    167c:	10 00 00 09 	l.bf 16a0 <_sendPckt+0x254>
    1680:	15 00 00 00 	l.nop 0x0
    1684:	84 82 ff fc 	l.lwz r4,0xfffffffc(r2)
    1688:	d7 e2 27 80 	l.sw 0xffffff80(r2),r4
    168c:	9c 80 00 00 	l.addi r4,r0,0x0
    1690:	84 62 ff 80 	l.lwz r3,0xffffff80(r2)
    1694:	d4 03 20 00 	l.sw 0x0(r3),r4
    1698:	00 00 00 1d 	l.j 170c <_sendPckt+0x2c0>
    169c:	15 00 00 00 	l.nop 0x0
    16a0:	84 62 ff fc 	l.lwz r3,0xfffffffc(r2)
    16a4:	d7 e2 1f 7c 	l.sw 0xffffff7c(r2),r3
    16a8:	18 80 00 00 	l.movhi r4,0x0
    16ac:	a8 84 eb 38 	l.ori r4,r4,0xeb38
    16b0:	d7 e2 27 74 	l.sw 0xffffff74(r2),r4
    16b4:	84 62 ff 74 	l.lwz r3,0xffffff74(r2)
    16b8:	84 63 00 00 	l.lwz r3,0x0(r3)
    16bc:	d7 e2 1f 78 	l.sw 0xffffff78(r2),r3
    16c0:	84 82 ff 78 	l.lwz r4,0xffffff78(r2)
    16c4:	d7 e2 27 70 	l.sw 0xffffff70(r2),r4
    16c8:	84 62 ff 70 	l.lwz r3,0xffffff70(r2)
    16cc:	b8 63 00 02 	l.slli r3,r3,0x2
    16d0:	d7 e2 1f 6c 	l.sw 0xffffff6c(r2),r3
    16d4:	84 82 ff f4 	l.lwz r4,0xfffffff4(r2)
    16d8:	84 84 00 14 	l.lwz r4,0x14(r4)
    16dc:	d7 e2 27 64 	l.sw 0xffffff64(r2),r4
    16e0:	84 62 ff 6c 	l.lwz r3,0xffffff6c(r2)
    16e4:	84 82 ff 64 	l.lwz r4,0xffffff64(r2)
    16e8:	e0 63 20 00 	l.add r3,r3,r4
    16ec:	d7 e2 1f 68 	l.sw 0xffffff68(r2),r3
    16f0:	84 62 ff 68 	l.lwz r3,0xffffff68(r2)
    16f4:	9c 63 ff f8 	l.addi r3,r3,0xfffffff8
    16f8:	d7 e2 1f 60 	l.sw 0xffffff60(r2),r3
    16fc:	84 82 ff 60 	l.lwz r4,0xffffff60(r2)
    1700:	84 64 00 00 	l.lwz r3,0x0(r4)
    1704:	84 82 ff 7c 	l.lwz r4,0xffffff7c(r2)
    1708:	d4 04 18 00 	l.sw 0x0(r4),r3
    170c:	18 80 00 00 	l.movhi r4,0x0
    1710:	a8 84 eb 38 	l.ori r4,r4,0xeb38
    1714:	d7 e2 27 5c 	l.sw 0xffffff5c(r2),r4
    1718:	18 60 00 00 	l.movhi r3,0x0
    171c:	a8 63 eb 38 	l.ori r3,r3,0xeb38
    1720:	d7 e2 1f 58 	l.sw 0xffffff58(r2),r3
    1724:	84 82 ff 58 	l.lwz r4,0xffffff58(r2)
    1728:	84 84 00 00 	l.lwz r4,0x0(r4)
    172c:	d7 e2 27 54 	l.sw 0xffffff54(r2),r4
    1730:	84 62 ff 54 	l.lwz r3,0xffffff54(r2)
    1734:	9c 63 00 01 	l.addi r3,r3,0x1
    1738:	d7 e2 1f 50 	l.sw 0xffffff50(r2),r3
    173c:	84 62 ff 50 	l.lwz r3,0xffffff50(r2)
    1740:	84 82 ff 5c 	l.lwz r4,0xffffff5c(r2)
    1744:	d4 04 18 00 	l.sw 0x0(r4),r3
    1748:	03 ff ff 79 	l.j 152c <_sendPckt+0xe0>
    174c:	15 00 00 00 	l.nop 0x0
    1750:	85 21 00 00 	l.lwz r9,0x0(r1)
    1754:	84 41 00 04 	l.lwz r2,0x4(r1)
    1758:	44 00 48 00 	l.jr r9
    175c:	9c 21 00 b8 	l.addi r1,r1,0xb8

00001760 <_receivePckt>:
    1760:	9c 21 ff e8 	l.addi r1,r1,0xffffffe8
    1764:	d4 01 10 00 	l.sw 0x0(r1),r2
    1768:	9c 41 00 18 	l.addi r2,r1,0x18
    176c:	18 60 00 00 	l.movhi r3,0x0
    1770:	a8 63 eb 30 	l.ori r3,r3,0xeb30
    1774:	d7 e2 1f fc 	l.sw 0xfffffffc(r2),r3
    1778:	84 62 ff fc 	l.lwz r3,0xfffffffc(r2)
    177c:	84 63 00 00 	l.lwz r3,0x0(r3)
    1780:	d7 e2 1f f8 	l.sw 0xfffffff8(r2),r3
    1784:	84 62 ff f8 	l.lwz r3,0xfffffff8(r2)
    1788:	bc 03 00 01 	l.sfeqi r3,0x1
    178c:	10 00 00 0c 	l.bf 17bc <_receivePckt+0x5c>
    1790:	15 00 00 00 	l.nop 0x0
    1794:	18 60 00 00 	l.movhi r3,0x0
    1798:	a8 63 e2 94 	l.ori r3,r3,0xe294
    179c:	d7 e2 1f f0 	l.sw 0xfffffff0(r2),r3
    17a0:	84 62 ff f0 	l.lwz r3,0xfffffff0(r2)
    17a4:	84 63 00 00 	l.lwz r3,0x0(r3)
    17a8:	d7 e2 1f f4 	l.sw 0xfffffff4(r2),r3
    17ac:	84 62 ff f4 	l.lwz r3,0xfffffff4(r2)
    17b0:	84 63 00 00 	l.lwz r3,0x0(r3)
    17b4:	03 ff ff ee 	l.j 176c <_receivePckt+0xc>
    17b8:	15 00 00 00 	l.nop 0x0
    17bc:	84 41 00 00 	l.lwz r2,0x0(r1)
    17c0:	44 00 48 00 	l.jr r9
    17c4:	9c 21 00 18 	l.addi r1,r1,0x18

000017c8 <_packetConsumed>:
    17c8:	9c 21 ff e4 	l.addi r1,r1,0xffffffe4
    17cc:	d4 01 10 04 	l.sw 0x4(r1),r2
    17d0:	9c 41 00 1c 	l.addi r2,r1,0x1c
    17d4:	d4 01 48 00 	l.sw 0x0(r1),r9
    17d8:	18 60 00 00 	l.movhi r3,0x0
    17dc:	a8 63 eb 34 	l.ori r3,r3,0xeb34
    17e0:	d7 e2 1f fc 	l.sw 0xfffffffc(r2),r3
    17e4:	9c 60 00 00 	l.addi r3,r0,0x0
    17e8:	84 82 ff fc 	l.lwz r4,0xfffffffc(r2)
    17ec:	d4 04 18 00 	l.sw 0x0(r4),r3
    17f0:	18 80 00 00 	l.movhi r4,0x0
    17f4:	a8 84 eb 30 	l.ori r4,r4,0xeb30
    17f8:	d7 e2 27 f8 	l.sw 0xfffffff8(r2),r4
    17fc:	9c 80 00 00 	l.addi r4,r0,0x0
    1800:	84 62 ff f8 	l.lwz r3,0xfffffff8(r2)
    1804:	d4 03 20 00 	l.sw 0x0(r3),r4
    1808:	18 60 00 00 	l.movhi r3,0x0
    180c:	a8 63 f3 60 	l.ori r3,r3,0xf360
    1810:	d7 e2 1f f4 	l.sw 0xfffffff4(r2),r3
    1814:	84 82 ff f4 	l.lwz r4,0xfffffff4(r2)
    1818:	84 64 00 14 	l.lwz r3,0x14(r4)
    181c:	04 00 02 e0 	l.jal 239c <_free>
    1820:	15 00 00 00 	l.nop 0x0
    1824:	18 60 00 00 	l.movhi r3,0x0
    1828:	a8 63 e2 94 	l.ori r3,r3,0xe294
    182c:	d7 e2 1f ec 	l.sw 0xffffffec(r2),r3
    1830:	84 82 ff ec 	l.lwz r4,0xffffffec(r2)
    1834:	84 84 00 00 	l.lwz r4,0x0(r4)
    1838:	d7 e2 27 f0 	l.sw 0xfffffff0(r2),r4
    183c:	9c 80 00 00 	l.addi r4,r0,0x0
    1840:	84 62 ff f0 	l.lwz r3,0xfffffff0(r2)
    1844:	d4 03 20 00 	l.sw 0x0(r3),r4
    1848:	85 21 00 00 	l.lwz r9,0x0(r1)
    184c:	84 41 00 04 	l.lwz r2,0x4(r1)
    1850:	44 00 48 00 	l.jr r9
    1854:	9c 21 00 1c 	l.addi r1,r1,0x1c

00001858 <_main>:
    1858:	9c 21 ff 1c 	l.addi r1,r1,0xffffff1c
    185c:	d4 01 10 0c 	l.sw 0xc(r1),r2
    1860:	9c 41 00 e4 	l.addi r2,r1,0xe4
    1864:	d4 01 48 08 	l.sw 0x8(r1),r9
    1868:	d7 e2 1f fc 	l.sw 0xfffffffc(r2),r3
    186c:	d7 e2 27 f8 	l.sw 0xfffffff8(r2),r4
    1870:	18 60 80 00 	l.movhi r3,0x8000
    1874:	a8 63 00 00 	l.ori r3,r3,0x0
    1878:	d7 e2 1f f4 	l.sw 0xfffffff4(r2),r3
    187c:	18 80 80 00 	l.movhi r4,0x8000
    1880:	a8 84 00 18 	l.ori r4,r4,0x18
    1884:	d7 e2 27 f0 	l.sw 0xfffffff0(r2),r4
    1888:	18 60 80 00 	l.movhi r3,0x8000
    188c:	a8 63 00 14 	l.ori r3,r3,0x14
    1890:	d7 e2 1f ec 	l.sw 0xffffffec(r2),r3
    1894:	18 80 80 00 	l.movhi r4,0x8000
    1898:	a8 84 00 04 	l.ori r4,r4,0x4
    189c:	d7 e2 27 e8 	l.sw 0xffffffe8(r2),r4
    18a0:	18 60 80 00 	l.movhi r3,0x8000
    18a4:	a8 63 00 08 	l.ori r3,r3,0x8
    18a8:	d7 e2 1f e4 	l.sw 0xffffffe4(r2),r3
    18ac:	18 80 00 00 	l.movhi r4,0x0
    18b0:	a8 84 dd d0 	l.ori r4,r4,0xddd0
    18b4:	d4 01 20 00 	l.sw 0x0(r1),r4
    18b8:	04 00 02 e8 	l.jal 2458 <_printf>
    18bc:	15 00 00 00 	l.nop 0x0
    18c0:	04 00 01 05 	l.jal 1cd4 <_int_init>
    18c4:	15 00 00 00 	l.nop 0x0
    18c8:	9c 60 00 00 	l.addi r3,r0,0x0
    18cc:	18 80 00 00 	l.movhi r4,0x0
    18d0:	a8 84 0f 2c 	l.ori r4,r4,0xf2c
    18d4:	9c a0 00 00 	l.addi r5,r0,0x0
    18d8:	04 00 01 3e 	l.jal 1dd0 <_int_add>
    18dc:	15 00 00 00 	l.nop 0x0
    18e0:	9c 60 00 00 	l.addi r3,r0,0x0
    18e4:	04 00 01 cd 	l.jal 2018 <_int_enable>
    18e8:	15 00 00 00 	l.nop 0x0
    18ec:	9c 60 00 11 	l.addi r3,r0,0x11
    18f0:	d7 e2 1f cc 	l.sw 0xffffffcc(r2),r3
    18f4:	84 82 ff cc 	l.lwz r4,0xffffffcc(r2)
    18f8:	b4 84 00 00 	l.mfspr r4,r4,0x0
    18fc:	d7 e2 27 d0 	l.sw 0xffffffd0(r2),r4
    1900:	84 62 ff d0 	l.lwz r3,0xffffffd0(r2)
    1904:	d7 e2 1f c8 	l.sw 0xffffffc8(r2),r3
    1908:	84 82 ff c8 	l.lwz r4,0xffffffc8(r2)
    190c:	d7 e2 27 dc 	l.sw 0xffffffdc(r2),r4
    1910:	84 62 ff dc 	l.lwz r3,0xffffffdc(r2)
    1914:	d7 e2 1f c4 	l.sw 0xffffffc4(r2),r3
    1918:	84 82 ff c4 	l.lwz r4,0xffffffc4(r2)
    191c:	d7 e2 27 e0 	l.sw 0xffffffe0(r2),r4
    1920:	84 62 ff e0 	l.lwz r3,0xffffffe0(r2)
    1924:	d7 e2 1f c0 	l.sw 0xffffffc0(r2),r3
    1928:	84 82 ff c0 	l.lwz r4,0xffffffc0(r2)
    192c:	a8 84 00 04 	l.ori r4,r4,0x4
    1930:	d7 e2 27 bc 	l.sw 0xffffffbc(r2),r4
    1934:	84 62 ff bc 	l.lwz r3,0xffffffbc(r2)
    1938:	d7 e2 1f e0 	l.sw 0xffffffe0(r2),r3
    193c:	84 82 ff e0 	l.lwz r4,0xffffffe0(r2)
    1940:	d7 e2 27 dc 	l.sw 0xffffffdc(r2),r4
    1944:	9c 60 00 11 	l.addi r3,r0,0x11
    1948:	d7 e2 1f b8 	l.sw 0xffffffb8(r2),r3
    194c:	84 82 ff dc 	l.lwz r4,0xffffffdc(r2)
    1950:	d7 e2 27 b4 	l.sw 0xffffffb4(r2),r4
    1954:	84 62 ff b8 	l.lwz r3,0xffffffb8(r2)
    1958:	84 82 ff b4 	l.lwz r4,0xffffffb4(r2)
    195c:	c0 03 20 00 	l.mtspr r3,r4,0x0
    1960:	9c 60 00 00 	l.addi r3,r0,0x0
    1964:	d7 e2 1f dc 	l.sw 0xffffffdc(r2),r3
    1968:	84 82 ff f4 	l.lwz r4,0xfffffff4(r2)
    196c:	d7 e2 27 b0 	l.sw 0xffffffb0(r2),r4
    1970:	9c 80 00 00 	l.addi r4,r0,0x0
    1974:	84 62 ff b0 	l.lwz r3,0xffffffb0(r2)
    1978:	d4 03 20 00 	l.sw 0x0(r3),r4
    197c:	84 62 ff f0 	l.lwz r3,0xfffffff0(r2)
    1980:	d7 e2 1f ac 	l.sw 0xffffffac(r2),r3
    1984:	9c 60 00 00 	l.addi r3,r0,0x0
    1988:	84 82 ff ac 	l.lwz r4,0xffffffac(r2)
    198c:	d4 04 18 00 	l.sw 0x0(r4),r3
    1990:	84 82 ff dc 	l.lwz r4,0xffffffdc(r2)
    1994:	d7 e2 27 a8 	l.sw 0xffffffa8(r2),r4
    1998:	84 62 ff a8 	l.lwz r3,0xffffffa8(r2)
    199c:	bc 03 00 01 	l.sfeqi r3,0x1
    19a0:	10 00 00 0e 	l.bf 19d8 <_main+0x180>
    19a4:	15 00 00 00 	l.nop 0x0
    19a8:	84 82 ff ec 	l.lwz r4,0xffffffec(r2)
    19ac:	d7 e2 27 a4 	l.sw 0xffffffa4(r2),r4
    19b0:	84 62 ff a4 	l.lwz r3,0xffffffa4(r2)
    19b4:	84 63 00 00 	l.lwz r3,0x0(r3)
    19b8:	d7 e2 1f a0 	l.sw 0xffffffa0(r2),r3
    19bc:	84 82 ff a0 	l.lwz r4,0xffffffa0(r2)
    19c0:	b8 84 00 58 	l.srli r4,r4,0x18
    19c4:	d7 e2 27 9c 	l.sw 0xffffff9c(r2),r4
    19c8:	84 62 ff 9c 	l.lwz r3,0xffffff9c(r2)
    19cc:	d7 e2 1f dc 	l.sw 0xffffffdc(r2),r3
    19d0:	03 ff ff f0 	l.j 1990 <_main+0x138>
    19d4:	15 00 00 00 	l.nop 0x0
    19d8:	18 80 00 00 	l.movhi r4,0x0
    19dc:	a8 84 eb 44 	l.ori r4,r4,0xeb44
    19e0:	d7 e2 27 98 	l.sw 0xffffff98(r2),r4
    19e4:	04 00 02 7b 	l.jal 23d0 <_clock>
    19e8:	15 00 00 00 	l.nop 0x0
    19ec:	84 62 ff 98 	l.lwz r3,0xffffff98(r2)
    19f0:	d4 03 58 00 	l.sw 0x0(r3),r11
    19f4:	18 80 00 00 	l.movhi r4,0x0
    19f8:	a8 84 ef 50 	l.ori r4,r4,0xef50
    19fc:	d7 e2 27 94 	l.sw 0xffffff94(r2),r4
    1a00:	18 60 00 00 	l.movhi r3,0x0
    1a04:	a8 63 eb 44 	l.ori r3,r3,0xeb44
    1a08:	d7 e2 1f 90 	l.sw 0xffffff90(r2),r3
    1a0c:	18 80 00 00 	l.movhi r4,0x0
    1a10:	a8 84 eb 44 	l.ori r4,r4,0xeb44
    1a14:	d7 e2 27 8c 	l.sw 0xffffff8c(r2),r4
    1a18:	18 60 00 00 	l.movhi r3,0x0
    1a1c:	a8 63 ef 50 	l.ori r3,r3,0xef50
    1a20:	d7 e2 1f 88 	l.sw 0xffffff88(r2),r3
    1a24:	84 82 ff 8c 	l.lwz r4,0xffffff8c(r2)
    1a28:	84 84 00 00 	l.lwz r4,0x0(r4)
    1a2c:	d7 e2 27 80 	l.sw 0xffffff80(r2),r4
    1a30:	84 62 ff 88 	l.lwz r3,0xffffff88(r2)
    1a34:	84 63 00 00 	l.lwz r3,0x0(r3)
    1a38:	d7 e2 1f 7c 	l.sw 0xffffff7c(r2),r3
    1a3c:	84 82 ff 80 	l.lwz r4,0xffffff80(r2)
    1a40:	84 62 ff 7c 	l.lwz r3,0xffffff7c(r2)
    1a44:	e0 84 18 02 	l.sub r4,r4,r3
    1a48:	d7 e2 27 84 	l.sw 0xffffff84(r2),r4
    1a4c:	84 82 ff 90 	l.lwz r4,0xffffff90(r2)
    1a50:	84 84 00 00 	l.lwz r4,0x0(r4)
    1a54:	d7 e2 27 78 	l.sw 0xffffff78(r2),r4
    1a58:	84 62 ff 78 	l.lwz r3,0xffffff78(r2)
    1a5c:	84 82 ff 84 	l.lwz r4,0xffffff84(r2)
    1a60:	e0 63 20 02 	l.sub r3,r3,r4
    1a64:	d7 e2 1f 74 	l.sw 0xffffff74(r2),r3
    1a68:	84 82 ff 74 	l.lwz r4,0xffffff74(r2)
    1a6c:	84 62 ff 94 	l.lwz r3,0xffffff94(r2)
    1a70:	d4 03 20 00 	l.sw 0x0(r3),r4
    1a74:	18 60 00 00 	l.movhi r3,0x0
    1a78:	a8 63 dd f6 	l.ori r3,r3,0xddf6
    1a7c:	d4 01 18 00 	l.sw 0x0(r1),r3
    1a80:	18 80 00 00 	l.movhi r4,0x0
    1a84:	a8 84 eb 50 	l.ori r4,r4,0xeb50
    1a88:	d4 01 20 04 	l.sw 0x4(r1),r4
    1a8c:	04 00 02 73 	l.jal 2458 <_printf>
    1a90:	15 00 00 00 	l.nop 0x0
    1a94:	18 60 00 00 	l.movhi r3,0x0
    1a98:	a8 63 de 0d 	l.ori r3,r3,0xde0d
    1a9c:	d4 01 18 00 	l.sw 0x0(r1),r3
    1aa0:	04 00 02 6e 	l.jal 2458 <_printf>
    1aa4:	15 00 00 00 	l.nop 0x0
    1aa8:	84 82 ff e8 	l.lwz r4,0xffffffe8(r2)
    1aac:	d7 e2 27 70 	l.sw 0xffffff70(r2),r4
    1ab0:	18 80 00 00 	l.movhi r4,0x0
    1ab4:	a8 84 eb 50 	l.ori r4,r4,0xeb50
    1ab8:	84 62 ff 70 	l.lwz r3,0xffffff70(r2)
    1abc:	d4 03 20 00 	l.sw 0x0(r3),r4
    1ac0:	84 62 ff e8 	l.lwz r3,0xffffffe8(r2)
    1ac4:	d7 e2 1f 6c 	l.sw 0xffffff6c(r2),r3
    1ac8:	18 60 00 00 	l.movhi r3,0x0
    1acc:	a8 63 eb 50 	l.ori r3,r3,0xeb50
    1ad0:	84 82 ff 6c 	l.lwz r4,0xffffff6c(r2)
    1ad4:	d4 04 18 00 	l.sw 0x0(r4),r3
    1ad8:	18 80 00 00 	l.movhi r4,0x0
    1adc:	a8 84 de 16 	l.ori r4,r4,0xde16
    1ae0:	d4 01 20 00 	l.sw 0x0(r1),r4
    1ae4:	04 00 02 5d 	l.jal 2458 <_printf>
    1ae8:	15 00 00 00 	l.nop 0x0
    1aec:	9c 60 00 00 	l.addi r3,r0,0x0
    1af0:	d7 e2 1f d8 	l.sw 0xffffffd8(r2),r3
    1af4:	84 82 ff d8 	l.lwz r4,0xffffffd8(r2)
    1af8:	d7 e2 27 68 	l.sw 0xffffff68(r2),r4
    1afc:	84 62 ff 68 	l.lwz r3,0xffffff68(r2)
    1b00:	bd 43 00 13 	l.sfgtsi r3,0x13
    1b04:	10 00 00 2b 	l.bf 1bb0 <_main+0x358>
    1b08:	15 00 00 00 	l.nop 0x0
    1b0c:	18 80 00 00 	l.movhi r4,0x0
    1b10:	a8 84 ef 60 	l.ori r4,r4,0xef60
    1b14:	d7 e2 27 64 	l.sw 0xffffff64(r2),r4
    1b18:	84 62 ff d8 	l.lwz r3,0xffffffd8(r2)
    1b1c:	d7 e2 1f 60 	l.sw 0xffffff60(r2),r3
    1b20:	84 82 ff 60 	l.lwz r4,0xffffff60(r2)
    1b24:	d7 e2 27 5c 	l.sw 0xffffff5c(r2),r4
    1b28:	84 62 ff 5c 	l.lwz r3,0xffffff5c(r2)
    1b2c:	b8 63 00 02 	l.slli r3,r3,0x2
    1b30:	d7 e2 1f 58 	l.sw 0xffffff58(r2),r3
    1b34:	84 82 ff 58 	l.lwz r4,0xffffff58(r2)
    1b38:	84 62 ff 64 	l.lwz r3,0xffffff64(r2)
    1b3c:	e0 84 18 00 	l.add r4,r4,r3
    1b40:	d7 e2 27 54 	l.sw 0xffffff54(r2),r4
    1b44:	84 82 ff d8 	l.lwz r4,0xffffffd8(r2)
    1b48:	d7 e2 27 50 	l.sw 0xffffff50(r2),r4
    1b4c:	84 62 ff 50 	l.lwz r3,0xffffff50(r2)
    1b50:	d7 e2 1f 4c 	l.sw 0xffffff4c(r2),r3
    1b54:	84 82 ff 4c 	l.lwz r4,0xffffff4c(r2)
    1b58:	b8 84 00 03 	l.slli r4,r4,0x3
    1b5c:	d7 e2 27 48 	l.sw 0xffffff48(r2),r4
    1b60:	84 62 ff 48 	l.lwz r3,0xffffff48(r2)
    1b64:	84 82 ff 50 	l.lwz r4,0xffffff50(r2)
    1b68:	e0 63 20 00 	l.add r3,r3,r4
    1b6c:	d7 e2 1f 48 	l.sw 0xffffff48(r2),r3
    1b70:	84 62 ff 48 	l.lwz r3,0xffffff48(r2)
    1b74:	84 82 ff 50 	l.lwz r4,0xffffff50(r2)
    1b78:	e0 63 20 00 	l.add r3,r3,r4
    1b7c:	d7 e2 1f 44 	l.sw 0xffffff44(r2),r3
    1b80:	84 82 ff 44 	l.lwz r4,0xffffff44(r2)
    1b84:	84 62 ff 54 	l.lwz r3,0xffffff54(r2)
    1b88:	d4 03 20 00 	l.sw 0x0(r3),r4
    1b8c:	84 62 ff d8 	l.lwz r3,0xffffffd8(r2)
    1b90:	d7 e2 1f 40 	l.sw 0xffffff40(r2),r3
    1b94:	84 82 ff 40 	l.lwz r4,0xffffff40(r2)
    1b98:	9c 84 00 01 	l.addi r4,r4,0x1
    1b9c:	d7 e2 27 3c 	l.sw 0xffffff3c(r2),r4
    1ba0:	84 62 ff 3c 	l.lwz r3,0xffffff3c(r2)
    1ba4:	d7 e2 1f d8 	l.sw 0xffffffd8(r2),r3
    1ba8:	03 ff ff d3 	l.j 1af4 <_main+0x29c>
    1bac:	15 00 00 00 	l.nop 0x0
    1bb0:	18 80 00 00 	l.movhi r4,0x0
    1bb4:	a8 84 ef 60 	l.ori r4,r4,0xef60
    1bb8:	d7 e2 27 38 	l.sw 0xffffff38(r2),r4
    1bbc:	9c 80 00 11 	l.addi r4,r0,0x11
    1bc0:	84 62 ff 38 	l.lwz r3,0xffffff38(r2)
    1bc4:	d4 03 20 00 	l.sw 0x0(r3),r4
    1bc8:	18 60 00 00 	l.movhi r3,0x0
    1bcc:	a8 63 ef 60 	l.ori r3,r3,0xef60
    1bd0:	d7 e2 1f 34 	l.sw 0xffffff34(r2),r3
    1bd4:	9c 60 00 12 	l.addi r3,r0,0x12
    1bd8:	84 82 ff 34 	l.lwz r4,0xffffff34(r2)
    1bdc:	d4 04 18 04 	l.sw 0x4(r4),r3
    1be0:	84 82 ff e8 	l.lwz r4,0xffffffe8(r2)
    1be4:	d7 e2 27 30 	l.sw 0xffffff30(r2),r4
    1be8:	18 80 00 00 	l.movhi r4,0x0
    1bec:	a8 84 ef 60 	l.ori r4,r4,0xef60
    1bf0:	84 62 ff 30 	l.lwz r3,0xffffff30(r2)
    1bf4:	d4 03 20 00 	l.sw 0x0(r3),r4
    1bf8:	18 60 00 00 	l.movhi r3,0x0
    1bfc:	a8 63 de 1f 	l.ori r3,r3,0xde1f
    1c00:	d4 01 18 00 	l.sw 0x0(r1),r3
    1c04:	18 80 00 00 	l.movhi r4,0x0
    1c08:	a8 84 ef 60 	l.ori r4,r4,0xef60
    1c0c:	d4 01 20 04 	l.sw 0x4(r1),r4
    1c10:	04 00 02 12 	l.jal 2458 <_printf>
    1c14:	15 00 00 00 	l.nop 0x0
    1c18:	84 62 ff e4 	l.lwz r3,0xffffffe4(r2)
    1c1c:	d7 e2 1f 2c 	l.sw 0xffffff2c(r2),r3
    1c20:	9c 60 22 22 	l.addi r3,r0,0x2222
    1c24:	84 82 ff 2c 	l.lwz r4,0xffffff2c(r2)
    1c28:	d4 04 18 00 	l.sw 0x0(r4),r3
    1c2c:	18 80 00 00 	l.movhi r4,0x0
    1c30:	a8 84 de 3e 	l.ori r4,r4,0xde3e
    1c34:	d4 01 20 00 	l.sw 0x0(r1),r4
    1c38:	04 00 02 08 	l.jal 2458 <_printf>
    1c3c:	15 00 00 00 	l.nop 0x0
    1c40:	9c 60 00 01 	l.addi r3,r0,0x1
    1c44:	d7 e2 1f d4 	l.sw 0xffffffd4(r2),r3
    1c48:	85 62 ff d4 	l.lwz r11,0xffffffd4(r2)
    1c4c:	85 21 00 08 	l.lwz r9,0x8(r1)
    1c50:	84 41 00 0c 	l.lwz r2,0xc(r1)
    1c54:	44 00 48 00 	l.jr r9
    1c58:	9c 21 00 e4 	l.addi r1,r1,0xe4

00001c5c <_defaultException>:
    1c5c:	9c 21 ff f8 	l.addi r1,r1,0xfffffff8
    1c60:	d4 01 10 04 	l.sw 0x4(r1),r2
    1c64:	9c 41 00 08 	l.addi r2,r1,0x8
    1c68:	d4 01 48 00 	l.sw 0x0(r1),r9
    1c6c:	9c 60 00 01 	l.addi r3,r0,0x1
    1c70:	04 00 02 09 	l.jal 2494 <_exit>
    1c74:	15 00 00 00 	l.nop 0x0
    1c78:	85 21 00 00 	l.lwz r9,0x0(r1)
    1c7c:	84 41 00 04 	l.lwz r2,0x4(r1)
    1c80:	44 00 48 00 	l.jr r9
    1c84:	9c 21 00 08 	l.addi r1,r1,0x8

00001c88 <_reset>:
    1c88:	9c 21 ff f0 	l.addi r1,r1,0xfffffff0
    1c8c:	d4 01 10 04 	l.sw 0x4(r1),r2
    1c90:	9c 41 00 10 	l.addi r2,r1,0x10
    1c94:	d4 01 48 00 	l.sw 0x0(r1),r9
    1c98:	9c 60 00 00 	l.addi r3,r0,0x0
    1c9c:	18 80 00 00 	l.movhi r4,0x0
    1ca0:	a8 84 e2 b0 	l.ori r4,r4,0xe2b0
    1ca4:	07 ff fe ed 	l.jal 1858 <_main>
    1ca8:	15 00 00 00 	l.nop 0x0
    1cac:	d7 e2 5f f8 	l.sw 0xfffffff8(r2),r11
    1cb0:	84 62 ff f8 	l.lwz r3,0xfffffff8(r2)
    1cb4:	d7 e2 1f fc 	l.sw 0xfffffffc(r2),r3
    1cb8:	84 62 ff fc 	l.lwz r3,0xfffffffc(r2)
    1cbc:	04 00 01 f6 	l.jal 2494 <_exit>
    1cc0:	15 00 00 00 	l.nop 0x0
    1cc4:	85 21 00 00 	l.lwz r9,0x0(r1)
    1cc8:	84 41 00 04 	l.lwz r2,0x4(r1)
    1ccc:	44 00 48 00 	l.jr r9
    1cd0:	9c 21 00 10 	l.addi r1,r1,0x10

00001cd4 <_int_init>:
    1cd4:	9c 21 ff bc 	l.addi r1,r1,0xffffffbc
    1cd8:	d4 01 10 00 	l.sw 0x0(r1),r2
    1cdc:	9c 41 00 44 	l.addi r2,r1,0x44
    1ce0:	9c 60 00 00 	l.addi r3,r0,0x0
    1ce4:	d7 e2 1f fc 	l.sw 0xfffffffc(r2),r3
    1ce8:	84 82 ff fc 	l.lwz r4,0xfffffffc(r2)
    1cec:	d7 e2 27 f4 	l.sw 0xfffffff4(r2),r4
    1cf0:	84 62 ff f4 	l.lwz r3,0xfffffff4(r2)
    1cf4:	bd 43 00 1f 	l.sfgtsi r3,0x1f
    1cf8:	10 00 00 30 	l.bf 1db8 <_int_init+0xe4>
    1cfc:	15 00 00 00 	l.nop 0x0
    1d00:	18 80 00 00 	l.movhi r4,0x0
    1d04:	a8 84 f3 80 	l.ori r4,r4,0xf380
    1d08:	d7 e2 27 f0 	l.sw 0xfffffff0(r2),r4
    1d0c:	84 62 ff fc 	l.lwz r3,0xfffffffc(r2)
    1d10:	d7 e2 1f ec 	l.sw 0xffffffec(r2),r3
    1d14:	84 82 ff ec 	l.lwz r4,0xffffffec(r2)
    1d18:	d7 e2 27 e8 	l.sw 0xffffffe8(r2),r4
    1d1c:	84 62 ff e8 	l.lwz r3,0xffffffe8(r2)
    1d20:	b8 63 00 03 	l.slli r3,r3,0x3
    1d24:	d7 e2 1f e4 	l.sw 0xffffffe4(r2),r3
    1d28:	84 82 ff e4 	l.lwz r4,0xffffffe4(r2)
    1d2c:	84 62 ff f0 	l.lwz r3,0xfffffff0(r2)
    1d30:	e0 84 18 00 	l.add r4,r4,r3
    1d34:	d7 e2 27 e0 	l.sw 0xffffffe0(r2),r4
    1d38:	9c 60 00 00 	l.addi r3,r0,0x0
    1d3c:	84 82 ff e0 	l.lwz r4,0xffffffe0(r2)
    1d40:	d4 04 18 00 	l.sw 0x0(r4),r3
    1d44:	18 80 00 00 	l.movhi r4,0x0
    1d48:	a8 84 f3 80 	l.ori r4,r4,0xf380
    1d4c:	d7 e2 27 dc 	l.sw 0xffffffdc(r2),r4
    1d50:	84 62 ff fc 	l.lwz r3,0xfffffffc(r2)
    1d54:	d7 e2 1f d8 	l.sw 0xffffffd8(r2),r3
    1d58:	84 82 ff d8 	l.lwz r4,0xffffffd8(r2)
    1d5c:	d7 e2 27 d4 	l.sw 0xffffffd4(r2),r4
    1d60:	84 62 ff d4 	l.lwz r3,0xffffffd4(r2)
    1d64:	b8 63 00 03 	l.slli r3,r3,0x3
    1d68:	d7 e2 1f d0 	l.sw 0xffffffd0(r2),r3
    1d6c:	84 82 ff d0 	l.lwz r4,0xffffffd0(r2)
    1d70:	84 62 ff dc 	l.lwz r3,0xffffffdc(r2)
    1d74:	e0 84 18 00 	l.add r4,r4,r3
    1d78:	d7 e2 27 cc 	l.sw 0xffffffcc(r2),r4
    1d7c:	84 82 ff cc 	l.lwz r4,0xffffffcc(r2)
    1d80:	9c 84 00 04 	l.addi r4,r4,0x4
    1d84:	d7 e2 27 c8 	l.sw 0xffffffc8(r2),r4
    1d88:	9c 80 00 00 	l.addi r4,r0,0x0
    1d8c:	84 62 ff c8 	l.lwz r3,0xffffffc8(r2)
    1d90:	d4 03 20 00 	l.sw 0x0(r3),r4
    1d94:	84 62 ff fc 	l.lwz r3,0xfffffffc(r2)
    1d98:	d7 e2 1f c4 	l.sw 0xffffffc4(r2),r3
    1d9c:	84 82 ff c4 	l.lwz r4,0xffffffc4(r2)
    1da0:	9c 84 00 01 	l.addi r4,r4,0x1
    1da4:	d7 e2 27 c0 	l.sw 0xffffffc0(r2),r4
    1da8:	84 62 ff c0 	l.lwz r3,0xffffffc0(r2)
    1dac:	d7 e2 1f fc 	l.sw 0xfffffffc(r2),r3
    1db0:	03 ff ff ce 	l.j 1ce8 <_int_init+0x14>
    1db4:	15 00 00 00 	l.nop 0x0
    1db8:	9c 80 00 00 	l.addi r4,r0,0x0
    1dbc:	d7 e2 27 f8 	l.sw 0xfffffff8(r2),r4
    1dc0:	85 62 ff f8 	l.lwz r11,0xfffffff8(r2)
    1dc4:	84 41 00 00 	l.lwz r2,0x0(r1)
    1dc8:	44 00 48 00 	l.jr r9
    1dcc:	9c 21 00 44 	l.addi r1,r1,0x44

00001dd0 <_int_add>:
    1dd0:	9c 21 ff 8c 	l.addi r1,r1,0xffffff8c
    1dd4:	d4 01 10 00 	l.sw 0x0(r1),r2
    1dd8:	9c 41 00 74 	l.addi r2,r1,0x74
    1ddc:	d7 e2 1f fc 	l.sw 0xfffffffc(r2),r3
    1de0:	d7 e2 27 f8 	l.sw 0xfffffff8(r2),r4
    1de4:	d7 e2 2f f4 	l.sw 0xfffffff4(r2),r5
    1de8:	84 62 ff fc 	l.lwz r3,0xfffffffc(r2)
    1dec:	d7 e2 1f e4 	l.sw 0xffffffe4(r2),r3
    1df0:	84 82 ff e4 	l.lwz r4,0xffffffe4(r2)
    1df4:	bc a4 00 1f 	l.sfleui r4,0x1f
    1df8:	10 00 00 06 	l.bf 1e10 <_int_add+0x40>
    1dfc:	15 00 00 00 	l.nop 0x0
    1e00:	9c 60 ff ff 	l.addi r3,r0,0xffffffff
    1e04:	d7 e2 1f e8 	l.sw 0xffffffe8(r2),r3
    1e08:	00 00 00 49 	l.j 1f2c <_int_add+0x15c>
    1e0c:	15 00 00 00 	l.nop 0x0
    1e10:	18 80 00 00 	l.movhi r4,0x0
    1e14:	a8 84 f3 80 	l.ori r4,r4,0xf380
    1e18:	d7 e2 27 e0 	l.sw 0xffffffe0(r2),r4
    1e1c:	84 62 ff fc 	l.lwz r3,0xfffffffc(r2)
    1e20:	d7 e2 1f dc 	l.sw 0xffffffdc(r2),r3
    1e24:	84 82 ff dc 	l.lwz r4,0xffffffdc(r2)
    1e28:	d7 e2 27 d8 	l.sw 0xffffffd8(r2),r4
    1e2c:	84 62 ff d8 	l.lwz r3,0xffffffd8(r2)
    1e30:	b8 63 00 03 	l.slli r3,r3,0x3
    1e34:	d7 e2 1f d4 	l.sw 0xffffffd4(r2),r3
    1e38:	84 82 ff d4 	l.lwz r4,0xffffffd4(r2)
    1e3c:	84 62 ff e0 	l.lwz r3,0xffffffe0(r2)
    1e40:	e0 84 18 00 	l.add r4,r4,r3
    1e44:	d7 e2 27 d0 	l.sw 0xffffffd0(r2),r4
    1e48:	84 62 ff f8 	l.lwz r3,0xfffffff8(r2)
    1e4c:	84 82 ff d0 	l.lwz r4,0xffffffd0(r2)
    1e50:	d4 04 18 00 	l.sw 0x0(r4),r3
    1e54:	18 80 00 00 	l.movhi r4,0x0
    1e58:	a8 84 f3 80 	l.ori r4,r4,0xf380
    1e5c:	d7 e2 27 cc 	l.sw 0xffffffcc(r2),r4
    1e60:	84 62 ff fc 	l.lwz r3,0xfffffffc(r2)
    1e64:	d7 e2 1f c8 	l.sw 0xffffffc8(r2),r3
    1e68:	84 82 ff c8 	l.lwz r4,0xffffffc8(r2)
    1e6c:	d7 e2 27 c4 	l.sw 0xffffffc4(r2),r4
    1e70:	84 62 ff c4 	l.lwz r3,0xffffffc4(r2)
    1e74:	b8 63 00 03 	l.slli r3,r3,0x3
    1e78:	d7 e2 1f c0 	l.sw 0xffffffc0(r2),r3
    1e7c:	84 82 ff c0 	l.lwz r4,0xffffffc0(r2)
    1e80:	84 62 ff cc 	l.lwz r3,0xffffffcc(r2)
    1e84:	e0 84 18 00 	l.add r4,r4,r3
    1e88:	d7 e2 27 bc 	l.sw 0xffffffbc(r2),r4
    1e8c:	84 82 ff bc 	l.lwz r4,0xffffffbc(r2)
    1e90:	9c 84 00 04 	l.addi r4,r4,0x4
    1e94:	d7 e2 27 b8 	l.sw 0xffffffb8(r2),r4
    1e98:	84 82 ff f4 	l.lwz r4,0xfffffff4(r2)
    1e9c:	84 62 ff b8 	l.lwz r3,0xffffffb8(r2)
    1ea0:	d4 03 20 00 	l.sw 0x0(r3),r4
    1ea4:	9c 60 48 00 	l.addi r3,r0,0x4800
    1ea8:	d7 e2 1f b0 	l.sw 0xffffffb0(r2),r3
    1eac:	84 82 ff b0 	l.lwz r4,0xffffffb0(r2)
    1eb0:	b4 84 00 00 	l.mfspr r4,r4,0x0
    1eb4:	d7 e2 27 b4 	l.sw 0xffffffb4(r2),r4
    1eb8:	84 62 ff b4 	l.lwz r3,0xffffffb4(r2)
    1ebc:	d7 e2 1f ac 	l.sw 0xffffffac(r2),r3
    1ec0:	84 82 ff ac 	l.lwz r4,0xffffffac(r2)
    1ec4:	d7 e2 27 ec 	l.sw 0xffffffec(r2),r4
    1ec8:	84 62 ff ec 	l.lwz r3,0xffffffec(r2)
    1ecc:	d7 e2 1f a8 	l.sw 0xffffffa8(r2),r3
    1ed0:	9c 80 00 01 	l.addi r4,r0,0x1
    1ed4:	d7 e2 27 a0 	l.sw 0xffffffa0(r2),r4
    1ed8:	84 62 ff fc 	l.lwz r3,0xfffffffc(r2)
    1edc:	d7 e2 1f 9c 	l.sw 0xffffff9c(r2),r3
    1ee0:	84 82 ff a0 	l.lwz r4,0xffffffa0(r2)
    1ee4:	84 62 ff 9c 	l.lwz r3,0xffffff9c(r2)
    1ee8:	e0 84 18 08 	l.sll r4,r4,r3
    1eec:	d7 e2 27 a4 	l.sw 0xffffffa4(r2),r4
    1ef0:	84 82 ff a8 	l.lwz r4,0xffffffa8(r2)
    1ef4:	84 62 ff a4 	l.lwz r3,0xffffffa4(r2)
    1ef8:	e0 84 18 04 	l.or r4,r4,r3
    1efc:	d7 e2 27 98 	l.sw 0xffffff98(r2),r4
    1f00:	84 82 ff 98 	l.lwz r4,0xffffff98(r2)
    1f04:	d7 e2 27 f0 	l.sw 0xfffffff0(r2),r4
    1f08:	9c 60 48 00 	l.addi r3,r0,0x4800
    1f0c:	d7 e2 1f 94 	l.sw 0xffffff94(r2),r3
    1f10:	84 82 ff f0 	l.lwz r4,0xfffffff0(r2)
    1f14:	d7 e2 27 90 	l.sw 0xffffff90(r2),r4
    1f18:	84 62 ff 94 	l.lwz r3,0xffffff94(r2)
    1f1c:	84 82 ff 90 	l.lwz r4,0xffffff90(r2)
    1f20:	c0 03 20 00 	l.mtspr r3,r4,0x0
    1f24:	9c 60 00 00 	l.addi r3,r0,0x0
    1f28:	d7 e2 1f e8 	l.sw 0xffffffe8(r2),r3
    1f2c:	85 62 ff e8 	l.lwz r11,0xffffffe8(r2)
    1f30:	84 41 00 00 	l.lwz r2,0x0(r1)
    1f34:	44 00 48 00 	l.jr r9
    1f38:	9c 21 00 74 	l.addi r1,r1,0x74

00001f3c <_int_disable>:
    1f3c:	9c 21 ff bc 	l.addi r1,r1,0xffffffbc
    1f40:	d4 01 10 00 	l.sw 0x0(r1),r2
    1f44:	9c 41 00 44 	l.addi r2,r1,0x44
    1f48:	d7 e2 1f fc 	l.sw 0xfffffffc(r2),r3
    1f4c:	84 62 ff fc 	l.lwz r3,0xfffffffc(r2)
    1f50:	d7 e2 1f ec 	l.sw 0xffffffec(r2),r3
    1f54:	84 82 ff ec 	l.lwz r4,0xffffffec(r2)
    1f58:	bc a4 00 1f 	l.sfleui r4,0x1f
    1f5c:	10 00 00 06 	l.bf 1f74 <_int_disable+0x38>
    1f60:	15 00 00 00 	l.nop 0x0
    1f64:	9c 60 ff ff 	l.addi r3,r0,0xffffffff
    1f68:	d7 e2 1f f0 	l.sw 0xfffffff0(r2),r3
    1f6c:	00 00 00 27 	l.j 2008 <_int_disable+0xcc>
    1f70:	15 00 00 00 	l.nop 0x0
    1f74:	9c 80 48 00 	l.addi r4,r0,0x4800
    1f78:	d7 e2 27 e4 	l.sw 0xffffffe4(r2),r4
    1f7c:	84 62 ff e4 	l.lwz r3,0xffffffe4(r2)
    1f80:	b4 63 00 00 	l.mfspr r3,r3,0x0
    1f84:	d7 e2 1f e8 	l.sw 0xffffffe8(r2),r3
    1f88:	84 82 ff e8 	l.lwz r4,0xffffffe8(r2)
    1f8c:	d7 e2 27 e0 	l.sw 0xffffffe0(r2),r4
    1f90:	84 62 ff e0 	l.lwz r3,0xffffffe0(r2)
    1f94:	d7 e2 1f f4 	l.sw 0xfffffff4(r2),r3
    1f98:	84 82 ff f4 	l.lwz r4,0xfffffff4(r2)
    1f9c:	d7 e2 27 dc 	l.sw 0xffffffdc(r2),r4
    1fa0:	9c 60 00 01 	l.addi r3,r0,0x1
    1fa4:	d7 e2 1f d4 	l.sw 0xffffffd4(r2),r3
    1fa8:	84 82 ff fc 	l.lwz r4,0xfffffffc(r2)
    1fac:	d7 e2 27 d0 	l.sw 0xffffffd0(r2),r4
    1fb0:	84 62 ff d4 	l.lwz r3,0xffffffd4(r2)
    1fb4:	84 82 ff d0 	l.lwz r4,0xffffffd0(r2)
    1fb8:	e0 63 20 08 	l.sll r3,r3,r4
    1fbc:	d7 e2 1f d8 	l.sw 0xffffffd8(r2),r3
    1fc0:	84 62 ff d8 	l.lwz r3,0xffffffd8(r2)
    1fc4:	ac 63 ff ff 	l.xori r3,r3,0xffffffff
    1fc8:	d7 e2 1f cc 	l.sw 0xffffffcc(r2),r3
    1fcc:	84 82 ff dc 	l.lwz r4,0xffffffdc(r2)
    1fd0:	84 62 ff cc 	l.lwz r3,0xffffffcc(r2)
    1fd4:	e0 84 18 03 	l.and r4,r4,r3
    1fd8:	d7 e2 27 c8 	l.sw 0xffffffc8(r2),r4
    1fdc:	84 82 ff c8 	l.lwz r4,0xffffffc8(r2)
    1fe0:	d7 e2 27 f8 	l.sw 0xfffffff8(r2),r4
    1fe4:	9c 60 48 00 	l.addi r3,r0,0x4800
    1fe8:	d7 e2 1f c4 	l.sw 0xffffffc4(r2),r3
    1fec:	84 82 ff f8 	l.lwz r4,0xfffffff8(r2)
    1ff0:	d7 e2 27 c0 	l.sw 0xffffffc0(r2),r4
    1ff4:	84 62 ff c4 	l.lwz r3,0xffffffc4(r2)
    1ff8:	84 82 ff c0 	l.lwz r4,0xffffffc0(r2)
    1ffc:	c0 03 20 00 	l.mtspr r3,r4,0x0
    2000:	9c 60 00 00 	l.addi r3,r0,0x0
    2004:	d7 e2 1f f0 	l.sw 0xfffffff0(r2),r3
    2008:	85 62 ff f0 	l.lwz r11,0xfffffff0(r2)
    200c:	84 41 00 00 	l.lwz r2,0x0(r1)
    2010:	44 00 48 00 	l.jr r9
    2014:	9c 21 00 44 	l.addi r1,r1,0x44

00002018 <_int_enable>:
    2018:	9c 21 ff c0 	l.addi r1,r1,0xffffffc0
    201c:	d4 01 10 00 	l.sw 0x0(r1),r2
    2020:	9c 41 00 40 	l.addi r2,r1,0x40
    2024:	d7 e2 1f fc 	l.sw 0xfffffffc(r2),r3
    2028:	84 62 ff fc 	l.lwz r3,0xfffffffc(r2)
    202c:	d7 e2 1f ec 	l.sw 0xffffffec(r2),r3
    2030:	84 82 ff ec 	l.lwz r4,0xffffffec(r2)
    2034:	bc a4 00 1f 	l.sfleui r4,0x1f
    2038:	10 00 00 06 	l.bf 2050 <_int_enable+0x38>
    203c:	15 00 00 00 	l.nop 0x0
    2040:	9c 60 ff ff 	l.addi r3,r0,0xffffffff
    2044:	d7 e2 1f f0 	l.sw 0xfffffff0(r2),r3
    2048:	00 00 00 24 	l.j 20d8 <_int_enable+0xc0>
    204c:	15 00 00 00 	l.nop 0x0
    2050:	9c 80 48 00 	l.addi r4,r0,0x4800
    2054:	d7 e2 27 e4 	l.sw 0xffffffe4(r2),r4
    2058:	84 62 ff e4 	l.lwz r3,0xffffffe4(r2)
    205c:	b4 63 00 00 	l.mfspr r3,r3,0x0
    2060:	d7 e2 1f e8 	l.sw 0xffffffe8(r2),r3
    2064:	84 82 ff e8 	l.lwz r4,0xffffffe8(r2)
    2068:	d7 e2 27 e0 	l.sw 0xffffffe0(r2),r4
    206c:	84 62 ff e0 	l.lwz r3,0xffffffe0(r2)
    2070:	d7 e2 1f f4 	l.sw 0xfffffff4(r2),r3
    2074:	84 82 ff f4 	l.lwz r4,0xfffffff4(r2)
    2078:	d7 e2 27 dc 	l.sw 0xffffffdc(r2),r4
    207c:	9c 60 00 01 	l.addi r3,r0,0x1
    2080:	d7 e2 1f d4 	l.sw 0xffffffd4(r2),r3
    2084:	84 82 ff fc 	l.lwz r4,0xfffffffc(r2)
    2088:	d7 e2 27 d0 	l.sw 0xffffffd0(r2),r4
    208c:	84 62 ff d4 	l.lwz r3,0xffffffd4(r2)
    2090:	84 82 ff d0 	l.lwz r4,0xffffffd0(r2)
    2094:	e0 63 20 08 	l.sll r3,r3,r4
    2098:	d7 e2 1f d8 	l.sw 0xffffffd8(r2),r3
    209c:	84 62 ff dc 	l.lwz r3,0xffffffdc(r2)
    20a0:	84 82 ff d8 	l.lwz r4,0xffffffd8(r2)
    20a4:	e0 63 20 04 	l.or r3,r3,r4
    20a8:	d7 e2 1f cc 	l.sw 0xffffffcc(r2),r3
    20ac:	84 62 ff cc 	l.lwz r3,0xffffffcc(r2)
    20b0:	d7 e2 1f f8 	l.sw 0xfffffff8(r2),r3
    20b4:	9c 80 48 00 	l.addi r4,r0,0x4800
    20b8:	d7 e2 27 c8 	l.sw 0xffffffc8(r2),r4
    20bc:	84 62 ff f8 	l.lwz r3,0xfffffff8(r2)
    20c0:	d7 e2 1f c4 	l.sw 0xffffffc4(r2),r3
    20c4:	84 82 ff c8 	l.lwz r4,0xffffffc8(r2)
    20c8:	84 62 ff c4 	l.lwz r3,0xffffffc4(r2)
    20cc:	c0 04 18 00 	l.mtspr r4,r3,0x0
    20d0:	9c 80 00 00 	l.addi r4,r0,0x0
    20d4:	d7 e2 27 f0 	l.sw 0xfffffff0(r2),r4
    20d8:	85 62 ff f0 	l.lwz r11,0xfffffff0(r2)
    20dc:	84 41 00 00 	l.lwz r2,0x0(r1)
    20e0:	44 00 48 00 	l.jr r9
    20e4:	9c 21 00 40 	l.addi r1,r1,0x40

000020e8 <_int_main>:
    20e8:	9c 21 ff 3c 	l.addi r1,r1,0xffffff3c
    20ec:	d4 01 10 04 	l.sw 0x4(r1),r2
    20f0:	9c 41 00 c4 	l.addi r2,r1,0xc4
    20f4:	d4 01 48 00 	l.sw 0x0(r1),r9
    20f8:	9c 60 48 02 	l.addi r3,r0,0x4802
    20fc:	d7 e2 1f e8 	l.sw 0xffffffe8(r2),r3
    2100:	84 82 ff e8 	l.lwz r4,0xffffffe8(r2)
    2104:	b4 84 00 00 	l.mfspr r4,r4,0x0
    2108:	d7 e2 27 ec 	l.sw 0xffffffec(r2),r4
    210c:	84 62 ff ec 	l.lwz r3,0xffffffec(r2)
    2110:	d7 e2 1f e4 	l.sw 0xffffffe4(r2),r3
    2114:	84 82 ff e4 	l.lwz r4,0xffffffe4(r2)
    2118:	d7 e2 27 f8 	l.sw 0xfffffff8(r2),r4
    211c:	84 62 ff f8 	l.lwz r3,0xfffffff8(r2)
    2120:	d7 e2 1f e0 	l.sw 0xffffffe0(r2),r3
    2124:	84 82 ff e0 	l.lwz r4,0xffffffe0(r2)
    2128:	d7 e2 27 fc 	l.sw 0xfffffffc(r2),r4
    212c:	9c 60 00 00 	l.addi r3,r0,0x0
    2130:	d7 e2 1f f8 	l.sw 0xfffffff8(r2),r3
    2134:	9c 80 00 00 	l.addi r4,r0,0x0
    2138:	d7 e2 27 f4 	l.sw 0xfffffff4(r2),r4
    213c:	9c 60 48 02 	l.addi r3,r0,0x4802
    2140:	d7 e2 1f dc 	l.sw 0xffffffdc(r2),r3
    2144:	84 82 ff f4 	l.lwz r4,0xfffffff4(r2)
    2148:	d7 e2 27 d8 	l.sw 0xffffffd8(r2),r4
    214c:	84 62 ff dc 	l.lwz r3,0xffffffdc(r2)
    2150:	84 82 ff d8 	l.lwz r4,0xffffffd8(r2)
    2154:	c0 03 20 00 	l.mtspr r3,r4,0x0
    2158:	84 62 ff f8 	l.lwz r3,0xfffffff8(r2)
    215c:	d7 e2 1f d4 	l.sw 0xffffffd4(r2),r3
    2160:	84 82 ff d4 	l.lwz r4,0xffffffd4(r2)
    2164:	bc 44 00 1f 	l.sfgtui r4,0x1f
    2168:	10 00 00 7c 	l.bf 2358 <_int_main+0x270>
    216c:	15 00 00 00 	l.nop 0x0
    2170:	9c 60 00 01 	l.addi r3,r0,0x1
    2174:	d7 e2 1f cc 	l.sw 0xffffffcc(r2),r3
    2178:	84 82 ff f8 	l.lwz r4,0xfffffff8(r2)
    217c:	d7 e2 27 c8 	l.sw 0xffffffc8(r2),r4
    2180:	84 62 ff cc 	l.lwz r3,0xffffffcc(r2)
    2184:	84 82 ff c8 	l.lwz r4,0xffffffc8(r2)
    2188:	e0 63 20 08 	l.sll r3,r3,r4
    218c:	d7 e2 1f d0 	l.sw 0xffffffd0(r2),r3
    2190:	84 62 ff fc 	l.lwz r3,0xfffffffc(r2)
    2194:	d7 e2 1f c0 	l.sw 0xffffffc0(r2),r3
    2198:	84 82 ff d0 	l.lwz r4,0xffffffd0(r2)
    219c:	84 62 ff c0 	l.lwz r3,0xffffffc0(r2)
    21a0:	e0 84 18 03 	l.and r4,r4,r3
    21a4:	d7 e2 27 c4 	l.sw 0xffffffc4(r2),r4
    21a8:	84 82 ff c4 	l.lwz r4,0xffffffc4(r2)
    21ac:	bc 04 00 00 	l.sfeqi r4,0x0
    21b0:	10 00 00 61 	l.bf 2334 <_int_main+0x24c>
    21b4:	15 00 00 00 	l.nop 0x0
    21b8:	18 60 00 00 	l.movhi r3,0x0
    21bc:	a8 63 f3 80 	l.ori r3,r3,0xf380
    21c0:	d7 e2 1f bc 	l.sw 0xffffffbc(r2),r3
    21c4:	84 82 ff f8 	l.lwz r4,0xfffffff8(r2)
    21c8:	d7 e2 27 b8 	l.sw 0xffffffb8(r2),r4
    21cc:	84 62 ff b8 	l.lwz r3,0xffffffb8(r2)
    21d0:	d7 e2 1f b4 	l.sw 0xffffffb4(r2),r3
    21d4:	84 82 ff b4 	l.lwz r4,0xffffffb4(r2)
    21d8:	b8 84 00 03 	l.slli r4,r4,0x3
    21dc:	d7 e2 27 b0 	l.sw 0xffffffb0(r2),r4
    21e0:	84 62 ff b0 	l.lwz r3,0xffffffb0(r2)
    21e4:	84 82 ff bc 	l.lwz r4,0xffffffbc(r2)
    21e8:	e0 63 20 00 	l.add r3,r3,r4
    21ec:	d7 e2 1f ac 	l.sw 0xffffffac(r2),r3
    21f0:	84 62 ff ac 	l.lwz r3,0xffffffac(r2)
    21f4:	84 63 00 00 	l.lwz r3,0x0(r3)
    21f8:	d7 e2 1f a8 	l.sw 0xffffffa8(r2),r3
    21fc:	84 82 ff a8 	l.lwz r4,0xffffffa8(r2)
    2200:	bc 04 00 00 	l.sfeqi r4,0x0
    2204:	10 00 00 4c 	l.bf 2334 <_int_main+0x24c>
    2208:	15 00 00 00 	l.nop 0x0
    220c:	18 60 00 00 	l.movhi r3,0x0
    2210:	a8 63 f3 80 	l.ori r3,r3,0xf380
    2214:	d7 e2 1f a4 	l.sw 0xffffffa4(r2),r3
    2218:	84 82 ff f8 	l.lwz r4,0xfffffff8(r2)
    221c:	d7 e2 27 a0 	l.sw 0xffffffa0(r2),r4
    2220:	84 62 ff a0 	l.lwz r3,0xffffffa0(r2)
    2224:	d7 e2 1f 9c 	l.sw 0xffffff9c(r2),r3
    2228:	84 82 ff 9c 	l.lwz r4,0xffffff9c(r2)
    222c:	b8 84 00 03 	l.slli r4,r4,0x3
    2230:	d7 e2 27 98 	l.sw 0xffffff98(r2),r4
    2234:	84 62 ff 98 	l.lwz r3,0xffffff98(r2)
    2238:	84 82 ff a4 	l.lwz r4,0xffffffa4(r2)
    223c:	e0 63 20 00 	l.add r3,r3,r4
    2240:	d7 e2 1f 94 	l.sw 0xffffff94(r2),r3
    2244:	18 60 00 00 	l.movhi r3,0x0
    2248:	a8 63 f3 80 	l.ori r3,r3,0xf380
    224c:	d7 e2 1f 90 	l.sw 0xffffff90(r2),r3
    2250:	84 82 ff f8 	l.lwz r4,0xfffffff8(r2)
    2254:	d7 e2 27 8c 	l.sw 0xffffff8c(r2),r4
    2258:	84 62 ff 8c 	l.lwz r3,0xffffff8c(r2)
    225c:	d7 e2 1f 88 	l.sw 0xffffff88(r2),r3
    2260:	84 82 ff 88 	l.lwz r4,0xffffff88(r2)
    2264:	b8 84 00 03 	l.slli r4,r4,0x3
    2268:	d7 e2 27 84 	l.sw 0xffffff84(r2),r4
    226c:	84 62 ff 84 	l.lwz r3,0xffffff84(r2)
    2270:	84 82 ff 90 	l.lwz r4,0xffffff90(r2)
    2274:	e0 63 20 00 	l.add r3,r3,r4
    2278:	d7 e2 1f 80 	l.sw 0xffffff80(r2),r3
    227c:	84 62 ff 80 	l.lwz r3,0xffffff80(r2)
    2280:	9c 63 00 04 	l.addi r3,r3,0x4
    2284:	d7 e2 1f 7c 	l.sw 0xffffff7c(r2),r3
    2288:	84 82 ff 94 	l.lwz r4,0xffffff94(r2)
    228c:	84 84 00 00 	l.lwz r4,0x0(r4)
    2290:	d7 e2 27 78 	l.sw 0xffffff78(r2),r4
    2294:	84 82 ff 7c 	l.lwz r4,0xffffff7c(r2)
    2298:	84 64 00 00 	l.lwz r3,0x0(r4)
    229c:	84 82 ff 78 	l.lwz r4,0xffffff78(r2)
    22a0:	48 00 20 00 	l.jalr r4
    22a4:	15 00 00 00 	l.nop 0x0
    22a8:	9c 60 48 02 	l.addi r3,r0,0x4802
    22ac:	d7 e2 1f 70 	l.sw 0xffffff70(r2),r3
    22b0:	84 82 ff 70 	l.lwz r4,0xffffff70(r2)
    22b4:	b4 84 00 00 	l.mfspr r4,r4,0x0
    22b8:	d7 e2 27 74 	l.sw 0xffffff74(r2),r4
    22bc:	84 62 ff 74 	l.lwz r3,0xffffff74(r2)
    22c0:	d7 e2 1f 6c 	l.sw 0xffffff6c(r2),r3
    22c4:	84 82 ff 6c 	l.lwz r4,0xffffff6c(r2)
    22c8:	d7 e2 27 f0 	l.sw 0xfffffff0(r2),r4
    22cc:	84 62 ff f0 	l.lwz r3,0xfffffff0(r2)
    22d0:	d7 e2 1f 68 	l.sw 0xffffff68(r2),r3
    22d4:	9c 80 00 01 	l.addi r4,r0,0x1
    22d8:	d7 e2 27 60 	l.sw 0xffffff60(r2),r4
    22dc:	84 62 ff f8 	l.lwz r3,0xfffffff8(r2)
    22e0:	d7 e2 1f 5c 	l.sw 0xffffff5c(r2),r3
    22e4:	84 82 ff 60 	l.lwz r4,0xffffff60(r2)
    22e8:	84 62 ff 5c 	l.lwz r3,0xffffff5c(r2)
    22ec:	e0 84 18 08 	l.sll r4,r4,r3
    22f0:	d7 e2 27 64 	l.sw 0xffffff64(r2),r4
    22f4:	84 82 ff 64 	l.lwz r4,0xffffff64(r2)
    22f8:	ac 84 ff ff 	l.xori r4,r4,0xffffffff
    22fc:	d7 e2 27 58 	l.sw 0xffffff58(r2),r4
    2300:	84 62 ff 68 	l.lwz r3,0xffffff68(r2)
    2304:	84 82 ff 58 	l.lwz r4,0xffffff58(r2)
    2308:	e0 63 20 03 	l.and r3,r3,r4
    230c:	d7 e2 1f 54 	l.sw 0xffffff54(r2),r3
    2310:	84 62 ff 54 	l.lwz r3,0xffffff54(r2)
    2314:	d7 e2 1f f4 	l.sw 0xfffffff4(r2),r3
    2318:	9c 80 48 02 	l.addi r4,r0,0x4802
    231c:	d7 e2 27 50 	l.sw 0xffffff50(r2),r4
    2320:	84 62 ff f4 	l.lwz r3,0xfffffff4(r2)
    2324:	d7 e2 1f 4c 	l.sw 0xffffff4c(r2),r3
    2328:	84 82 ff 50 	l.lwz r4,0xffffff50(r2)
    232c:	84 62 ff 4c 	l.lwz r3,0xffffff4c(r2)
    2330:	c0 04 18 00 	l.mtspr r4,r3,0x0
    2334:	84 82 ff f8 	l.lwz r4,0xfffffff8(r2)
    2338:	d7 e2 27 48 	l.sw 0xffffff48(r2),r4
    233c:	84 62 ff 48 	l.lwz r3,0xffffff48(r2)
    2340:	9c 63 00 01 	l.addi r3,r3,0x1
    2344:	d7 e2 1f 44 	l.sw 0xffffff44(r2),r3
    2348:	84 82 ff 44 	l.lwz r4,0xffffff44(r2)
    234c:	d7 e2 27 f8 	l.sw 0xfffffff8(r2),r4
    2350:	03 ff ff 82 	l.j 2158 <_int_main+0x70>
    2354:	15 00 00 00 	l.nop 0x0
    2358:	85 21 00 00 	l.lwz r9,0x0(r1)
    235c:	84 41 00 04 	l.lwz r2,0x4(r1)
    2360:	44 00 48 00 	l.jr r9
    2364:	9c 21 00 c4 	l.addi r1,r1,0xc4

00002368 <_malloc>:
    2368:	9c 21 ff f8 	l.addi r1,r1,0xfffffff8
    236c:	d4 01 10 04 	l.sw 0x4(r1),r2
    2370:	9c 41 00 08 	l.addi r2,r1,0x8
    2374:	d4 01 48 00 	l.sw 0x0(r1),r9
    2378:	a8 83 00 00 	l.ori r4,r3,0x0
    237c:	18 60 00 00 	l.movhi r3,0x0
    2380:	a8 63 e6 bc 	l.ori r3,r3,0xe6bc
    2384:	04 00 00 5e 	l.jal 24fc <__malloc_r>
    2388:	84 63 00 00 	l.lwz r3,0x0(r3)
    238c:	85 21 00 00 	l.lwz r9,0x0(r1)
    2390:	84 41 00 04 	l.lwz r2,0x4(r1)
    2394:	44 00 48 00 	l.jr r9
    2398:	9c 21 00 08 	l.addi r1,r1,0x8

0000239c <_free>:
    239c:	9c 21 ff f8 	l.addi r1,r1,0xfffffff8
    23a0:	d4 01 10 04 	l.sw 0x4(r1),r2
    23a4:	9c 41 00 08 	l.addi r2,r1,0x8
    23a8:	d4 01 48 00 	l.sw 0x0(r1),r9
    23ac:	a8 83 00 00 	l.ori r4,r3,0x0
    23b0:	18 60 00 00 	l.movhi r3,0x0
    23b4:	a8 63 e6 bc 	l.ori r3,r3,0xe6bc
    23b8:	04 00 02 c8 	l.jal 2ed8 <__free_r>
    23bc:	84 63 00 00 	l.lwz r3,0x0(r3)
    23c0:	85 21 00 00 	l.lwz r9,0x0(r1)
    23c4:	84 41 00 04 	l.lwz r2,0x4(r1)
    23c8:	44 00 48 00 	l.jr r9
    23cc:	9c 21 00 08 	l.addi r1,r1,0x8

000023d0 <_clock>:
    23d0:	9c 21 ff e8 	l.addi r1,r1,0xffffffe8
    23d4:	d4 01 10 04 	l.sw 0x4(r1),r2
    23d8:	9c 41 00 18 	l.addi r2,r1,0x18
    23dc:	d4 01 48 00 	l.sw 0x0(r1),r9
    23e0:	18 60 00 00 	l.movhi r3,0x0
    23e4:	a8 63 e6 bc 	l.ori r3,r3,0xe6bc
    23e8:	9c 82 ff f0 	l.addi r4,r2,0xfffffff0
    23ec:	04 00 03 7f 	l.jal 31e8 <__times_r>
    23f0:	84 63 00 00 	l.lwz r3,0x0(r3)
    23f4:	bc 0b ff ff 	l.sfeqi r11,0xffffffff
    23f8:	10 00 00 08 	l.bf 2418 <_clock+0x48>
    23fc:	84 62 ff f0 	l.lwz r3,0xfffffff0(r2)
    2400:	84 82 ff f4 	l.lwz r4,0xfffffff4(r2)
    2404:	e0 83 20 00 	l.add r4,r3,r4
    2408:	84 62 ff f8 	l.lwz r3,0xfffffff8(r2)
    240c:	e1 64 18 00 	l.add r11,r4,r3
    2410:	84 62 ff fc 	l.lwz r3,0xfffffffc(r2)
    2414:	e1 6b 18 00 	l.add r11,r11,r3
    2418:	85 21 00 00 	l.lwz r9,0x0(r1)
    241c:	84 41 00 04 	l.lwz r2,0x4(r1)
    2420:	44 00 48 00 	l.jr r9
    2424:	9c 21 00 18 	l.addi r1,r1,0x18

00002428 <__printf_r>:
    2428:	9c 21 ff f8 	l.addi r1,r1,0xfffffff8
    242c:	d4 01 10 04 	l.sw 0x4(r1),r2
    2430:	9c 41 00 08 	l.addi r2,r1,0x8
    2434:	d4 01 48 00 	l.sw 0x0(r1),r9
    2438:	84 83 00 08 	l.lwz r4,0x8(r3)
    243c:	9c c2 00 04 	l.addi r6,r2,0x4
    2440:	04 00 03 a6 	l.jal 32d8 <__vfprintf_r>
    2444:	84 a2 00 00 	l.lwz r5,0x0(r2)
    2448:	85 21 00 00 	l.lwz r9,0x0(r1)
    244c:	84 41 00 04 	l.lwz r2,0x4(r1)
    2450:	44 00 48 00 	l.jr r9
    2454:	9c 21 00 08 	l.addi r1,r1,0x8

00002458 <_printf>:
    2458:	9c 21 ff f8 	l.addi r1,r1,0xfffffff8
    245c:	d4 01 10 04 	l.sw 0x4(r1),r2
    2460:	9c 41 00 08 	l.addi r2,r1,0x8
    2464:	d4 01 48 00 	l.sw 0x0(r1),r9
    2468:	18 60 00 00 	l.movhi r3,0x0
    246c:	a8 63 e6 bc 	l.ori r3,r3,0xe6bc
    2470:	84 82 00 00 	l.lwz r4,0x0(r2)
    2474:	9c a2 00 04 	l.addi r5,r2,0x4
    2478:	84 63 00 00 	l.lwz r3,0x0(r3)
    247c:	04 00 0a b3 	l.jal 4f48 <_vfprintf>
    2480:	84 63 00 08 	l.lwz r3,0x8(r3)
    2484:	85 21 00 00 	l.lwz r9,0x0(r1)
    2488:	84 41 00 04 	l.lwz r2,0x4(r1)
    248c:	44 00 48 00 	l.jr r9
    2490:	9c 21 00 08 	l.addi r1,r1,0x8

00002494 <_exit>:
    2494:	9c 21 ff f4 	l.addi r1,r1,0xfffffff4
    2498:	d4 01 10 04 	l.sw 0x4(r1),r2
    249c:	9c 41 00 0c 	l.addi r2,r1,0xc
    24a0:	d4 01 48 00 	l.sw 0x0(r1),r9
    24a4:	d4 01 50 08 	l.sw 0x8(r1),r10
    24a8:	a9 43 00 00 	l.ori r10,r3,0x0
    24ac:	04 00 0a b8 	l.jal 4f8c <___call_exitprocs>
    24b0:	9c 80 00 00 	l.addi r4,r0,0x0
    24b4:	18 60 00 00 	l.movhi r3,0x0
    24b8:	a8 63 de 64 	l.ori r3,r3,0xde64
    24bc:	84 63 00 00 	l.lwz r3,0x0(r3)
    24c0:	84 83 00 3c 	l.lwz r4,0x3c(r3)
    24c4:	bc 04 00 00 	l.sfeqi r4,0x0
    24c8:	0c 00 00 04 	l.bnf 24d8 <_exit+0x44>
    24cc:	15 00 00 00 	l.nop 0x0
    24d0:	04 00 21 15 	l.jal a924 <__exit>
    24d4:	a8 6a 00 00 	l.ori r3,r10,0x0
    24d8:	48 00 20 00 	l.jalr r4
    24dc:	15 00 00 00 	l.nop 0x0
    24e0:	03 ff ff fc 	l.j 24d0 <_exit+0x3c>
    24e4:	15 00 00 00 	l.nop 0x0
    24e8:	85 21 00 00 	l.lwz r9,0x0(r1)
    24ec:	84 41 00 04 	l.lwz r2,0x4(r1)
    24f0:	85 41 00 08 	l.lwz r10,0x8(r1)
    24f4:	44 00 48 00 	l.jr r9
    24f8:	9c 21 00 0c 	l.addi r1,r1,0xc

000024fc <__malloc_r>:
    24fc:	9c 21 ff cc 	l.addi r1,r1,0xffffffcc
    2500:	d4 01 10 04 	l.sw 0x4(r1),r2
    2504:	9c 41 00 34 	l.addi r2,r1,0x34
    2508:	d4 01 48 00 	l.sw 0x0(r1),r9
    250c:	d4 01 50 08 	l.sw 0x8(r1),r10
    2510:	d4 01 60 0c 	l.sw 0xc(r1),r12
    2514:	d4 01 70 10 	l.sw 0x10(r1),r14
    2518:	d4 01 80 14 	l.sw 0x14(r1),r16
    251c:	d4 01 90 18 	l.sw 0x18(r1),r18
    2520:	d4 01 a0 1c 	l.sw 0x1c(r1),r20
    2524:	d4 01 b0 20 	l.sw 0x20(r1),r22
    2528:	d4 01 c0 24 	l.sw 0x24(r1),r24
    252c:	d4 01 d0 28 	l.sw 0x28(r1),r26
    2530:	d4 01 e0 2c 	l.sw 0x2c(r1),r28
    2534:	d4 01 f0 30 	l.sw 0x30(r1),r30
    2538:	ab 03 00 00 	l.ori r24,r3,0x0
    253c:	9c 64 00 0b 	l.addi r3,r4,0xb
    2540:	bc a3 00 16 	l.sfleui r3,0x16
    2544:	10 00 00 04 	l.bf 2554 <__malloc_r+0x58>
    2548:	9d 80 00 10 	l.addi r12,r0,0x10
    254c:	9c a0 ff f8 	l.addi r5,r0,0xfffffff8
    2550:	e1 83 28 03 	l.and r12,r3,r5
    2554:	9c a0 00 00 	l.addi r5,r0,0x0
    2558:	e5 6c 28 00 	l.sfges r12,r5
    255c:	10 00 00 03 	l.bf 2568 <__malloc_r+0x6c>
    2560:	e4 6c 20 00 	l.sfgeu r12,r4
    2564:	9c a0 00 01 	l.addi r5,r0,0x1
    2568:	10 00 00 03 	l.bf 2574 <__malloc_r+0x78>
    256c:	9c 60 00 00 	l.addi r3,r0,0x0
    2570:	9c 60 00 01 	l.addi r3,r0,0x1
    2574:	e0 65 18 04 	l.or r3,r5,r3
    2578:	bc 03 00 00 	l.sfeqi r3,0x0
    257c:	0c 00 01 f6 	l.bnf 2d54 <__malloc_r+0x858>
    2580:	9d 60 00 00 	l.addi r11,r0,0x0
    2584:	04 00 0a f9 	l.jal 5168 <___malloc_lock>
    2588:	a8 78 00 00 	l.ori r3,r24,0x0
    258c:	bc 4c 01 f7 	l.sfgtui r12,0x1f7
    2590:	10 00 00 87 	l.bf 27ac <__malloc_r+0x2b0>
    2594:	15 00 00 00 	l.nop 0x0
    2598:	19 a0 00 00 	l.movhi r13,0x0
    259c:	a9 ad e6 fc 	l.ori r13,r13,0xe6fc
    25a0:	e0 cc 68 00 	l.add r6,r12,r13
    25a4:	85 46 00 0c 	l.lwz r10,0xc(r6)
    25a8:	e4 2a 30 00 	l.sfne r10,r6
    25ac:	0c 00 00 de 	l.bnf 2924 <__malloc_r+0x428>
    25b0:	b9 0c 00 43 	l.srli r8,r12,0x3
    25b4:	e4 0a 30 00 	l.sfeq r10,r6
    25b8:	0c 00 00 e0 	l.bnf 2938 <__malloc_r+0x43c>
    25bc:	9d 08 00 02 	l.addi r8,r8,0x2
    25c0:	19 60 00 00 	l.movhi r11,0x0
    25c4:	a9 6b e7 04 	l.ori r11,r11,0xe704
    25c8:	85 4b 00 08 	l.lwz r10,0x8(r11)
    25cc:	e4 0a 58 00 	l.sfeq r10,r11
    25d0:	10 00 00 20 	l.bf 2650 <__malloc_r+0x154>
    25d4:	b8 68 00 9f 	l.srai r3,r8,0x1f
    25d8:	84 6a 00 04 	l.lwz r3,0x4(r10)
    25dc:	9d a0 ff fc 	l.addi r13,r0,0xfffffffc
    25e0:	e0 a3 68 03 	l.and r5,r3,r13
    25e4:	e0 65 60 02 	l.sub r3,r5,r12
    25e8:	bd a3 00 0f 	l.sflesi r3,0xf
    25ec:	0c 00 01 38 	l.bnf 2acc <__malloc_r+0x5d0>
    25f0:	bd 83 00 00 	l.sfltsi r3,0x0
    25f4:	d4 0b 58 0c 	l.sw 0xc(r11),r11
    25f8:	0c 00 01 5d 	l.bnf 2b6c <__malloc_r+0x670>
    25fc:	d4 0b 58 08 	l.sw 0x8(r11),r11
    2600:	bc 45 01 ff 	l.sfgtui r5,0x1ff
    2604:	10 00 01 3f 	l.bf 2b00 <__malloc_r+0x604>
    2608:	b8 65 00 49 	l.srli r3,r5,0x9
    260c:	b8 85 00 43 	l.srli r4,r5,0x3
    2610:	1b c0 00 00 	l.movhi r30,0x0
    2614:	ab de e6 fc 	l.ori r30,r30,0xe6fc
    2618:	b8 64 00 03 	l.slli r3,r4,0x3
    261c:	84 be 00 04 	l.lwz r5,0x4(r30)
    2620:	e0 e3 f0 00 	l.add r7,r3,r30
    2624:	b8 84 00 42 	l.srli r4,r4,0x2
    2628:	9c 60 00 01 	l.addi r3,r0,0x1
    262c:	84 c7 00 08 	l.lwz r6,0x8(r7)
    2630:	e0 63 20 08 	l.sll r3,r3,r4
    2634:	d4 0a 38 0c 	l.sw 0xc(r10),r7
    2638:	e0 65 18 04 	l.or r3,r5,r3
    263c:	d4 0a 30 08 	l.sw 0x8(r10),r6
    2640:	d4 1e 18 04 	l.sw 0x4(r30),r3
    2644:	d4 06 50 0c 	l.sw 0xc(r6),r10
    2648:	d4 07 50 08 	l.sw 0x8(r7),r10
    264c:	b8 68 00 9f 	l.srai r3,r8,0x1f
    2650:	1b c0 00 00 	l.movhi r30,0x0
    2654:	ab de e6 fc 	l.ori r30,r30,0xe6fc
    2658:	9c 80 00 01 	l.addi r4,r0,0x1
    265c:	b8 63 00 5e 	l.srli r3,r3,0x1e
    2660:	84 be 00 04 	l.lwz r5,0x4(r30)
    2664:	e0 68 18 00 	l.add r3,r8,r3
    2668:	b8 63 00 82 	l.srai r3,r3,0x2
    266c:	e0 e4 18 08 	l.sll r7,r4,r3
    2670:	e4 47 28 00 	l.sfgtu r7,r5
    2674:	10 00 00 be 	l.bf 296c <__malloc_r+0x470>
    2678:	15 00 00 00 	l.nop 0x0
    267c:	e0 65 38 03 	l.and r3,r5,r7
    2680:	bc 23 00 00 	l.sfnei r3,0x0
    2684:	10 00 00 0f 	l.bf 26c0 <__malloc_r+0x1c4>
    2688:	b8 68 00 03 	l.slli r3,r8,0x3
    268c:	e0 e7 20 08 	l.sll r7,r7,r4
    2690:	9c c0 ff fc 	l.addi r6,r0,0xfffffffc
    2694:	e0 85 38 03 	l.and r4,r5,r7
    2698:	e0 68 30 03 	l.and r3,r8,r6
    269c:	bc 24 00 00 	l.sfnei r4,0x0
    26a0:	10 00 00 07 	l.bf 26bc <__malloc_r+0x1c0>
    26a4:	9d 03 00 04 	l.addi r8,r3,0x4
    26a8:	b8 e7 00 01 	l.slli r7,r7,0x1
    26ac:	e0 65 38 03 	l.and r3,r5,r7
    26b0:	bc 23 00 00 	l.sfnei r3,0x0
    26b4:	0f ff ff fd 	l.bnf 26a8 <__malloc_r+0x1ac>
    26b8:	9d 08 00 04 	l.addi r8,r8,0x4
    26bc:	b8 68 00 03 	l.slli r3,r8,0x3
    26c0:	19 a0 00 00 	l.movhi r13,0x0
    26c4:	a9 ad e6 fc 	l.ori r13,r13,0xe6fc
    26c8:	a9 28 00 00 	l.ori r9,r8,0x0
    26cc:	e0 c3 68 00 	l.add r6,r3,r13
    26d0:	a8 86 00 00 	l.ori r4,r6,0x0
    26d4:	85 44 00 0c 	l.lwz r10,0xc(r4)
    26d8:	e4 0a 20 00 	l.sfeq r10,r4
    26dc:	10 00 00 0f 	l.bf 2718 <__malloc_r+0x21c>
    26e0:	15 00 00 00 	l.nop 0x0
    26e4:	84 6a 00 04 	l.lwz r3,0x4(r10)
    26e8:	9d a0 ff fc 	l.addi r13,r0,0xfffffffc
    26ec:	e0 a3 68 03 	l.and r5,r3,r13
    26f0:	e0 65 60 02 	l.sub r3,r5,r12
    26f4:	bd a3 00 0f 	l.sflesi r3,0xf
    26f8:	0c 00 01 38 	l.bnf 2bd8 <__malloc_r+0x6dc>
    26fc:	bd 83 00 00 	l.sfltsi r3,0x0
    2700:	0c 00 01 32 	l.bnf 2bc8 <__malloc_r+0x6cc>
    2704:	15 00 00 00 	l.nop 0x0
    2708:	85 4a 00 0c 	l.lwz r10,0xc(r10)
    270c:	e4 0a 20 00 	l.sfeq r10,r4
    2710:	0f ff ff f5 	l.bnf 26e4 <__malloc_r+0x1e8>
    2714:	15 00 00 00 	l.nop 0x0
    2718:	9d 08 00 01 	l.addi r8,r8,0x1
    271c:	a4 68 00 03 	l.andi r3,r8,0x3
    2720:	bc 03 00 00 	l.sfeqi r3,0x0
    2724:	0f ff ff ec 	l.bnf 26d4 <__malloc_r+0x1d8>
    2728:	9c 84 00 08 	l.addi r4,r4,0x8
    272c:	a4 69 00 03 	l.andi r3,r9,0x3
    2730:	9c c6 ff f8 	l.addi r6,r6,0xfffffff8
    2734:	bc 23 00 00 	l.sfnei r3,0x0
    2738:	0c 00 01 50 	l.bnf 2c78 <__malloc_r+0x77c>
    273c:	9d 29 ff ff 	l.addi r9,r9,0xffffffff
    2740:	84 66 00 08 	l.lwz r3,0x8(r6)
    2744:	e4 23 30 00 	l.sfne r3,r6
    2748:	0f ff ff fa 	l.bnf 2730 <__malloc_r+0x234>
    274c:	a4 69 00 03 	l.andi r3,r9,0x3
    2750:	1b c0 00 00 	l.movhi r30,0x0
    2754:	ab de e6 fc 	l.ori r30,r30,0xe6fc
    2758:	b8 e7 00 01 	l.slli r7,r7,0x1
    275c:	84 9e 00 04 	l.lwz r4,0x4(r30)
    2760:	e4 47 20 00 	l.sfgtu r7,r4
    2764:	10 00 00 82 	l.bf 296c <__malloc_r+0x470>
    2768:	bc 07 00 00 	l.sfeqi r7,0x0
    276c:	0c 00 00 06 	l.bnf 2784 <__malloc_r+0x288>
    2770:	15 00 00 00 	l.nop 0x0
    2774:	00 00 00 7f 	l.j 2970 <__malloc_r+0x474>
    2778:	86 5e 00 08 	l.lwz r18,0x8(r30)
    277c:	b8 e7 00 01 	l.slli r7,r7,0x1
    2780:	9d 08 00 04 	l.addi r8,r8,0x4
    2784:	e0 64 38 03 	l.and r3,r4,r7
    2788:	bc 23 00 00 	l.sfnei r3,0x0
    278c:	0f ff ff fc 	l.bnf 277c <__malloc_r+0x280>
    2790:	b8 68 00 03 	l.slli r3,r8,0x3
    2794:	19 a0 00 00 	l.movhi r13,0x0
    2798:	a9 ad e6 fc 	l.ori r13,r13,0xe6fc
    279c:	a9 28 00 00 	l.ori r9,r8,0x0
    27a0:	e0 c3 68 00 	l.add r6,r3,r13
    27a4:	03 ff ff cc 	l.j 26d4 <__malloc_r+0x1d8>
    27a8:	a8 86 00 00 	l.ori r4,r6,0x0
    27ac:	b8 6c 00 49 	l.srli r3,r12,0x9
    27b0:	bc 23 00 00 	l.sfnei r3,0x0
    27b4:	0c 00 00 07 	l.bnf 27d0 <__malloc_r+0x2d4>
    27b8:	b9 0c 00 43 	l.srli r8,r12,0x3
    27bc:	bc 43 00 04 	l.sfgtui r3,0x4
    27c0:	10 00 00 bf 	l.bf 2abc <__malloc_r+0x5c0>
    27c4:	bc 43 00 14 	l.sfgtui r3,0x14
    27c8:	b8 6c 00 46 	l.srli r3,r12,0x6
    27cc:	9d 03 00 38 	l.addi r8,r3,0x38
    27d0:	b8 68 00 03 	l.slli r3,r8,0x3
    27d4:	19 a0 00 00 	l.movhi r13,0x0
    27d8:	a9 ad e6 fc 	l.ori r13,r13,0xe6fc
    27dc:	e0 83 68 00 	l.add r4,r3,r13
    27e0:	85 44 00 0c 	l.lwz r10,0xc(r4)
    27e4:	e4 0a 20 00 	l.sfeq r10,r4
    27e8:	10 00 00 0f 	l.bf 2824 <__malloc_r+0x328>
    27ec:	15 00 00 00 	l.nop 0x0
    27f0:	84 6a 00 04 	l.lwz r3,0x4(r10)
    27f4:	9c c0 ff fc 	l.addi r6,r0,0xfffffffc
    27f8:	e0 a3 30 03 	l.and r5,r3,r6
    27fc:	e0 65 60 02 	l.sub r3,r5,r12
    2800:	bd a3 00 0f 	l.sflesi r3,0xf
    2804:	0c 00 01 08 	l.bnf 2c24 <__malloc_r+0x728>
    2808:	bd 83 00 00 	l.sfltsi r3,0x0
    280c:	0c 00 00 ef 	l.bnf 2bc8 <__malloc_r+0x6cc>
    2810:	15 00 00 00 	l.nop 0x0
    2814:	85 4a 00 0c 	l.lwz r10,0xc(r10)
    2818:	e4 0a 20 00 	l.sfeq r10,r4
    281c:	0f ff ff f5 	l.bnf 27f0 <__malloc_r+0x2f4>
    2820:	15 00 00 00 	l.nop 0x0
    2824:	03 ff ff 67 	l.j 25c0 <__malloc_r+0xc4>
    2828:	9d 08 00 01 	l.addi r8,r8,0x1
    282c:	84 7a 00 00 	l.lwz r3,0x0(r26)
    2830:	bc 23 ff ff 	l.sfnei r3,0xffffffff
    2834:	10 00 01 16 	l.bf 2c8c <__malloc_r+0x790>
    2838:	e0 6a 70 02 	l.sub r3,r10,r14
    283c:	d4 1a 50 00 	l.sw 0x0(r26),r10
    2840:	a4 8a 00 07 	l.andi r4,r10,0x7
    2844:	bc 04 00 00 	l.sfeqi r4,0x0
    2848:	10 00 00 05 	l.bf 285c <__malloc_r+0x360>
    284c:	9d c0 00 00 	l.addi r14,r0,0x0
    2850:	9c 60 00 08 	l.addi r3,r0,0x8
    2854:	e1 c3 20 02 	l.sub r14,r3,r4
    2858:	e1 4a 70 00 	l.add r10,r10,r14
    285c:	e0 8a 80 00 	l.add r4,r10,r16
    2860:	9c a0 10 00 	l.addi r5,r0,0x1000
    2864:	a4 84 0f ff 	l.andi r4,r4,0xfff
    2868:	a8 78 00 00 	l.ori r3,r24,0x0
    286c:	e0 85 20 02 	l.sub r4,r5,r4
    2870:	e1 ce 20 00 	l.add r14,r14,r4
    2874:	04 00 0a 49 	l.jal 5198 <__sbrk_r>
    2878:	a8 8e 00 00 	l.ori r4,r14,0x0
    287c:	bc 2b ff ff 	l.sfnei r11,0xffffffff
    2880:	10 00 00 04 	l.bf 2890 <__malloc_r+0x394>
    2884:	15 00 00 00 	l.nop 0x0
    2888:	9d c0 00 00 	l.addi r14,r0,0x0
    288c:	a9 6a 00 00 	l.ori r11,r10,0x0
    2890:	e0 8b 50 02 	l.sub r4,r11,r10
    2894:	84 7c 00 00 	l.lwz r3,0x0(r28)
    2898:	e1 64 70 00 	l.add r11,r4,r14
    289c:	19 a0 00 00 	l.movhi r13,0x0
    28a0:	a9 ad e6 fc 	l.ori r13,r13,0xe6fc
    28a4:	e0 83 70 00 	l.add r4,r3,r14
    28a8:	e4 12 68 00 	l.sfeq r18,r13
    28ac:	d4 1c 20 00 	l.sw 0x0(r28),r4
    28b0:	d4 1e 50 08 	l.sw 0x8(r30),r10
    28b4:	10 00 00 fa 	l.bf 2c9c <__malloc_r+0x7a0>
    28b8:	a8 8b 00 01 	l.ori r4,r11,0x1
    28bc:	bc 56 00 0f 	l.sfgtui r22,0xf
    28c0:	10 00 01 01 	l.bf 2cc4 <__malloc_r+0x7c8>
    28c4:	9c a0 ff f8 	l.addi r5,r0,0xfffffff8
    28c8:	9c 60 00 01 	l.addi r3,r0,0x1
    28cc:	d4 0a 18 04 	l.sw 0x4(r10),r3
    28d0:	84 7e 00 08 	l.lwz r3,0x8(r30)
    28d4:	9c c0 ff fc 	l.addi r6,r0,0xfffffffc
    28d8:	9c a0 00 00 	l.addi r5,r0,0x0
    28dc:	84 63 00 04 	l.lwz r3,0x4(r3)
    28e0:	e0 63 30 03 	l.and r3,r3,r6
    28e4:	e4 63 60 00 	l.sfgeu r3,r12
    28e8:	10 00 00 03 	l.bf 28f4 <__malloc_r+0x3f8>
    28ec:	e0 63 60 02 	l.sub r3,r3,r12
    28f0:	9c a0 00 01 	l.addi r5,r0,0x1
    28f4:	bd 43 00 0f 	l.sfgtsi r3,0xf
    28f8:	10 00 00 03 	l.bf 2904 <__malloc_r+0x408>
    28fc:	9c 80 00 00 	l.addi r4,r0,0x0
    2900:	9c 80 00 01 	l.addi r4,r0,0x1
    2904:	e0 85 20 04 	l.or r4,r5,r4
    2908:	bc 04 00 00 	l.sfeqi r4,0x0
    290c:	10 00 00 60 	l.bf 2a8c <__malloc_r+0x590>
    2910:	15 00 00 00 	l.nop 0x0
    2914:	04 00 0a 1b 	l.jal 5180 <___malloc_unlock>
    2918:	a8 78 00 00 	l.ori r3,r24,0x0
    291c:	00 00 01 0e 	l.j 2d54 <__malloc_r+0x858>
    2920:	9d 60 00 00 	l.addi r11,r0,0x0
    2924:	9c c6 00 08 	l.addi r6,r6,0x8
    2928:	85 46 00 0c 	l.lwz r10,0xc(r6)
    292c:	e4 0a 30 00 	l.sfeq r10,r6
    2930:	13 ff ff 24 	l.bf 25c0 <__malloc_r+0xc4>
    2934:	9d 08 00 02 	l.addi r8,r8,0x2
    2938:	84 8a 00 04 	l.lwz r4,0x4(r10)
    293c:	9c c0 ff fc 	l.addi r6,r0,0xfffffffc
    2940:	a8 78 00 00 	l.ori r3,r24,0x0
    2944:	e0 a4 30 03 	l.and r5,r4,r6
    2948:	84 ea 00 0c 	l.lwz r7,0xc(r10)
    294c:	e0 aa 28 00 	l.add r5,r10,r5
    2950:	84 85 00 04 	l.lwz r4,0x4(r5)
    2954:	84 ca 00 08 	l.lwz r6,0x8(r10)
    2958:	a8 84 00 01 	l.ori r4,r4,0x1
    295c:	d4 07 30 08 	l.sw 0x8(r7),r6
    2960:	d4 05 20 04 	l.sw 0x4(r5),r4
    2964:	00 00 00 52 	l.j 2aac <__malloc_r+0x5b0>
    2968:	d4 06 38 0c 	l.sw 0xc(r6),r7
    296c:	86 5e 00 08 	l.lwz r18,0x8(r30)
    2970:	9c 80 ff fc 	l.addi r4,r0,0xfffffffc
    2974:	9c a0 00 00 	l.addi r5,r0,0x0
    2978:	84 72 00 04 	l.lwz r3,0x4(r18)
    297c:	e2 c3 20 03 	l.and r22,r3,r4
    2980:	e4 76 60 00 	l.sfgeu r22,r12
    2984:	10 00 00 03 	l.bf 2990 <__malloc_r+0x494>
    2988:	e0 76 60 02 	l.sub r3,r22,r12
    298c:	9c a0 00 01 	l.addi r5,r0,0x1
    2990:	bd 43 00 0f 	l.sfgtsi r3,0xf
    2994:	10 00 00 03 	l.bf 29a0 <__malloc_r+0x4a4>
    2998:	9c 80 00 00 	l.addi r4,r0,0x0
    299c:	9c 80 00 01 	l.addi r4,r0,0x1
    29a0:	e0 85 20 04 	l.or r4,r5,r4
    29a4:	bc 04 00 00 	l.sfeqi r4,0x0
    29a8:	10 00 00 39 	l.bf 2a8c <__malloc_r+0x590>
    29ac:	aa 96 00 00 	l.ori r20,r22,0x0
    29b0:	18 60 00 00 	l.movhi r3,0x0
    29b4:	a8 63 e6 f4 	l.ori r3,r3,0xe6f4
    29b8:	1b 40 00 00 	l.movhi r26,0x0
    29bc:	ab 5a e6 f0 	l.ori r26,r26,0xe6f0
    29c0:	84 63 00 00 	l.lwz r3,0x0(r3)
    29c4:	e1 d2 b0 00 	l.add r14,r18,r22
    29c8:	84 9a 00 00 	l.lwz r4,0x0(r26)
    29cc:	e0 6c 18 00 	l.add r3,r12,r3
    29d0:	bc 04 ff ff 	l.sfeqi r4,0xffffffff
    29d4:	10 00 00 05 	l.bf 29e8 <__malloc_r+0x4ec>
    29d8:	9e 03 00 10 	l.addi r16,r3,0x10
    29dc:	9c 83 10 0f 	l.addi r4,r3,0x100f
    29e0:	9c a0 f0 00 	l.addi r5,r0,0xfffff000
    29e4:	e2 04 28 03 	l.and r16,r4,r5
    29e8:	a8 78 00 00 	l.ori r3,r24,0x0
    29ec:	04 00 09 eb 	l.jal 5198 <__sbrk_r>
    29f0:	a8 90 00 00 	l.ori r4,r16,0x0
    29f4:	bc 0b ff ff 	l.sfeqi r11,0xffffffff
    29f8:	13 ff ff b6 	l.bf 28d0 <__malloc_r+0x3d4>
    29fc:	a9 4b 00 00 	l.ori r10,r11,0x0
    2a00:	e4 6b 70 00 	l.sfgeu r11,r14
    2a04:	0c 00 00 67 	l.bnf 2ba0 <__malloc_r+0x6a4>
    2a08:	15 00 00 00 	l.nop 0x0
    2a0c:	1b 80 00 00 	l.movhi r28,0x0
    2a10:	ab 9c e6 c0 	l.ori r28,r28,0xe6c0
    2a14:	e4 2a 70 00 	l.sfne r10,r14
    2a18:	84 7c 00 00 	l.lwz r3,0x0(r28)
    2a1c:	e0 63 80 00 	l.add r3,r3,r16
    2a20:	13 ff ff 83 	l.bf 282c <__malloc_r+0x330>
    2a24:	d4 1c 18 00 	l.sw 0x0(r28),r3
    2a28:	a4 6e 0f ff 	l.andi r3,r14,0xfff
    2a2c:	bc 23 00 00 	l.sfnei r3,0x0
    2a30:	13 ff ff 7f 	l.bf 282c <__malloc_r+0x330>
    2a34:	e1 70 a0 00 	l.add r11,r16,r20
    2a38:	18 60 00 00 	l.movhi r3,0x0
    2a3c:	a8 63 e6 fc 	l.ori r3,r3,0xe6fc
    2a40:	84 63 00 08 	l.lwz r3,0x8(r3)
    2a44:	a8 8b 00 01 	l.ori r4,r11,0x1
    2a48:	d4 03 20 04 	l.sw 0x4(r3),r4
    2a4c:	18 80 00 00 	l.movhi r4,0x0
    2a50:	a8 84 e6 ec 	l.ori r4,r4,0xe6ec
    2a54:	84 7c 00 00 	l.lwz r3,0x0(r28)
    2a58:	85 a4 00 00 	l.lwz r13,0x0(r4)
    2a5c:	e4 a3 68 00 	l.sfleu r3,r13
    2a60:	10 00 00 03 	l.bf 2a6c <__malloc_r+0x570>
    2a64:	15 00 00 00 	l.nop 0x0
    2a68:	d4 04 18 00 	l.sw 0x0(r4),r3
    2a6c:	18 80 00 00 	l.movhi r4,0x0
    2a70:	a8 84 e6 e8 	l.ori r4,r4,0xe6e8
    2a74:	84 a4 00 00 	l.lwz r5,0x0(r4)
    2a78:	e4 a3 28 00 	l.sfleu r3,r5
    2a7c:	13 ff ff 95 	l.bf 28d0 <__malloc_r+0x3d4>
    2a80:	15 00 00 00 	l.nop 0x0
    2a84:	03 ff ff 93 	l.j 28d0 <__malloc_r+0x3d4>
    2a88:	d4 04 18 00 	l.sw 0x0(r4),r3
    2a8c:	85 5e 00 08 	l.lwz r10,0x8(r30)
    2a90:	a8 8c 00 01 	l.ori r4,r12,0x1
    2a94:	a8 a3 00 01 	l.ori r5,r3,0x1
    2a98:	d4 0a 20 04 	l.sw 0x4(r10),r4
    2a9c:	a8 78 00 00 	l.ori r3,r24,0x0
    2aa0:	e0 8a 60 00 	l.add r4,r10,r12
    2aa4:	d4 04 28 04 	l.sw 0x4(r4),r5
    2aa8:	d4 1e 20 08 	l.sw 0x8(r30),r4
    2aac:	04 00 09 b5 	l.jal 5180 <___malloc_unlock>
    2ab0:	15 00 00 00 	l.nop 0x0
    2ab4:	00 00 00 a8 	l.j 2d54 <__malloc_r+0x858>
    2ab8:	9d 6a 00 08 	l.addi r11,r10,0x8
    2abc:	10 00 00 32 	l.bf 2b84 <__malloc_r+0x688>
    2ac0:	bc 43 00 54 	l.sfgtui r3,0x54
    2ac4:	03 ff ff 43 	l.j 27d0 <__malloc_r+0x2d4>
    2ac8:	9d 03 00 5b 	l.addi r8,r3,0x5b
    2acc:	a8 ac 00 01 	l.ori r5,r12,0x1
    2ad0:	e0 8a 60 00 	l.add r4,r10,r12
    2ad4:	d4 0a 28 04 	l.sw 0x4(r10),r5
    2ad8:	a8 c3 00 01 	l.ori r6,r3,0x1
    2adc:	e0 a4 18 00 	l.add r5,r4,r3
    2ae0:	d4 0b 20 0c 	l.sw 0xc(r11),r4
    2ae4:	d4 0b 20 08 	l.sw 0x8(r11),r4
    2ae8:	d4 05 18 00 	l.sw 0x0(r5),r3
    2aec:	d4 04 58 08 	l.sw 0x8(r4),r11
    2af0:	d4 04 30 04 	l.sw 0x4(r4),r6
    2af4:	d4 04 58 0c 	l.sw 0xc(r4),r11
    2af8:	03 ff ff ed 	l.j 2aac <__malloc_r+0x5b0>
    2afc:	a8 78 00 00 	l.ori r3,r24,0x0
    2b00:	bc 23 00 00 	l.sfnei r3,0x0
    2b04:	0c 00 00 07 	l.bnf 2b20 <__malloc_r+0x624>
    2b08:	b8 85 00 43 	l.srli r4,r5,0x3
    2b0c:	bc 43 00 04 	l.sfgtui r3,0x4
    2b10:	10 00 00 65 	l.bf 2ca4 <__malloc_r+0x7a8>
    2b14:	bc 43 00 14 	l.sfgtui r3,0x14
    2b18:	b8 65 00 46 	l.srli r3,r5,0x6
    2b1c:	9c 83 00 38 	l.addi r4,r3,0x38
    2b20:	b8 64 00 03 	l.slli r3,r4,0x3
    2b24:	18 c0 00 00 	l.movhi r6,0x0
    2b28:	a8 c6 e6 fc 	l.ori r6,r6,0xe6fc
    2b2c:	e0 e3 30 00 	l.add r7,r3,r6
    2b30:	84 c7 00 08 	l.lwz r6,0x8(r7)
    2b34:	e4 26 38 00 	l.sfne r6,r7
    2b38:	10 00 00 3e 	l.bf 2c30 <__malloc_r+0x734>
    2b3c:	e4 06 38 00 	l.sfeq r6,r7
    2b40:	b8 84 00 42 	l.srli r4,r4,0x2
    2b44:	1b c0 00 00 	l.movhi r30,0x0
    2b48:	ab de e6 fc 	l.ori r30,r30,0xe6fc
    2b4c:	9c 60 00 01 	l.addi r3,r0,0x1
    2b50:	84 be 00 04 	l.lwz r5,0x4(r30)
    2b54:	e0 63 20 08 	l.sll r3,r3,r4
    2b58:	e0 65 18 04 	l.or r3,r5,r3
    2b5c:	d4 1e 18 04 	l.sw 0x4(r30),r3
    2b60:	d4 0a 38 0c 	l.sw 0xc(r10),r7
    2b64:	03 ff fe b8 	l.j 2644 <__malloc_r+0x148>
    2b68:	d4 0a 30 08 	l.sw 0x8(r10),r6
    2b6c:	e0 aa 28 00 	l.add r5,r10,r5
    2b70:	a8 78 00 00 	l.ori r3,r24,0x0
    2b74:	84 85 00 04 	l.lwz r4,0x4(r5)
    2b78:	a8 84 00 01 	l.ori r4,r4,0x1
    2b7c:	03 ff ff cc 	l.j 2aac <__malloc_r+0x5b0>
    2b80:	d4 05 20 04 	l.sw 0x4(r5),r4
    2b84:	0c 00 00 0e 	l.bnf 2bbc <__malloc_r+0x6c0>
    2b88:	bc 43 01 54 	l.sfgtui r3,0x154
    2b8c:	10 00 00 4a 	l.bf 2cb4 <__malloc_r+0x7b8>
    2b90:	bc 43 05 54 	l.sfgtui r3,0x554
    2b94:	b8 6c 00 4f 	l.srli r3,r12,0xf
    2b98:	03 ff ff 0e 	l.j 27d0 <__malloc_r+0x2d4>
    2b9c:	9d 03 00 77 	l.addi r8,r3,0x77
    2ba0:	18 c0 00 00 	l.movhi r6,0x0
    2ba4:	a8 c6 e6 fc 	l.ori r6,r6,0xe6fc
    2ba8:	e4 32 30 00 	l.sfne r18,r6
    2bac:	13 ff ff 49 	l.bf 28d0 <__malloc_r+0x3d4>
    2bb0:	15 00 00 00 	l.nop 0x0
    2bb4:	03 ff ff 96 	l.j 2a0c <__malloc_r+0x510>
    2bb8:	15 00 00 00 	l.nop 0x0
    2bbc:	b8 6c 00 4c 	l.srli r3,r12,0xc
    2bc0:	03 ff ff 04 	l.j 27d0 <__malloc_r+0x2d4>
    2bc4:	9d 03 00 6e 	l.addi r8,r3,0x6e
    2bc8:	84 ea 00 0c 	l.lwz r7,0xc(r10)
    2bcc:	e0 aa 28 00 	l.add r5,r10,r5
    2bd0:	03 ff ff 60 	l.j 2950 <__malloc_r+0x454>
    2bd4:	a8 78 00 00 	l.ori r3,r24,0x0
    2bd8:	84 ea 00 0c 	l.lwz r7,0xc(r10)
    2bdc:	e0 8a 60 00 	l.add r4,r10,r12
    2be0:	a8 ac 00 01 	l.ori r5,r12,0x1
    2be4:	84 ca 00 08 	l.lwz r6,0x8(r10)
    2be8:	e1 24 18 00 	l.add r9,r4,r3
    2bec:	a9 03 00 01 	l.ori r8,r3,0x1
    2bf0:	d4 06 38 0c 	l.sw 0xc(r6),r7
    2bf4:	d4 07 30 08 	l.sw 0x8(r7),r6
    2bf8:	19 a0 00 00 	l.movhi r13,0x0
    2bfc:	a9 ad e7 04 	l.ori r13,r13,0xe704
    2c00:	d4 0b 20 0c 	l.sw 0xc(r11),r4
    2c04:	d4 0a 28 04 	l.sw 0x4(r10),r5
    2c08:	d4 0b 20 08 	l.sw 0x8(r11),r4
    2c0c:	d4 09 18 00 	l.sw 0x0(r9),r3
    2c10:	d4 04 68 0c 	l.sw 0xc(r4),r13
    2c14:	d4 04 40 04 	l.sw 0x4(r4),r8
    2c18:	d4 04 68 08 	l.sw 0x8(r4),r13
    2c1c:	03 ff ff a4 	l.j 2aac <__malloc_r+0x5b0>
    2c20:	a8 78 00 00 	l.ori r3,r24,0x0
    2c24:	9d 08 ff ff 	l.addi r8,r8,0xffffffff
    2c28:	03 ff fe 66 	l.j 25c0 <__malloc_r+0xc4>
    2c2c:	9d 08 00 01 	l.addi r8,r8,0x1
    2c30:	10 00 00 10 	l.bf 2c70 <__malloc_r+0x774>
    2c34:	9d a0 ff fc 	l.addi r13,r0,0xfffffffc
    2c38:	84 66 00 04 	l.lwz r3,0x4(r6)
    2c3c:	e0 63 68 03 	l.and r3,r3,r13
    2c40:	e4 a3 28 00 	l.sfleu r3,r5
    2c44:	10 00 00 0b 	l.bf 2c70 <__malloc_r+0x774>
    2c48:	15 00 00 00 	l.nop 0x0
    2c4c:	84 c6 00 08 	l.lwz r6,0x8(r6)
    2c50:	e4 06 38 00 	l.sfeq r6,r7
    2c54:	10 00 00 07 	l.bf 2c70 <__malloc_r+0x774>
    2c58:	9c 80 ff fc 	l.addi r4,r0,0xfffffffc
    2c5c:	84 66 00 04 	l.lwz r3,0x4(r6)
    2c60:	e0 63 20 03 	l.and r3,r3,r4
    2c64:	e4 a3 28 00 	l.sfleu r3,r5
    2c68:	0f ff ff f9 	l.bnf 2c4c <__malloc_r+0x750>
    2c6c:	15 00 00 00 	l.nop 0x0
    2c70:	03 ff ff bc 	l.j 2b60 <__malloc_r+0x664>
    2c74:	84 e6 00 0c 	l.lwz r7,0xc(r6)
    2c78:	84 9e 00 04 	l.lwz r4,0x4(r30)
    2c7c:	ac 67 ff ff 	l.xori r3,r7,0xffffffff
    2c80:	e0 64 18 03 	l.and r3,r4,r3
    2c84:	03 ff fe b3 	l.j 2750 <__malloc_r+0x254>
    2c88:	d4 1e 18 04 	l.sw 0x4(r30),r3
    2c8c:	84 9c 00 00 	l.lwz r4,0x0(r28)
    2c90:	e0 64 18 00 	l.add r3,r4,r3
    2c94:	03 ff fe eb 	l.j 2840 <__malloc_r+0x344>
    2c98:	d4 1c 18 00 	l.sw 0x0(r28),r3
    2c9c:	03 ff ff 6c 	l.j 2a4c <__malloc_r+0x550>
    2ca0:	d4 0a 20 04 	l.sw 0x4(r10),r4
    2ca4:	10 00 00 1a 	l.bf 2d0c <__malloc_r+0x810>
    2ca8:	bc 43 00 54 	l.sfgtui r3,0x54
    2cac:	03 ff ff 9d 	l.j 2b20 <__malloc_r+0x624>
    2cb0:	9c 83 00 5b 	l.addi r4,r3,0x5b
    2cb4:	10 00 00 1b 	l.bf 2d20 <__malloc_r+0x824>
    2cb8:	b8 6c 00 52 	l.srli r3,r12,0x12
    2cbc:	03 ff fe c5 	l.j 27d0 <__malloc_r+0x2d4>
    2cc0:	9d 03 00 7c 	l.addi r8,r3,0x7c
    2cc4:	d4 0a 20 04 	l.sw 0x4(r10),r4
    2cc8:	84 72 00 04 	l.lwz r3,0x4(r18)
    2ccc:	9c 96 ff f4 	l.addi r4,r22,0xfffffff4
    2cd0:	9c c0 00 05 	l.addi r6,r0,0x5
    2cd4:	e2 84 28 03 	l.and r20,r4,r5
    2cd8:	a4 63 00 01 	l.andi r3,r3,0x1
    2cdc:	e0 92 a0 00 	l.add r4,r18,r20
    2ce0:	e0 63 a0 04 	l.or r3,r3,r20
    2ce4:	bc b4 00 0f 	l.sfleui r20,0xf
    2ce8:	d4 12 18 04 	l.sw 0x4(r18),r3
    2cec:	d4 04 30 08 	l.sw 0x8(r4),r6
    2cf0:	13 ff ff 57 	l.bf 2a4c <__malloc_r+0x550>
    2cf4:	d4 04 30 04 	l.sw 0x4(r4),r6
    2cf8:	9c 92 00 08 	l.addi r4,r18,0x8
    2cfc:	04 00 00 77 	l.jal 2ed8 <__free_r>
    2d00:	a8 78 00 00 	l.ori r3,r24,0x0
    2d04:	03 ff ff 52 	l.j 2a4c <__malloc_r+0x550>
    2d08:	15 00 00 00 	l.nop 0x0
    2d0c:	10 00 00 07 	l.bf 2d28 <__malloc_r+0x82c>
    2d10:	bc 43 01 54 	l.sfgtui r3,0x154
    2d14:	b8 65 00 4c 	l.srli r3,r5,0xc
    2d18:	03 ff ff 82 	l.j 2b20 <__malloc_r+0x624>
    2d1c:	9c 83 00 6e 	l.addi r4,r3,0x6e
    2d20:	03 ff fe ac 	l.j 27d0 <__malloc_r+0x2d4>
    2d24:	9d 00 00 7e 	l.addi r8,r0,0x7e
    2d28:	10 00 00 05 	l.bf 2d3c <__malloc_r+0x840>
    2d2c:	bc 43 05 54 	l.sfgtui r3,0x554
    2d30:	b8 65 00 4f 	l.srli r3,r5,0xf
    2d34:	03 ff ff 7b 	l.j 2b20 <__malloc_r+0x624>
    2d38:	9c 83 00 77 	l.addi r4,r3,0x77
    2d3c:	10 00 00 04 	l.bf 2d4c <__malloc_r+0x850>
    2d40:	b8 65 00 52 	l.srli r3,r5,0x12
    2d44:	03 ff ff 77 	l.j 2b20 <__malloc_r+0x624>
    2d48:	9c 83 00 7c 	l.addi r4,r3,0x7c
    2d4c:	03 ff ff 75 	l.j 2b20 <__malloc_r+0x624>
    2d50:	9c 80 00 7e 	l.addi r4,r0,0x7e
    2d54:	85 21 00 00 	l.lwz r9,0x0(r1)
    2d58:	84 41 00 04 	l.lwz r2,0x4(r1)
    2d5c:	85 41 00 08 	l.lwz r10,0x8(r1)
    2d60:	85 81 00 0c 	l.lwz r12,0xc(r1)
    2d64:	85 c1 00 10 	l.lwz r14,0x10(r1)
    2d68:	86 01 00 14 	l.lwz r16,0x14(r1)
    2d6c:	86 41 00 18 	l.lwz r18,0x18(r1)
    2d70:	86 81 00 1c 	l.lwz r20,0x1c(r1)
    2d74:	86 c1 00 20 	l.lwz r22,0x20(r1)
    2d78:	87 01 00 24 	l.lwz r24,0x24(r1)
    2d7c:	87 41 00 28 	l.lwz r26,0x28(r1)
    2d80:	87 81 00 2c 	l.lwz r28,0x2c(r1)
    2d84:	87 c1 00 30 	l.lwz r30,0x30(r1)
    2d88:	44 00 48 00 	l.jr r9
    2d8c:	9c 21 00 34 	l.addi r1,r1,0x34

00002d90 <__malloc_trim_r>:
    2d90:	9c 21 ff e8 	l.addi r1,r1,0xffffffe8
    2d94:	d4 01 10 04 	l.sw 0x4(r1),r2
    2d98:	9c 41 00 18 	l.addi r2,r1,0x18
    2d9c:	d4 01 48 00 	l.sw 0x0(r1),r9
    2da0:	d4 01 50 08 	l.sw 0x8(r1),r10
    2da4:	d4 01 60 0c 	l.sw 0xc(r1),r12
    2da8:	d4 01 70 10 	l.sw 0x10(r1),r14
    2dac:	d4 01 80 14 	l.sw 0x14(r1),r16
    2db0:	a9 c4 00 00 	l.ori r14,r4,0x0
    2db4:	1a 00 00 00 	l.movhi r16,0x0
    2db8:	aa 10 e6 fc 	l.ori r16,r16,0xe6fc
    2dbc:	04 00 08 eb 	l.jal 5168 <___malloc_lock>
    2dc0:	a9 43 00 00 	l.ori r10,r3,0x0
    2dc4:	84 b0 00 08 	l.lwz r5,0x8(r16)
    2dc8:	9c c0 ff fc 	l.addi r6,r0,0xfffffffc
    2dcc:	a8 6a 00 00 	l.ori r3,r10,0x0
    2dd0:	84 a5 00 04 	l.lwz r5,0x4(r5)
    2dd4:	e1 85 30 03 	l.and r12,r5,r6
    2dd8:	e0 ac 70 02 	l.sub r5,r12,r14
    2ddc:	9c c0 f0 00 	l.addi r6,r0,0xfffff000
    2de0:	9c a5 0f ef 	l.addi r5,r5,0xfef
    2de4:	e0 a5 30 03 	l.and r5,r5,r6
    2de8:	e1 c5 30 00 	l.add r14,r5,r6
    2dec:	bd 6e 10 00 	l.sfgesi r14,0x1000
    2df0:	0c 00 00 0a 	l.bnf 2e18 <__malloc_trim_r+0x88>
    2df4:	9c 80 00 00 	l.addi r4,r0,0x0
    2df8:	04 00 08 e8 	l.jal 5198 <__sbrk_r>
    2dfc:	15 00 00 00 	l.nop 0x0
    2e00:	84 b0 00 08 	l.lwz r5,0x8(r16)
    2e04:	a8 6a 00 00 	l.ori r3,r10,0x0
    2e08:	e0 a5 60 00 	l.add r5,r5,r12
    2e0c:	e4 05 58 00 	l.sfeq r5,r11
    2e10:	10 00 00 06 	l.bf 2e28 <__malloc_trim_r+0x98>
    2e14:	e0 80 70 02 	l.sub r4,r0,r14
    2e18:	04 00 08 da 	l.jal 5180 <___malloc_unlock>
    2e1c:	15 00 00 00 	l.nop 0x0
    2e20:	00 00 00 26 	l.j 2eb8 <__malloc_trim_r+0x128>
    2e24:	9d 60 00 00 	l.addi r11,r0,0x0
    2e28:	04 00 08 dc 	l.jal 5198 <__sbrk_r>
    2e2c:	a8 6a 00 00 	l.ori r3,r10,0x0
    2e30:	e0 ac 70 02 	l.sub r5,r12,r14
    2e34:	a8 6a 00 00 	l.ori r3,r10,0x0
    2e38:	9c 80 00 00 	l.addi r4,r0,0x0
    2e3c:	18 e0 00 00 	l.movhi r7,0x0
    2e40:	a8 e7 e6 c0 	l.ori r7,r7,0xe6c0
    2e44:	bc 2b ff ff 	l.sfnei r11,0xffffffff
    2e48:	10 00 00 14 	l.bf 2e98 <__malloc_trim_r+0x108>
    2e4c:	a8 c5 00 01 	l.ori r6,r5,0x1
    2e50:	04 00 08 d2 	l.jal 5198 <__sbrk_r>
    2e54:	15 00 00 00 	l.nop 0x0
    2e58:	84 f0 00 08 	l.lwz r7,0x8(r16)
    2e5c:	a8 cb 00 00 	l.ori r6,r11,0x0
    2e60:	a8 6a 00 00 	l.ori r3,r10,0x0
    2e64:	e1 8b 38 02 	l.sub r12,r11,r7
    2e68:	bd ac 00 0f 	l.sflesi r12,0xf
    2e6c:	13 ff ff eb 	l.bf 2e18 <__malloc_trim_r+0x88>
    2e70:	a8 ac 00 01 	l.ori r5,r12,0x1
    2e74:	18 80 00 00 	l.movhi r4,0x0
    2e78:	a8 84 e6 f0 	l.ori r4,r4,0xe6f0
    2e7c:	d4 07 28 04 	l.sw 0x4(r7),r5
    2e80:	85 64 00 00 	l.lwz r11,0x0(r4)
    2e84:	18 80 00 00 	l.movhi r4,0x0
    2e88:	a8 84 e6 c0 	l.ori r4,r4,0xe6c0
    2e8c:	e1 66 58 02 	l.sub r11,r6,r11
    2e90:	03 ff ff e2 	l.j 2e18 <__malloc_trim_r+0x88>
    2e94:	d4 04 58 00 	l.sw 0x0(r4),r11
    2e98:	84 87 00 00 	l.lwz r4,0x0(r7)
    2e9c:	a8 6a 00 00 	l.ori r3,r10,0x0
    2ea0:	84 b0 00 08 	l.lwz r5,0x8(r16)
    2ea4:	e0 84 70 02 	l.sub r4,r4,r14
    2ea8:	d4 05 30 04 	l.sw 0x4(r5),r6
    2eac:	04 00 08 b5 	l.jal 5180 <___malloc_unlock>
    2eb0:	d4 07 20 00 	l.sw 0x0(r7),r4
    2eb4:	9d 60 00 01 	l.addi r11,r0,0x1
    2eb8:	85 21 00 00 	l.lwz r9,0x0(r1)
    2ebc:	84 41 00 04 	l.lwz r2,0x4(r1)
    2ec0:	85 41 00 08 	l.lwz r10,0x8(r1)
    2ec4:	85 81 00 0c 	l.lwz r12,0xc(r1)
    2ec8:	85 c1 00 10 	l.lwz r14,0x10(r1)
    2ecc:	86 01 00 14 	l.lwz r16,0x14(r1)
    2ed0:	44 00 48 00 	l.jr r9
    2ed4:	9c 21 00 18 	l.addi r1,r1,0x18

00002ed8 <__free_r>:
    2ed8:	9c 21 ff f0 	l.addi r1,r1,0xfffffff0
    2edc:	d4 01 10 04 	l.sw 0x4(r1),r2
    2ee0:	9c 41 00 10 	l.addi r2,r1,0x10
    2ee4:	d4 01 48 00 	l.sw 0x0(r1),r9
    2ee8:	d4 01 50 08 	l.sw 0x8(r1),r10
    2eec:	d4 01 60 0c 	l.sw 0xc(r1),r12
    2ef0:	a9 44 00 00 	l.ori r10,r4,0x0
    2ef4:	bc 24 00 00 	l.sfnei r4,0x0
    2ef8:	0c 00 00 b6 	l.bnf 31d0 <__free_r+0x2f8>
    2efc:	a9 83 00 00 	l.ori r12,r3,0x0
    2f00:	04 00 08 9a 	l.jal 5168 <___malloc_lock>
    2f04:	15 00 00 00 	l.nop 0x0
    2f08:	9c 8a ff f8 	l.addi r4,r10,0xfffffff8
    2f0c:	9c a0 ff fe 	l.addi r5,r0,0xfffffffe
    2f10:	84 64 00 04 	l.lwz r3,0x4(r4)
    2f14:	19 40 00 00 	l.movhi r10,0x0
    2f18:	a9 4a e6 fc 	l.ori r10,r10,0xe6fc
    2f1c:	9d 20 ff fc 	l.addi r9,r0,0xfffffffc
    2f20:	e0 e3 28 03 	l.and r7,r3,r5
    2f24:	85 0a 00 08 	l.lwz r8,0x8(r10)
    2f28:	e0 a4 38 00 	l.add r5,r4,r7
    2f2c:	84 c5 00 04 	l.lwz r6,0x4(r5)
    2f30:	e4 28 28 00 	l.sfne r8,r5
    2f34:	10 00 00 1a 	l.bf 2f9c <__free_r+0xc4>
    2f38:	e1 06 48 03 	l.and r8,r6,r9
    2f3c:	a4 63 00 01 	l.andi r3,r3,0x1
    2f40:	bc 23 00 00 	l.sfnei r3,0x0
    2f44:	10 00 00 09 	l.bf 2f68 <__free_r+0x90>
    2f48:	e0 e7 40 00 	l.add r7,r7,r8
    2f4c:	84 64 00 00 	l.lwz r3,0x0(r4)
    2f50:	e0 84 18 02 	l.sub r4,r4,r3
    2f54:	e0 e7 18 00 	l.add r7,r7,r3
    2f58:	84 c4 00 0c 	l.lwz r6,0xc(r4)
    2f5c:	84 64 00 08 	l.lwz r3,0x8(r4)
    2f60:	d4 06 18 08 	l.sw 0x8(r6),r3
    2f64:	d4 03 30 0c 	l.sw 0xc(r3),r6
    2f68:	a8 67 00 01 	l.ori r3,r7,0x1
    2f6c:	d4 0a 20 08 	l.sw 0x8(r10),r4
    2f70:	d4 04 18 04 	l.sw 0x4(r4),r3
    2f74:	18 60 00 00 	l.movhi r3,0x0
    2f78:	a8 63 e6 f8 	l.ori r3,r3,0xe6f8
    2f7c:	84 63 00 00 	l.lwz r3,0x0(r3)
    2f80:	e4 87 18 00 	l.sfltu r7,r3
    2f84:	0c 00 00 62 	l.bnf 310c <__free_r+0x234>
    2f88:	a8 6c 00 00 	l.ori r3,r12,0x0
    2f8c:	04 00 08 7d 	l.jal 5180 <___malloc_unlock>
    2f90:	a8 6c 00 00 	l.ori r3,r12,0x0
    2f94:	00 00 00 8f 	l.j 31d0 <__free_r+0x2f8>
    2f98:	15 00 00 00 	l.nop 0x0
    2f9c:	a4 63 00 01 	l.andi r3,r3,0x1
    2fa0:	d4 05 40 04 	l.sw 0x4(r5),r8
    2fa4:	bc 23 00 00 	l.sfnei r3,0x0
    2fa8:	10 00 00 0c 	l.bf 2fd8 <__free_r+0x100>
    2fac:	9d 20 00 00 	l.addi r9,r0,0x0
    2fb0:	84 64 00 00 	l.lwz r3,0x0(r4)
    2fb4:	18 c0 00 00 	l.movhi r6,0x0
    2fb8:	a8 c6 e7 04 	l.ori r6,r6,0xe704
    2fbc:	e0 84 18 02 	l.sub r4,r4,r3
    2fc0:	e0 e7 18 00 	l.add r7,r7,r3
    2fc4:	84 64 00 08 	l.lwz r3,0x8(r4)
    2fc8:	e4 23 30 00 	l.sfne r3,r6
    2fcc:	10 00 00 4c 	l.bf 30fc <__free_r+0x224>
    2fd0:	15 00 00 00 	l.nop 0x0
    2fd4:	9d 20 00 01 	l.addi r9,r0,0x1
    2fd8:	e0 65 40 00 	l.add r3,r5,r8
    2fdc:	84 63 00 04 	l.lwz r3,0x4(r3)
    2fe0:	a4 63 00 01 	l.andi r3,r3,0x1
    2fe4:	bc 23 00 00 	l.sfnei r3,0x0
    2fe8:	10 00 00 11 	l.bf 302c <__free_r+0x154>
    2fec:	a8 67 00 01 	l.ori r3,r7,0x1
    2ff0:	bc 29 00 00 	l.sfnei r9,0x0
    2ff4:	10 00 00 3d 	l.bf 30e8 <__free_r+0x210>
    2ff8:	e0 e7 40 00 	l.add r7,r7,r8
    2ffc:	84 65 00 08 	l.lwz r3,0x8(r5)
    3000:	18 c0 00 00 	l.movhi r6,0x0
    3004:	a8 c6 e7 04 	l.ori r6,r6,0xe704
    3008:	e4 23 30 00 	l.sfne r3,r6
    300c:	10 00 00 38 	l.bf 30ec <__free_r+0x214>
    3010:	15 00 00 00 	l.nop 0x0
    3014:	d4 06 20 0c 	l.sw 0xc(r6),r4
    3018:	d4 06 20 08 	l.sw 0x8(r6),r4
    301c:	d4 04 30 0c 	l.sw 0xc(r4),r6
    3020:	d4 04 30 08 	l.sw 0x8(r4),r6
    3024:	9d 20 00 01 	l.addi r9,r0,0x1
    3028:	a8 67 00 01 	l.ori r3,r7,0x1
    302c:	e0 a4 38 00 	l.add r5,r4,r7
    3030:	d4 04 18 04 	l.sw 0x4(r4),r3
    3034:	bc 29 00 00 	l.sfnei r9,0x0
    3038:	13 ff ff d5 	l.bf 2f8c <__free_r+0xb4>
    303c:	d4 05 38 00 	l.sw 0x0(r5),r7
    3040:	bc 47 01 ff 	l.sfgtui r7,0x1ff
    3044:	0c 00 00 1a 	l.bnf 30ac <__free_r+0x1d4>
    3048:	15 00 00 00 	l.nop 0x0
    304c:	b8 67 00 49 	l.srli r3,r7,0x9
    3050:	bc 23 00 00 	l.sfnei r3,0x0
    3054:	10 00 00 46 	l.bf 316c <__free_r+0x294>
    3058:	bc 43 00 04 	l.sfgtui r3,0x4
    305c:	b8 a7 00 43 	l.srli r5,r7,0x3
    3060:	b8 65 00 03 	l.slli r3,r5,0x3
    3064:	19 20 00 00 	l.movhi r9,0x0
    3068:	a9 29 e6 fc 	l.ori r9,r9,0xe6fc
    306c:	e0 c3 48 00 	l.add r6,r3,r9
    3070:	84 66 00 08 	l.lwz r3,0x8(r6)
    3074:	e4 23 30 00 	l.sfne r3,r6
    3078:	10 00 00 2b 	l.bf 3124 <__free_r+0x24c>
    307c:	e4 03 30 00 	l.sfeq r3,r6
    3080:	b8 e5 00 42 	l.srli r7,r5,0x2
    3084:	85 0a 00 04 	l.lwz r8,0x4(r10)
    3088:	9c a0 00 01 	l.addi r5,r0,0x1
    308c:	e0 a5 38 08 	l.sll r5,r5,r7
    3090:	e0 a8 28 04 	l.or r5,r8,r5
    3094:	d4 0a 28 04 	l.sw 0x4(r10),r5
    3098:	d4 04 30 0c 	l.sw 0xc(r4),r6
    309c:	d4 04 18 08 	l.sw 0x8(r4),r3
    30a0:	d4 03 20 0c 	l.sw 0xc(r3),r4
    30a4:	03 ff ff ba 	l.j 2f8c <__free_r+0xb4>
    30a8:	d4 06 20 08 	l.sw 0x8(r6),r4
    30ac:	b8 a7 00 43 	l.srli r5,r7,0x3
    30b0:	19 00 00 00 	l.movhi r8,0x0
    30b4:	a9 08 e6 fc 	l.ori r8,r8,0xe6fc
    30b8:	b8 65 00 03 	l.slli r3,r5,0x3
    30bc:	84 ea 00 04 	l.lwz r7,0x4(r10)
    30c0:	e0 c3 40 00 	l.add r6,r3,r8
    30c4:	b8 a5 00 42 	l.srli r5,r5,0x2
    30c8:	9c 60 00 01 	l.addi r3,r0,0x1
    30cc:	d4 04 30 0c 	l.sw 0xc(r4),r6
    30d0:	e0 a3 28 08 	l.sll r5,r3,r5
    30d4:	84 66 00 08 	l.lwz r3,0x8(r6)
    30d8:	e0 a7 28 04 	l.or r5,r7,r5
    30dc:	d4 04 18 08 	l.sw 0x8(r4),r3
    30e0:	03 ff ff f0 	l.j 30a0 <__free_r+0x1c8>
    30e4:	d4 0a 28 04 	l.sw 0x4(r10),r5
    30e8:	84 65 00 08 	l.lwz r3,0x8(r5)
    30ec:	84 c5 00 0c 	l.lwz r6,0xc(r5)
    30f0:	d4 06 18 08 	l.sw 0x8(r6),r3
    30f4:	03 ff ff cd 	l.j 3028 <__free_r+0x150>
    30f8:	d4 03 30 0c 	l.sw 0xc(r3),r6
    30fc:	84 c4 00 0c 	l.lwz r6,0xc(r4)
    3100:	d4 06 18 08 	l.sw 0x8(r6),r3
    3104:	03 ff ff b5 	l.j 2fd8 <__free_r+0x100>
    3108:	d4 03 30 0c 	l.sw 0xc(r3),r6
    310c:	18 80 00 00 	l.movhi r4,0x0
    3110:	a8 84 e6 f4 	l.ori r4,r4,0xe6f4
    3114:	07 ff ff 1f 	l.jal 2d90 <__malloc_trim_r>
    3118:	84 84 00 00 	l.lwz r4,0x0(r4)
    311c:	03 ff ff 9c 	l.j 2f8c <__free_r+0xb4>
    3120:	15 00 00 00 	l.nop 0x0
    3124:	10 00 00 10 	l.bf 3164 <__free_r+0x28c>
    3128:	9d 00 ff fc 	l.addi r8,r0,0xfffffffc
    312c:	84 a3 00 04 	l.lwz r5,0x4(r3)
    3130:	e0 a5 40 03 	l.and r5,r5,r8
    3134:	e4 a5 38 00 	l.sfleu r5,r7
    3138:	10 00 00 0b 	l.bf 3164 <__free_r+0x28c>
    313c:	15 00 00 00 	l.nop 0x0
    3140:	84 63 00 08 	l.lwz r3,0x8(r3)
    3144:	e4 03 30 00 	l.sfeq r3,r6
    3148:	10 00 00 07 	l.bf 3164 <__free_r+0x28c>
    314c:	9d 20 ff fc 	l.addi r9,r0,0xfffffffc
    3150:	84 a3 00 04 	l.lwz r5,0x4(r3)
    3154:	e0 a5 48 03 	l.and r5,r5,r9
    3158:	e4 a5 38 00 	l.sfleu r5,r7
    315c:	0f ff ff f9 	l.bnf 3140 <__free_r+0x268>
    3160:	15 00 00 00 	l.nop 0x0
    3164:	03 ff ff cd 	l.j 3098 <__free_r+0x1c0>
    3168:	84 c3 00 0c 	l.lwz r6,0xc(r3)
    316c:	10 00 00 05 	l.bf 3180 <__free_r+0x2a8>
    3170:	bc 43 00 14 	l.sfgtui r3,0x14
    3174:	b8 67 00 46 	l.srli r3,r7,0x6
    3178:	03 ff ff ba 	l.j 3060 <__free_r+0x188>
    317c:	9c a3 00 38 	l.addi r5,r3,0x38
    3180:	10 00 00 04 	l.bf 3190 <__free_r+0x2b8>
    3184:	bc 43 00 54 	l.sfgtui r3,0x54
    3188:	03 ff ff b6 	l.j 3060 <__free_r+0x188>
    318c:	9c a3 00 5b 	l.addi r5,r3,0x5b
    3190:	10 00 00 05 	l.bf 31a4 <__free_r+0x2cc>
    3194:	bc 43 01 54 	l.sfgtui r3,0x154
    3198:	b8 67 00 4c 	l.srli r3,r7,0xc
    319c:	03 ff ff b1 	l.j 3060 <__free_r+0x188>
    31a0:	9c a3 00 6e 	l.addi r5,r3,0x6e
    31a4:	10 00 00 05 	l.bf 31b8 <__free_r+0x2e0>
    31a8:	bc 43 05 54 	l.sfgtui r3,0x554
    31ac:	b8 67 00 4f 	l.srli r3,r7,0xf
    31b0:	03 ff ff ac 	l.j 3060 <__free_r+0x188>
    31b4:	9c a3 00 77 	l.addi r5,r3,0x77
    31b8:	10 00 00 04 	l.bf 31c8 <__free_r+0x2f0>
    31bc:	b8 67 00 52 	l.srli r3,r7,0x12
    31c0:	03 ff ff a8 	l.j 3060 <__free_r+0x188>
    31c4:	9c a3 00 7c 	l.addi r5,r3,0x7c
    31c8:	03 ff ff a6 	l.j 3060 <__free_r+0x188>
    31cc:	9c a0 00 7e 	l.addi r5,r0,0x7e
    31d0:	85 21 00 00 	l.lwz r9,0x0(r1)
    31d4:	84 41 00 04 	l.lwz r2,0x4(r1)
    31d8:	85 41 00 08 	l.lwz r10,0x8(r1)
    31dc:	85 81 00 0c 	l.lwz r12,0xc(r1)
    31e0:	44 00 48 00 	l.jr r9
    31e4:	9c 21 00 10 	l.addi r1,r1,0x10

000031e8 <__times_r>:
    31e8:	9c 21 ff f8 	l.addi r1,r1,0xfffffff8
    31ec:	d4 01 10 04 	l.sw 0x4(r1),r2
    31f0:	9c 41 00 08 	l.addi r2,r1,0x8
    31f4:	d4 01 48 00 	l.sw 0x0(r1),r9
    31f8:	04 00 1d d1 	l.jal a93c <_times>
    31fc:	a8 64 00 00 	l.ori r3,r4,0x0
    3200:	85 21 00 00 	l.lwz r9,0x0(r1)
    3204:	84 41 00 04 	l.lwz r2,0x4(r1)
    3208:	44 00 48 00 	l.jr r9
    320c:	9c 21 00 08 	l.addi r1,r1,0x8

00003210 <__gettimeofday_r>:
    3210:	9c 21 ff f0 	l.addi r1,r1,0xfffffff0
    3214:	d4 01 10 04 	l.sw 0x4(r1),r2
    3218:	9c 41 00 10 	l.addi r2,r1,0x10
    321c:	d4 01 48 00 	l.sw 0x0(r1),r9
    3220:	d4 01 50 08 	l.sw 0x8(r1),r10
    3224:	d4 01 60 0c 	l.sw 0xc(r1),r12
    3228:	a9 83 00 00 	l.ori r12,r3,0x0
    322c:	19 40 00 00 	l.movhi r10,0x0
    3230:	a9 4a f4 80 	l.ori r10,r10,0xf480
    3234:	a8 64 00 00 	l.ori r3,r4,0x0
    3238:	9c 80 00 00 	l.addi r4,r0,0x0
    323c:	d4 0a 20 00 	l.sw 0x0(r10),r4
    3240:	04 00 1d ca 	l.jal a968 <_gettimeofday>
    3244:	a8 85 00 00 	l.ori r4,r5,0x0
    3248:	bc 2b ff ff 	l.sfnei r11,0xffffffff
    324c:	10 00 00 07 	l.bf 3268 <__gettimeofday_r+0x58>
    3250:	15 00 00 00 	l.nop 0x0
    3254:	84 6a 00 00 	l.lwz r3,0x0(r10)
    3258:	bc 03 00 00 	l.sfeqi r3,0x0
    325c:	10 00 00 03 	l.bf 3268 <__gettimeofday_r+0x58>
    3260:	15 00 00 00 	l.nop 0x0
    3264:	d4 0c 18 00 	l.sw 0x0(r12),r3
    3268:	85 21 00 00 	l.lwz r9,0x0(r1)
    326c:	84 41 00 04 	l.lwz r2,0x4(r1)
    3270:	85 41 00 08 	l.lwz r10,0x8(r1)
    3274:	85 81 00 0c 	l.lwz r12,0xc(r1)
    3278:	44 00 48 00 	l.jr r9
    327c:	9c 21 00 10 	l.addi r1,r1,0x10

00003280 <___sprint>:
    3280:	9c 21 ff f4 	l.addi r1,r1,0xfffffff4
    3284:	d4 01 10 04 	l.sw 0x4(r1),r2
    3288:	9c 41 00 0c 	l.addi r2,r1,0xc
    328c:	d4 01 48 00 	l.sw 0x0(r1),r9
    3290:	d4 01 50 08 	l.sw 0x8(r1),r10
    3294:	84 a4 00 08 	l.lwz r5,0x8(r4)
    3298:	9d 60 00 00 	l.addi r11,r0,0x0
    329c:	e4 25 58 00 	l.sfne r5,r11
    32a0:	10 00 00 04 	l.bf 32b0 <___sprint+0x30>
    32a4:	a9 44 00 00 	l.ori r10,r4,0x0
    32a8:	00 00 00 07 	l.j 32c4 <___sprint+0x44>
    32ac:	d4 04 58 04 	l.sw 0x4(r4),r11
    32b0:	04 00 07 d5 	l.jal 5204 <___sfvwrite>
    32b4:	15 00 00 00 	l.nop 0x0
    32b8:	9c 60 00 00 	l.addi r3,r0,0x0
    32bc:	d4 0a 18 04 	l.sw 0x4(r10),r3
    32c0:	d4 0a 18 08 	l.sw 0x8(r10),r3
    32c4:	85 21 00 00 	l.lwz r9,0x0(r1)
    32c8:	84 41 00 04 	l.lwz r2,0x4(r1)
    32cc:	85 41 00 08 	l.lwz r10,0x8(r1)
    32d0:	44 00 48 00 	l.jr r9
    32d4:	9c 21 00 0c 	l.addi r1,r1,0xc

000032d8 <__vfprintf_r>:
    32d8:	9c 21 f9 30 	l.addi r1,r1,0xfffff930
    32dc:	d4 01 10 10 	l.sw 0x10(r1),r2
    32e0:	9c 41 06 d0 	l.addi r2,r1,0x6d0
    32e4:	d4 01 48 0c 	l.sw 0xc(r1),r9
    32e8:	d4 01 50 14 	l.sw 0x14(r1),r10
    32ec:	d4 01 60 18 	l.sw 0x18(r1),r12
    32f0:	d4 01 70 1c 	l.sw 0x1c(r1),r14
    32f4:	d4 01 80 20 	l.sw 0x20(r1),r16
    32f8:	d4 01 90 24 	l.sw 0x24(r1),r18
    32fc:	d4 01 a0 28 	l.sw 0x28(r1),r20
    3300:	d4 01 b0 2c 	l.sw 0x2c(r1),r22
    3304:	d4 01 c0 30 	l.sw 0x30(r1),r24
    3308:	d4 01 d0 34 	l.sw 0x34(r1),r26
    330c:	d4 01 e0 38 	l.sw 0x38(r1),r28
    3310:	d4 01 f0 3c 	l.sw 0x3c(r1),r30
    3314:	d7 e2 19 9c 	l.sw 0xfffff99c(r2),r3
    3318:	ab 84 00 00 	l.ori r28,r4,0x0
    331c:	9c 60 00 00 	l.addi r3,r0,0x0
    3320:	a9 45 00 00 	l.ori r10,r5,0x0
    3324:	ab c6 00 00 	l.ori r30,r6,0x0
    3328:	04 00 09 3c 	l.jal 5818 <_localeconv>
    332c:	d7 e2 19 84 	l.sw 0xfffff984(r2),r3
    3330:	18 60 00 00 	l.movhi r3,0x0
    3334:	a8 63 e6 bc 	l.ori r3,r3,0xe6bc
    3338:	84 82 f9 84 	l.lwz r4,0xfffff984(r2)
    333c:	e0 a0 00 04 	l.or r5,r0,r0
    3340:	18 c0 00 00 	l.movhi r6,0x0
    3344:	a8 c6 00 00 	l.ori r6,r6,0x0
    3348:	d7 e2 29 88 	l.sw 0xfffff988(r2),r5
    334c:	d7 e2 31 8c 	l.sw 0xfffff98c(r2),r6
    3350:	85 6b 00 00 	l.lwz r11,0x0(r11)
    3354:	84 63 00 00 	l.lwz r3,0x0(r3)
    3358:	d7 e2 59 90 	l.sw 0xfffff990(r2),r11
    335c:	d7 e2 21 7c 	l.sw 0xfffff97c(r2),r4
    3360:	bc 03 00 00 	l.sfeqi r3,0x0
    3364:	10 00 00 06 	l.bf 337c <__vfprintf_r+0xa4>
    3368:	d7 e2 21 78 	l.sw 0xfffff978(r2),r4
    336c:	84 83 00 38 	l.lwz r4,0x38(r3)
    3370:	bc 24 00 00 	l.sfnei r4,0x0
    3374:	0c 00 00 61 	l.bnf 34f8 <__vfprintf_r+0x220>
    3378:	15 00 00 00 	l.nop 0x0
    337c:	94 9c 00 0c 	l.lhz r4,0xc(r28)
    3380:	a4 64 ff ff 	l.andi r3,r4,0xffff
    3384:	b8 63 00 43 	l.srli r3,r3,0x3
    3388:	ac 63 00 01 	l.xori r3,r3,0x1
    338c:	a4 63 00 01 	l.andi r3,r3,0x1
    3390:	bc 23 00 00 	l.sfnei r3,0x0
    3394:	10 00 00 52 	l.bf 34dc <__vfprintf_r+0x204>
    3398:	15 00 00 00 	l.nop 0x0
    339c:	84 7c 00 10 	l.lwz r3,0x10(r28)
    33a0:	bc 23 00 00 	l.sfnei r3,0x0
    33a4:	0c 00 00 4e 	l.bnf 34dc <__vfprintf_r+0x204>
    33a8:	15 00 00 00 	l.nop 0x0
    33ac:	a4 64 00 1a 	l.andi r3,r4,0x1a
    33b0:	bc 23 00 0a 	l.sfnei r3,0xa
    33b4:	10 00 00 08 	l.bf 33d4 <__vfprintf_r+0xfc>
    33b8:	9c 60 00 00 	l.addi r3,r0,0x0
    33bc:	94 bc 00 0e 	l.lhz r5,0xe(r28)
    33c0:	b8 65 00 10 	l.slli r3,r5,0x10
    33c4:	b8 63 00 90 	l.srai r3,r3,0x10
    33c8:	bd 83 00 00 	l.sfltsi r3,0x0
    33cc:	0c 00 00 59 	l.bnf 3530 <__vfprintf_r+0x258>
    33d0:	9c 60 00 00 	l.addi r3,r0,0x0
    33d4:	9d 02 ff a8 	l.addi r8,r2,0xffffffa8
    33d8:	a9 ca 00 00 	l.ori r14,r10,0x0
    33dc:	d7 e2 47 e8 	l.sw 0xffffffe8(r2),r8
    33e0:	d7 e2 1f f0 	l.sw 0xfffffff0(r2),r3
    33e4:	d7 e2 1f ec 	l.sw 0xffffffec(r2),r3
    33e8:	aa 08 00 00 	l.ori r16,r8,0x0
    33ec:	d7 e2 19 98 	l.sw 0xfffff998(r2),r3
    33f0:	aa 4e 00 00 	l.ori r18,r14,0x0
    33f4:	8c 8e 00 00 	l.lbz r4,0x0(r14)
    33f8:	9c a0 00 00 	l.addi r5,r0,0x0
    33fc:	b8 64 00 18 	l.slli r3,r4,0x18
    3400:	b8 63 00 98 	l.srai r3,r3,0x18
    3404:	e4 03 28 00 	l.sfeq r3,r5
    3408:	10 00 00 03 	l.bf 3414 <__vfprintf_r+0x13c>
    340c:	bc 03 00 25 	l.sfeqi r3,0x25
    3410:	9c a0 00 01 	l.addi r5,r0,0x1
    3414:	10 00 00 03 	l.bf 3420 <__vfprintf_r+0x148>
    3418:	9c 60 00 00 	l.addi r3,r0,0x0
    341c:	9c 60 00 01 	l.addi r3,r0,0x1
    3420:	e0 65 18 03 	l.and r3,r5,r3
    3424:	bc 03 00 00 	l.sfeqi r3,0x0
    3428:	0f ff ff f3 	l.bnf 33f4 <__vfprintf_r+0x11c>
    342c:	9d ce 00 01 	l.addi r14,r14,0x1
    3430:	9d ce ff ff 	l.addi r14,r14,0xffffffff
    3434:	e1 8e 90 02 	l.sub r12,r14,r18
    3438:	bc 0c 00 00 	l.sfeqi r12,0x0
    343c:	10 00 00 10 	l.bf 347c <__vfprintf_r+0x1a4>
    3440:	84 62 ff f0 	l.lwz r3,0xfffffff0(r2)
    3444:	e0 83 60 00 	l.add r4,r3,r12
    3448:	d4 10 90 00 	l.sw 0x0(r16),r18
    344c:	84 62 ff ec 	l.lwz r3,0xffffffec(r2)
    3450:	d4 10 60 04 	l.sw 0x4(r16),r12
    3454:	9c 63 00 01 	l.addi r3,r3,0x1
    3458:	d7 e2 27 f0 	l.sw 0xfffffff0(r2),r4
    345c:	9e 10 00 08 	l.addi r16,r16,0x8
    3460:	bd a3 00 07 	l.sflesi r3,0x7
    3464:	0c 00 00 29 	l.bnf 3508 <__vfprintf_r+0x230>
    3468:	d7 e2 1f ec 	l.sw 0xffffffec(r2),r3
    346c:	84 a2 f9 98 	l.lwz r5,0xfffff998(r2)
    3470:	8c 8e 00 00 	l.lbz r4,0x0(r14)
    3474:	e0 a5 60 00 	l.add r5,r5,r12
    3478:	d7 e2 29 98 	l.sw 0xfffff998(r2),r5
    347c:	b8 64 00 18 	l.slli r3,r4,0x18
    3480:	b8 63 00 98 	l.srai r3,r3,0x18
    3484:	bc 23 00 00 	l.sfnei r3,0x0
    3488:	0c 00 06 77 	l.bnf 4e64 <__vfprintf_r+0x1b8c>
    348c:	9f 40 00 00 	l.addi r26,r0,0x0
    3490:	9d ce 00 01 	l.addi r14,r14,0x1
    3494:	d7 e2 d1 94 	l.sw 0xfffff994(r2),r26
    3498:	9f 00 ff ff 	l.addi r24,r0,0xffffffff
    349c:	8c 8e 00 00 	l.lbz r4,0x0(r14)
    34a0:	d7 e2 d1 80 	l.sw 0xfffff980(r2),r26
    34a4:	db e2 d7 ff 	l.sb 0xffffffff(r2),r26
    34a8:	ba c4 00 18 	l.slli r22,r4,0x18
    34ac:	ba d6 00 98 	l.srai r22,r22,0x18
    34b0:	9d ce 00 01 	l.addi r14,r14,0x1
    34b4:	9c 76 ff e0 	l.addi r3,r22,0xffffffe0
    34b8:	bc 43 00 58 	l.sfgtui r3,0x58
    34bc:	10 00 01 c2 	l.bf 3bc4 <__vfprintf_r+0x8ec>
    34c0:	b8 63 00 02 	l.slli r3,r3,0x2
    34c4:	18 c0 00 00 	l.movhi r6,0x0
    34c8:	a8 c6 de 94 	l.ori r6,r6,0xde94
    34cc:	e0 63 30 00 	l.add r3,r3,r6
    34d0:	84 63 00 00 	l.lwz r3,0x0(r3)
    34d4:	44 00 18 00 	l.jr r3
    34d8:	15 00 00 00 	l.nop 0x0
    34dc:	04 00 08 db 	l.jal 5848 <___swsetup>
    34e0:	a8 7c 00 00 	l.ori r3,r28,0x0
    34e4:	bc 0b 00 00 	l.sfeqi r11,0x0
    34e8:	0c 00 06 89 	l.bnf 4f0c <__vfprintf_r+0x1c34>
    34ec:	9d 60 ff ff 	l.addi r11,r0,0xffffffff
    34f0:	03 ff ff af 	l.j 33ac <__vfprintf_r+0xd4>
    34f4:	94 9c 00 0c 	l.lhz r4,0xc(r28)
    34f8:	04 00 09 79 	l.jal 5adc <___sinit>
    34fc:	15 00 00 00 	l.nop 0x0
    3500:	03 ff ff a0 	l.j 3380 <__vfprintf_r+0xa8>
    3504:	94 9c 00 0c 	l.lhz r4,0xc(r28)
    3508:	a8 7c 00 00 	l.ori r3,r28,0x0
    350c:	07 ff ff 5d 	l.jal 3280 <___sprint>
    3510:	9c 82 ff e8 	l.addi r4,r2,0xffffffe8
    3514:	bc 0b 00 00 	l.sfeqi r11,0x0
    3518:	0c 00 03 1a 	l.bnf 4180 <__vfprintf_r+0xea8>
    351c:	9e 02 ff a8 	l.addi r16,r2,0xffffffa8
    3520:	03 ff ff d4 	l.j 3470 <__vfprintf_r+0x198>
    3524:	84 a2 f9 98 	l.lwz r5,0xfffff998(r2)
    3528:	00 00 06 79 	l.j 4f0c <__vfprintf_r+0x1c34>
    352c:	9d 60 ff ff 	l.addi r11,r0,0xffffffff
    3530:	9c c0 ff fd 	l.addi r6,r0,0xfffffffd
    3534:	df e2 2d fa 	l.sh 0xfffffdfa(r2),r5
    3538:	e0 64 30 03 	l.and r3,r4,r6
    353c:	9c a0 04 00 	l.addi r5,r0,0x400
    3540:	df e2 1d f8 	l.sh 0xfffffdf8(r2),r3
    3544:	9c 82 f9 ec 	l.addi r4,r2,0xfffff9ec
    3548:	9c c0 00 00 	l.addi r6,r0,0x0
    354c:	84 7c 00 24 	l.lwz r3,0x24(r28)
    3550:	9d 82 fd ec 	l.addi r12,r2,0xfffffdec
    3554:	85 1c 00 1c 	l.lwz r8,0x1c(r28)
    3558:	d7 e2 1e 10 	l.sw 0xfffffe10(r2),r3
    355c:	d7 e2 2d f4 	l.sw 0xfffffdf4(r2),r5
    3560:	d7 e2 2e 00 	l.sw 0xfffffe00(r2),r5
    3564:	d7 e2 25 fc 	l.sw 0xfffffdfc(r2),r4
    3568:	d7 e2 25 ec 	l.sw 0xfffffdec(r2),r4
    356c:	d7 e2 36 04 	l.sw 0xfffffe04(r2),r6
    3570:	84 62 f9 9c 	l.lwz r3,0xfffff99c(r2)
    3574:	a8 aa 00 00 	l.ori r5,r10,0x0
    3578:	a8 de 00 00 	l.ori r6,r30,0x0
    357c:	d7 e2 46 08 	l.sw 0xfffffe08(r2),r8
    3580:	07 ff ff 56 	l.jal 32d8 <__vfprintf_r>
    3584:	a8 8c 00 00 	l.ori r4,r12,0x0
    3588:	bd 8b 00 00 	l.sfltsi r11,0x0
    358c:	0c 00 06 0b 	l.bnf 4db8 <__vfprintf_r+0x1ae0>
    3590:	a9 4b 00 00 	l.ori r10,r11,0x0
    3594:	94 62 fd f8 	l.lhz r3,0xfffffdf8(r2)
    3598:	b8 63 00 46 	l.srli r3,r3,0x6
    359c:	a4 63 00 01 	l.andi r3,r3,0x1
    35a0:	bc 03 00 00 	l.sfeqi r3,0x0
    35a4:	10 00 00 05 	l.bf 35b8 <__vfprintf_r+0x2e0>
    35a8:	15 00 00 00 	l.nop 0x0
    35ac:	94 7c 00 0c 	l.lhz r3,0xc(r28)
    35b0:	a8 63 00 40 	l.ori r3,r3,0x40
    35b4:	dc 1c 18 0c 	l.sh 0xc(r28),r3
    35b8:	00 00 06 55 	l.j 4f0c <__vfprintf_r+0x1c34>
    35bc:	a9 6a 00 00 	l.ori r11,r10,0x0
    35c0:	ab 5a 00 10 	l.ori r26,r26,0x10
    35c4:	b8 7a 00 44 	l.srli r3,r26,0x4
    35c8:	a4 63 00 01 	l.andi r3,r3,0x1
    35cc:	bc 03 00 00 	l.sfeqi r3,0x0
    35d0:	0c 00 03 9c 	l.bnf 4440 <__vfprintf_r+0x1168>
    35d4:	b8 7a 00 46 	l.srli r3,r26,0x6
    35d8:	a4 63 00 01 	l.andi r3,r3,0x1
    35dc:	bc 03 00 00 	l.sfeqi r3,0x0
    35e0:	10 00 03 98 	l.bf 4440 <__vfprintf_r+0x1168>
    35e4:	15 00 00 00 	l.nop 0x0
    35e8:	95 5e 00 02 	l.lhz r10,0x2(r30)
    35ec:	9f de 00 04 	l.addi r30,r30,0x4
    35f0:	9c a0 00 01 	l.addi r5,r0,0x1
    35f4:	9c 60 00 00 	l.addi r3,r0,0x0
    35f8:	db e2 1f ff 	l.sb 0xffffffff(r2),r3
    35fc:	bd 98 00 00 	l.sfltsi r24,0x0
    3600:	10 00 00 04 	l.bf 3610 <__vfprintf_r+0x338>
    3604:	d7 e2 c1 80 	l.sw 0xfffff980(r2),r24
    3608:	9c 80 ff 7f 	l.addi r4,r0,0xffffff7f
    360c:	e3 5a 20 03 	l.and r26,r26,r4
    3610:	9c 80 00 00 	l.addi r4,r0,0x0
    3614:	e4 0a 20 00 	l.sfeq r10,r4
    3618:	10 00 00 03 	l.bf 3624 <__vfprintf_r+0x34c>
    361c:	9e 42 ff a8 	l.addi r18,r2,0xffffffa8
    3620:	9c 80 00 01 	l.addi r4,r0,0x1
    3624:	84 c2 f9 80 	l.lwz r6,0xfffff980(r2)
    3628:	9c 60 00 00 	l.addi r3,r0,0x0
    362c:	e4 06 18 00 	l.sfeq r6,r3
    3630:	10 00 00 04 	l.bf 3640 <__vfprintf_r+0x368>
    3634:	e0 64 18 04 	l.or r3,r4,r3
    3638:	9c 60 00 01 	l.addi r3,r0,0x1
    363c:	e0 64 18 04 	l.or r3,r4,r3
    3640:	bc 03 00 00 	l.sfeqi r3,0x0
    3644:	10 00 02 c0 	l.bf 4144 <__vfprintf_r+0xe6c>
    3648:	bc 25 00 00 	l.sfnei r5,0x0
    364c:	bc 05 00 01 	l.sfeqi r5,0x1
    3650:	10 00 01 11 	l.bf 3a94 <__vfprintf_r+0x7bc>
    3654:	bc aa 00 09 	l.sfleui r10,0x9
    3658:	bd 45 00 01 	l.sfgtsi r5,0x1
    365c:	10 00 03 a9 	l.bf 4500 <__vfprintf_r+0x1228>
    3660:	bc 05 00 02 	l.sfeqi r5,0x2
    3664:	bc 05 00 00 	l.sfeqi r5,0x0
    3668:	10 00 01 1c 	l.bf 3ad8 <__vfprintf_r+0x800>
    366c:	a4 6a 00 07 	l.andi r3,r10,0x7
    3670:	1a 40 00 00 	l.movhi r18,0x0
    3674:	aa 52 df f8 	l.ori r18,r18,0xdff8
    3678:	04 00 09 c9 	l.jal 5d9c <_strlen>
    367c:	a8 72 00 00 	l.ori r3,r18,0x0
    3680:	aa 8b 00 00 	l.ori r20,r11,0x0
    3684:	85 02 f9 80 	l.lwz r8,0xfffff980(r2)
    3688:	e5 74 40 00 	l.sfges r20,r8
    368c:	10 00 00 03 	l.bf 3698 <__vfprintf_r+0x3c0>
    3690:	ab 14 00 00 	l.ori r24,r20,0x0
    3694:	ab 08 00 00 	l.ori r24,r8,0x0
    3698:	8c 82 ff ff 	l.lbz r4,0xffffffff(r2)
    369c:	b8 64 00 18 	l.slli r3,r4,0x18
    36a0:	b8 63 00 98 	l.srai r3,r3,0x18
    36a4:	bc 03 00 00 	l.sfeqi r3,0x0
    36a8:	10 00 02 2b 	l.bf 3f54 <__vfprintf_r+0xc7c>
    36ac:	b8 7a 00 41 	l.srli r3,r26,0x1
    36b0:	9f 18 00 01 	l.addi r24,r24,0x1
    36b4:	a5 9a 00 84 	l.andi r12,r26,0x84
    36b8:	bc 2c 00 00 	l.sfnei r12,0x0
    36bc:	10 00 00 27 	l.bf 3758 <__vfprintf_r+0x480>
    36c0:	84 62 f9 94 	l.lwz r3,0xfffff994(r2)
    36c4:	e1 43 c0 02 	l.sub r10,r3,r24
    36c8:	bd aa 00 00 	l.sflesi r10,0x0
    36cc:	10 00 00 23 	l.bf 3758 <__vfprintf_r+0x480>
    36d0:	bd aa 00 10 	l.sflesi r10,0x10
    36d4:	10 00 00 14 	l.bf 3724 <__vfprintf_r+0x44c>
    36d8:	84 62 ff f0 	l.lwz r3,0xfffffff0(r2)
    36dc:	18 80 00 00 	l.movhi r4,0x0
    36e0:	a8 84 de 6c 	l.ori r4,r4,0xde6c
    36e4:	84 62 ff f0 	l.lwz r3,0xfffffff0(r2)
    36e8:	9c a0 00 10 	l.addi r5,r0,0x10
    36ec:	d4 10 20 00 	l.sw 0x0(r16),r4
    36f0:	d4 10 28 04 	l.sw 0x4(r16),r5
    36f4:	e0 83 28 00 	l.add r4,r3,r5
    36f8:	9e 10 00 08 	l.addi r16,r16,0x8
    36fc:	84 62 ff ec 	l.lwz r3,0xffffffec(r2)
    3700:	9c 63 00 01 	l.addi r3,r3,0x1
    3704:	d7 e2 27 f0 	l.sw 0xfffffff0(r2),r4
    3708:	bd a3 00 07 	l.sflesi r3,0x7
    370c:	0c 00 00 ea 	l.bnf 3ab4 <__vfprintf_r+0x7dc>
    3710:	d7 e2 1f ec 	l.sw 0xffffffec(r2),r3
    3714:	9d 4a ff f0 	l.addi r10,r10,0xfffffff0
    3718:	bd aa 00 10 	l.sflesi r10,0x10
    371c:	0f ff ff f0 	l.bnf 36dc <__vfprintf_r+0x404>
    3720:	84 62 ff f0 	l.lwz r3,0xfffffff0(r2)
    3724:	18 c0 00 00 	l.movhi r6,0x0
    3728:	a8 c6 de 6c 	l.ori r6,r6,0xde6c
    372c:	e0 83 50 00 	l.add r4,r3,r10
    3730:	d4 10 30 00 	l.sw 0x0(r16),r6
    3734:	84 62 ff ec 	l.lwz r3,0xffffffec(r2)
    3738:	d4 10 50 04 	l.sw 0x4(r16),r10
    373c:	9c 63 00 01 	l.addi r3,r3,0x1
    3740:	d7 e2 27 f0 	l.sw 0xfffffff0(r2),r4
    3744:	9e 10 00 08 	l.addi r16,r16,0x8
    3748:	bd a3 00 07 	l.sflesi r3,0x7
    374c:	0c 00 03 7a 	l.bnf 4534 <__vfprintf_r+0x125c>
    3750:	d7 e2 1f ec 	l.sw 0xffffffec(r2),r3
    3754:	8c 82 ff ff 	l.lbz r4,0xffffffff(r2)
    3758:	b8 64 00 18 	l.slli r3,r4,0x18
    375c:	b8 63 00 98 	l.srai r3,r3,0x18
    3760:	bc 03 00 00 	l.sfeqi r3,0x0
    3764:	10 00 02 02 	l.bf 3f6c <__vfprintf_r+0xc94>
    3768:	b8 7a 00 41 	l.srli r3,r26,0x1
    376c:	84 62 ff f0 	l.lwz r3,0xfffffff0(r2)
    3770:	9d 00 00 01 	l.addi r8,r0,0x1
    3774:	e0 83 40 00 	l.add r4,r3,r8
    3778:	d4 10 40 04 	l.sw 0x4(r16),r8
    377c:	9c 62 ff ff 	l.addi r3,r2,0xffffffff
    3780:	d7 e2 27 f0 	l.sw 0xfffffff0(r2),r4
    3784:	d4 10 18 00 	l.sw 0x0(r16),r3
    3788:	84 62 ff ec 	l.lwz r3,0xffffffec(r2)
    378c:	9e 10 00 08 	l.addi r16,r16,0x8
    3790:	e0 63 40 00 	l.add r3,r3,r8
    3794:	bd a3 00 07 	l.sflesi r3,0x7
    3798:	0c 00 02 09 	l.bnf 3fbc <__vfprintf_r+0xce4>
    379c:	d7 e2 1f ec 	l.sw 0xffffffec(r2),r3
    37a0:	bc 2c 00 80 	l.sfnei r12,0x80
    37a4:	10 00 00 2e 	l.bf 385c <__vfprintf_r+0x584>
    37a8:	84 c2 f9 80 	l.lwz r6,0xfffff980(r2)
    37ac:	85 02 f9 94 	l.lwz r8,0xfffff994(r2)
    37b0:	e1 48 c0 02 	l.sub r10,r8,r24
    37b4:	bd aa 00 00 	l.sflesi r10,0x0
    37b8:	10 00 00 29 	l.bf 385c <__vfprintf_r+0x584>
    37bc:	bd aa 00 10 	l.sflesi r10,0x10
    37c0:	10 00 00 14 	l.bf 3810 <__vfprintf_r+0x538>
    37c4:	84 62 ff f0 	l.lwz r3,0xfffffff0(r2)
    37c8:	18 60 00 00 	l.movhi r3,0x0
    37cc:	a8 63 de 7c 	l.ori r3,r3,0xde7c
    37d0:	9c 80 00 10 	l.addi r4,r0,0x10
    37d4:	d4 10 18 00 	l.sw 0x0(r16),r3
    37d8:	d4 10 20 04 	l.sw 0x4(r16),r4
    37dc:	84 62 ff f0 	l.lwz r3,0xfffffff0(r2)
    37e0:	9e 10 00 08 	l.addi r16,r16,0x8
    37e4:	e0 83 20 00 	l.add r4,r3,r4
    37e8:	84 62 ff ec 	l.lwz r3,0xffffffec(r2)
    37ec:	9c 63 00 01 	l.addi r3,r3,0x1
    37f0:	d7 e2 27 f0 	l.sw 0xfffffff0(r2),r4
    37f4:	bd a3 00 07 	l.sflesi r3,0x7
    37f8:	0c 00 01 bf 	l.bnf 3ef4 <__vfprintf_r+0xc1c>
    37fc:	d7 e2 1f ec 	l.sw 0xffffffec(r2),r3
    3800:	9d 4a ff f0 	l.addi r10,r10,0xfffffff0
    3804:	bd aa 00 10 	l.sflesi r10,0x10
    3808:	0f ff ff f0 	l.bnf 37c8 <__vfprintf_r+0x4f0>
    380c:	84 62 ff f0 	l.lwz r3,0xfffffff0(r2)
    3810:	18 a0 00 00 	l.movhi r5,0x0
    3814:	a8 a5 de 7c 	l.ori r5,r5,0xde7c
    3818:	e0 83 50 00 	l.add r4,r3,r10
    381c:	d4 10 28 00 	l.sw 0x0(r16),r5
    3820:	84 62 ff ec 	l.lwz r3,0xffffffec(r2)
    3824:	d4 10 50 04 	l.sw 0x4(r16),r10
    3828:	9c 63 00 01 	l.addi r3,r3,0x1
    382c:	d7 e2 27 f0 	l.sw 0xfffffff0(r2),r4
    3830:	9e 10 00 08 	l.addi r16,r16,0x8
    3834:	bd a3 00 07 	l.sflesi r3,0x7
    3838:	10 00 00 08 	l.bf 3858 <__vfprintf_r+0x580>
    383c:	d7 e2 1f ec 	l.sw 0xffffffec(r2),r3
    3840:	a8 7c 00 00 	l.ori r3,r28,0x0
    3844:	07 ff fe 8f 	l.jal 3280 <___sprint>
    3848:	9c 82 ff e8 	l.addi r4,r2,0xffffffe8
    384c:	bc 0b 00 00 	l.sfeqi r11,0x0
    3850:	0c 00 02 4c 	l.bnf 4180 <__vfprintf_r+0xea8>
    3854:	9e 02 ff a8 	l.addi r16,r2,0xffffffa8
    3858:	84 c2 f9 80 	l.lwz r6,0xfffff980(r2)
    385c:	e1 46 a0 02 	l.sub r10,r6,r20
    3860:	bd aa 00 00 	l.sflesi r10,0x0
    3864:	10 00 00 2a 	l.bf 390c <__vfprintf_r+0x634>
    3868:	b8 7a 00 48 	l.srli r3,r26,0x8
    386c:	bd aa 00 10 	l.sflesi r10,0x10
    3870:	10 00 00 13 	l.bf 38bc <__vfprintf_r+0x5e4>
    3874:	9c 60 00 10 	l.addi r3,r0,0x10
    3878:	19 00 00 00 	l.movhi r8,0x0
    387c:	a9 08 de 7c 	l.ori r8,r8,0xde7c
    3880:	d4 10 18 04 	l.sw 0x4(r16),r3
    3884:	d4 10 40 00 	l.sw 0x0(r16),r8
    3888:	84 62 ff f0 	l.lwz r3,0xfffffff0(r2)
    388c:	9e 10 00 08 	l.addi r16,r16,0x8
    3890:	9c 83 00 10 	l.addi r4,r3,0x10
    3894:	84 62 ff ec 	l.lwz r3,0xffffffec(r2)
    3898:	9c 63 00 01 	l.addi r3,r3,0x1
    389c:	d7 e2 27 f0 	l.sw 0xfffffff0(r2),r4
    38a0:	bd a3 00 07 	l.sflesi r3,0x7
    38a4:	0c 00 01 9c 	l.bnf 3f14 <__vfprintf_r+0xc3c>
    38a8:	d7 e2 1f ec 	l.sw 0xffffffec(r2),r3
    38ac:	9d 4a ff f0 	l.addi r10,r10,0xfffffff0
    38b0:	bd aa 00 10 	l.sflesi r10,0x10
    38b4:	0f ff ff f1 	l.bnf 3878 <__vfprintf_r+0x5a0>
    38b8:	9c 60 00 10 	l.addi r3,r0,0x10
    38bc:	18 80 00 00 	l.movhi r4,0x0
    38c0:	a8 84 de 7c 	l.ori r4,r4,0xde7c
    38c4:	84 62 ff f0 	l.lwz r3,0xfffffff0(r2)
    38c8:	d4 10 20 00 	l.sw 0x0(r16),r4
    38cc:	d4 10 50 04 	l.sw 0x4(r16),r10
    38d0:	e0 83 50 00 	l.add r4,r3,r10
    38d4:	9e 10 00 08 	l.addi r16,r16,0x8
    38d8:	84 62 ff ec 	l.lwz r3,0xffffffec(r2)
    38dc:	9c 63 00 01 	l.addi r3,r3,0x1
    38e0:	d7 e2 27 f0 	l.sw 0xfffffff0(r2),r4
    38e4:	bd a3 00 07 	l.sflesi r3,0x7
    38e8:	10 00 00 08 	l.bf 3908 <__vfprintf_r+0x630>
    38ec:	d7 e2 1f ec 	l.sw 0xffffffec(r2),r3
    38f0:	a8 7c 00 00 	l.ori r3,r28,0x0
    38f4:	07 ff fe 63 	l.jal 3280 <___sprint>
    38f8:	9c 82 ff e8 	l.addi r4,r2,0xffffffe8
    38fc:	bc 0b 00 00 	l.sfeqi r11,0x0
    3900:	0c 00 02 20 	l.bnf 4180 <__vfprintf_r+0xea8>
    3904:	9e 02 ff a8 	l.addi r16,r2,0xffffffa8
    3908:	b8 7a 00 48 	l.srli r3,r26,0x8
    390c:	ac 63 00 01 	l.xori r3,r3,0x1
    3910:	a4 63 00 01 	l.andi r3,r3,0x1
    3914:	bc 03 00 00 	l.sfeqi r3,0x0
    3918:	10 00 01 b1 	l.bf 3fdc <__vfprintf_r+0xd04>
    391c:	bd b6 00 65 	l.sflesi r22,0x65
    3920:	84 62 ff f0 	l.lwz r3,0xfffffff0(r2)
    3924:	e0 83 a0 00 	l.add r4,r3,r20
    3928:	d4 10 90 00 	l.sw 0x0(r16),r18
    392c:	84 62 ff ec 	l.lwz r3,0xffffffec(r2)
    3930:	d4 10 a0 04 	l.sw 0x4(r16),r20
    3934:	9c 63 00 01 	l.addi r3,r3,0x1
    3938:	d7 e2 27 f0 	l.sw 0xfffffff0(r2),r4
    393c:	9e 10 00 08 	l.addi r16,r16,0x8
    3940:	d7 e2 1f ec 	l.sw 0xffffffec(r2),r3
    3944:	bd a3 00 07 	l.sflesi r3,0x7
    3948:	0c 00 02 1a 	l.bnf 41b0 <__vfprintf_r+0xed8>
    394c:	a8 7c 00 00 	l.ori r3,r28,0x0
    3950:	b8 7a 00 42 	l.srli r3,r26,0x2
    3954:	a4 63 00 01 	l.andi r3,r3,0x1
    3958:	bc 03 00 00 	l.sfeqi r3,0x0
    395c:	10 00 00 2e 	l.bf 3a14 <__vfprintf_r+0x73c>
    3960:	84 c2 f9 94 	l.lwz r6,0xfffff994(r2)
    3964:	85 02 f9 94 	l.lwz r8,0xfffff994(r2)
    3968:	e1 48 c0 02 	l.sub r10,r8,r24
    396c:	bd aa 00 00 	l.sflesi r10,0x0
    3970:	10 00 00 2a 	l.bf 3a18 <__vfprintf_r+0x740>
    3974:	e5 78 30 00 	l.sfges r24,r6
    3978:	bd aa 00 10 	l.sflesi r10,0x10
    397c:	10 00 00 14 	l.bf 39cc <__vfprintf_r+0x6f4>
    3980:	84 62 ff f0 	l.lwz r3,0xfffffff0(r2)
    3984:	18 60 00 00 	l.movhi r3,0x0
    3988:	a8 63 de 6c 	l.ori r3,r3,0xde6c
    398c:	9c 80 00 10 	l.addi r4,r0,0x10
    3990:	d4 10 18 00 	l.sw 0x0(r16),r3
    3994:	d4 10 20 04 	l.sw 0x4(r16),r4
    3998:	84 62 ff f0 	l.lwz r3,0xfffffff0(r2)
    399c:	9e 10 00 08 	l.addi r16,r16,0x8
    39a0:	e0 83 20 00 	l.add r4,r3,r4
    39a4:	84 62 ff ec 	l.lwz r3,0xffffffec(r2)
    39a8:	9c 63 00 01 	l.addi r3,r3,0x1
    39ac:	d7 e2 27 f0 	l.sw 0xfffffff0(r2),r4
    39b0:	bd a3 00 07 	l.sflesi r3,0x7
    39b4:	0c 00 01 60 	l.bnf 3f34 <__vfprintf_r+0xc5c>
    39b8:	d7 e2 1f ec 	l.sw 0xffffffec(r2),r3
    39bc:	9d 4a ff f0 	l.addi r10,r10,0xfffffff0
    39c0:	bd aa 00 10 	l.sflesi r10,0x10
    39c4:	0f ff ff f0 	l.bnf 3984 <__vfprintf_r+0x6ac>
    39c8:	84 62 ff f0 	l.lwz r3,0xfffffff0(r2)
    39cc:	18 a0 00 00 	l.movhi r5,0x0
    39d0:	a8 a5 de 6c 	l.ori r5,r5,0xde6c
    39d4:	e0 83 50 00 	l.add r4,r3,r10
    39d8:	d4 10 28 00 	l.sw 0x0(r16),r5
    39dc:	84 62 ff ec 	l.lwz r3,0xffffffec(r2)
    39e0:	9c 63 00 01 	l.addi r3,r3,0x1
    39e4:	d4 10 50 04 	l.sw 0x4(r16),r10
    39e8:	d7 e2 27 f0 	l.sw 0xfffffff0(r2),r4
    39ec:	bd a3 00 07 	l.sflesi r3,0x7
    39f0:	10 00 00 08 	l.bf 3a10 <__vfprintf_r+0x738>
    39f4:	d7 e2 1f ec 	l.sw 0xffffffec(r2),r3
    39f8:	a8 7c 00 00 	l.ori r3,r28,0x0
    39fc:	07 ff fe 21 	l.jal 3280 <___sprint>
    3a00:	9c 82 ff e8 	l.addi r4,r2,0xffffffe8
    3a04:	bc 0b 00 00 	l.sfeqi r11,0x0
    3a08:	0c 00 01 df 	l.bnf 4184 <__vfprintf_r+0xeac>
    3a0c:	85 02 f9 78 	l.lwz r8,0xfffff978(r2)
    3a10:	84 c2 f9 94 	l.lwz r6,0xfffff994(r2)
    3a14:	e5 78 30 00 	l.sfges r24,r6
    3a18:	10 00 00 03 	l.bf 3a24 <__vfprintf_r+0x74c>
    3a1c:	a8 78 00 00 	l.ori r3,r24,0x0
    3a20:	a8 66 00 00 	l.ori r3,r6,0x0
    3a24:	85 02 f9 98 	l.lwz r8,0xfffff998(r2)
    3a28:	e1 08 18 00 	l.add r8,r8,r3
    3a2c:	84 62 ff f0 	l.lwz r3,0xfffffff0(r2)
    3a30:	bc 03 00 00 	l.sfeqi r3,0x0
    3a34:	0c 00 01 cd 	l.bnf 4168 <__vfprintf_r+0xe90>
    3a38:	d7 e2 41 98 	l.sw 0xfffff998(r2),r8
    3a3c:	84 82 f9 78 	l.lwz r4,0xfffff978(r2)
    3a40:	9c 60 00 00 	l.addi r3,r0,0x0
    3a44:	9e 02 ff a8 	l.addi r16,r2,0xffffffa8
    3a48:	e4 04 18 00 	l.sfeq r4,r3
    3a4c:	13 ff fe 69 	l.bf 33f0 <__vfprintf_r+0x118>
    3a50:	d7 e2 1f ec 	l.sw 0xffffffec(r2),r3
    3a54:	9c a0 00 00 	l.addi r5,r0,0x0
    3a58:	84 62 f9 9c 	l.lwz r3,0xfffff99c(r2)
    3a5c:	07 ff fd 1f 	l.jal 2ed8 <__free_r>
    3a60:	d7 e2 29 78 	l.sw 0xfffff978(r2),r5
    3a64:	03 ff fe 64 	l.j 33f4 <__vfprintf_r+0x11c>
    3a68:	aa 4e 00 00 	l.ori r18,r14,0x0
    3a6c:	9c 80 00 0a 	l.addi r4,r0,0xa
    3a70:	04 00 23 bc 	l.jal c960 <___umodsi3>
    3a74:	9e 52 ff ff 	l.addi r18,r18,0xffffffff
    3a78:	9d 6b 00 30 	l.addi r11,r11,0x30
    3a7c:	a8 6a 00 00 	l.ori r3,r10,0x0
    3a80:	d8 12 58 00 	l.sb 0x0(r18),r11
    3a84:	04 00 1c 17 	l.jal aae0 <___udivsi3>
    3a88:	9c 80 00 0a 	l.addi r4,r0,0xa
    3a8c:	a9 4b 00 00 	l.ori r10,r11,0x0
    3a90:	bc aa 00 09 	l.sfleui r10,0x9
    3a94:	0f ff ff f6 	l.bnf 3a6c <__vfprintf_r+0x794>
    3a98:	a8 6a 00 00 	l.ori r3,r10,0x0
    3a9c:	9e 52 ff ff 	l.addi r18,r18,0xffffffff
    3aa0:	9c 6a 00 30 	l.addi r3,r10,0x30
    3aa4:	d8 12 18 00 	l.sb 0x0(r18),r3
    3aa8:	e0 82 90 02 	l.sub r4,r2,r18
    3aac:	03 ff fe f6 	l.j 3684 <__vfprintf_r+0x3ac>
    3ab0:	9e 84 ff a8 	l.addi r20,r4,0xffffffa8
    3ab4:	a8 7c 00 00 	l.ori r3,r28,0x0
    3ab8:	07 ff fd f2 	l.jal 3280 <___sprint>
    3abc:	9c 82 ff e8 	l.addi r4,r2,0xffffffe8
    3ac0:	bc 0b 00 00 	l.sfeqi r11,0x0
    3ac4:	0c 00 01 af 	l.bnf 4180 <__vfprintf_r+0xea8>
    3ac8:	9e 02 ff a8 	l.addi r16,r2,0xffffffa8
    3acc:	03 ff ff 13 	l.j 3718 <__vfprintf_r+0x440>
    3ad0:	9d 4a ff f0 	l.addi r10,r10,0xfffffff0
    3ad4:	a4 6a 00 07 	l.andi r3,r10,0x7
    3ad8:	9e 52 ff ff 	l.addi r18,r18,0xffffffff
    3adc:	b9 4a 00 43 	l.srli r10,r10,0x3
    3ae0:	9c 63 00 30 	l.addi r3,r3,0x30
    3ae4:	bc 0a 00 00 	l.sfeqi r10,0x0
    3ae8:	0f ff ff fb 	l.bnf 3ad4 <__vfprintf_r+0x7fc>
    3aec:	d8 12 18 00 	l.sb 0x0(r18),r3
    3af0:	a4 9a 00 01 	l.andi r4,r26,0x1
    3af4:	bc 04 00 00 	l.sfeqi r4,0x0
    3af8:	13 ff ff ed 	l.bf 3aac <__vfprintf_r+0x7d4>
    3afc:	e0 82 90 02 	l.sub r4,r2,r18
    3b00:	bc 03 00 30 	l.sfeqi r3,0x30
    3b04:	13 ff ff ea 	l.bf 3aac <__vfprintf_r+0x7d4>
    3b08:	9d 00 00 30 	l.addi r8,r0,0x30
    3b0c:	9e 52 ff ff 	l.addi r18,r18,0xffffffff
    3b10:	03 ff ff e6 	l.j 3aa8 <__vfprintf_r+0x7d0>
    3b14:	d8 12 40 00 	l.sb 0x0(r18),r8
    3b18:	ab 5a 00 10 	l.ori r26,r26,0x10
    3b1c:	b8 7a 00 44 	l.srli r3,r26,0x4
    3b20:	a4 63 00 01 	l.andi r3,r3,0x1
    3b24:	bc 03 00 00 	l.sfeqi r3,0x0
    3b28:	0c 00 02 48 	l.bnf 4448 <__vfprintf_r+0x1170>
    3b2c:	b8 7a 00 46 	l.srli r3,r26,0x6
    3b30:	a4 63 00 01 	l.andi r3,r3,0x1
    3b34:	bc 03 00 00 	l.sfeqi r3,0x0
    3b38:	10 00 02 44 	l.bf 4448 <__vfprintf_r+0x1170>
    3b3c:	15 00 00 00 	l.nop 0x0
    3b40:	99 5e 00 02 	l.lhs r10,0x2(r30)
    3b44:	bd 6a 00 00 	l.sfgesi r10,0x0
    3b48:	10 00 00 05 	l.bf 3b5c <__vfprintf_r+0x884>
    3b4c:	9f de 00 04 	l.addi r30,r30,0x4
    3b50:	9c a0 00 2d 	l.addi r5,r0,0x2d
    3b54:	e1 40 50 02 	l.sub r10,r0,r10
    3b58:	db e2 2f ff 	l.sb 0xffffffff(r2),r5
    3b5c:	03 ff fe a8 	l.j 35fc <__vfprintf_r+0x324>
    3b60:	9c a0 00 01 	l.addi r5,r0,0x1
    3b64:	ab 5a 00 10 	l.ori r26,r26,0x10
    3b68:	b8 7a 00 44 	l.srli r3,r26,0x4
    3b6c:	a4 63 00 01 	l.andi r3,r3,0x1
    3b70:	bc 03 00 00 	l.sfeqi r3,0x0
    3b74:	0c 00 02 37 	l.bnf 4450 <__vfprintf_r+0x1178>
    3b78:	b8 7a 00 46 	l.srli r3,r26,0x6
    3b7c:	a4 63 00 01 	l.andi r3,r3,0x1
    3b80:	bc 03 00 00 	l.sfeqi r3,0x0
    3b84:	10 00 02 33 	l.bf 4450 <__vfprintf_r+0x1178>
    3b88:	15 00 00 00 	l.nop 0x0
    3b8c:	95 5e 00 02 	l.lhz r10,0x2(r30)
    3b90:	9f de 00 04 	l.addi r30,r30,0x4
    3b94:	03 ff fe 98 	l.j 35f4 <__vfprintf_r+0x31c>
    3b98:	9c a0 00 00 	l.addi r5,r0,0x0
    3b9c:	84 7e 00 00 	l.lwz r3,0x0(r30)
    3ba0:	9f de 00 04 	l.addi r30,r30,0x4
    3ba4:	bd 83 00 00 	l.sfltsi r3,0x0
    3ba8:	0c 00 00 14 	l.bnf 3bf8 <__vfprintf_r+0x920>
    3bac:	d7 e2 19 94 	l.sw 0xfffff994(r2),r3
    3bb0:	e0 60 18 02 	l.sub r3,r0,r3
    3bb4:	d7 e2 19 94 	l.sw 0xfffff994(r2),r3
    3bb8:	8c 8e 00 00 	l.lbz r4,0x0(r14)
    3bbc:	03 ff fe 3b 	l.j 34a8 <__vfprintf_r+0x1d0>
    3bc0:	ab 5a 00 04 	l.ori r26,r26,0x4
    3bc4:	bc 36 00 00 	l.sfnei r22,0x0
    3bc8:	0c 00 04 a7 	l.bnf 4e64 <__vfprintf_r+0x1b8c>
    3bcc:	9e 42 fe 4c 	l.addi r18,r2,0xfffffe4c
    3bd0:	9c c0 00 00 	l.addi r6,r0,0x0
    3bd4:	d8 12 b0 00 	l.sb 0x0(r18),r22
    3bd8:	9e 80 00 01 	l.addi r20,r0,0x1
    3bdc:	03 ff fe aa 	l.j 3684 <__vfprintf_r+0x3ac>
    3be0:	db e2 37 ff 	l.sb 0xffffffff(r2),r6
    3be4:	90 62 ff ff 	l.lbs r3,0xffffffff(r2)
    3be8:	bc 23 00 00 	l.sfnei r3,0x0
    3bec:	10 00 00 03 	l.bf 3bf8 <__vfprintf_r+0x920>
    3bf0:	9d 00 00 20 	l.addi r8,r0,0x20
    3bf4:	db e2 47 ff 	l.sb 0xffffffff(r2),r8
    3bf8:	03 ff fe 2c 	l.j 34a8 <__vfprintf_r+0x1d0>
    3bfc:	8c 8e 00 00 	l.lbz r4,0x0(r14)
    3c00:	85 5e 00 00 	l.lwz r10,0x0(r30)
    3c04:	18 c0 00 00 	l.movhi r6,0x0
    3c08:	a8 c6 e0 12 	l.ori r6,r6,0xe012
    3c0c:	ab 5a 00 02 	l.ori r26,r26,0x2
    3c10:	9f de 00 04 	l.addi r30,r30,0x4
    3c14:	9c a0 00 02 	l.addi r5,r0,0x2
    3c18:	d7 e2 31 7c 	l.sw 0xfffff97c(r2),r6
    3c1c:	03 ff fe 76 	l.j 35f4 <__vfprintf_r+0x31c>
    3c20:	9e c0 00 78 	l.addi r22,r0,0x78
    3c24:	9d 00 00 00 	l.addi r8,r0,0x0
    3c28:	a8 7e 00 00 	l.ori r3,r30,0x0
    3c2c:	db e2 47 ff 	l.sb 0xffffffff(r2),r8
    3c30:	86 43 00 00 	l.lwz r18,0x0(r3)
    3c34:	bc 32 00 00 	l.sfnei r18,0x0
    3c38:	10 00 02 c7 	l.bf 4754 <__vfprintf_r+0x147c>
    3c3c:	9f de 00 04 	l.addi r30,r30,0x4
    3c40:	1a 40 00 00 	l.movhi r18,0x0
    3c44:	aa 52 e0 23 	l.ori r18,r18,0xe023
    3c48:	03 ff fe 8f 	l.j 3684 <__vfprintf_r+0x3ac>
    3c4c:	9e 80 00 06 	l.addi r20,r0,0x6
    3c50:	8c 8e 00 00 	l.lbz r4,0x0(r14)
    3c54:	03 ff fe 15 	l.j 34a8 <__vfprintf_r+0x1d0>
    3c58:	ab 5a 00 10 	l.ori r26,r26,0x10
    3c5c:	8c 8e 00 00 	l.lbz r4,0x0(r14)
    3c60:	03 ff fe 12 	l.j 34a8 <__vfprintf_r+0x1d0>
    3c64:	ab 5a 00 40 	l.ori r26,r26,0x40
    3c68:	b8 7a 00 44 	l.srli r3,r26,0x4
    3c6c:	a4 63 00 01 	l.andi r3,r3,0x1
    3c70:	bc 03 00 00 	l.sfeqi r3,0x0
    3c74:	10 00 03 07 	l.bf 4890 <__vfprintf_r+0x15b8>
    3c78:	b8 7a 00 46 	l.srli r3,r26,0x6
    3c7c:	84 7e 00 00 	l.lwz r3,0x0(r30)
    3c80:	85 02 f9 98 	l.lwz r8,0xfffff998(r2)
    3c84:	9f de 00 04 	l.addi r30,r30,0x4
    3c88:	03 ff fd da 	l.j 33f0 <__vfprintf_r+0x118>
    3c8c:	d4 03 40 00 	l.sw 0x0(r3),r8
    3c90:	8c 8e 00 00 	l.lbz r4,0x0(r14)
    3c94:	b8 64 00 18 	l.slli r3,r4,0x18
    3c98:	b8 63 00 98 	l.srai r3,r3,0x18
    3c9c:	bc 23 00 6c 	l.sfnei r3,0x6c
    3ca0:	13 ff ff ed 	l.bf 3c54 <__vfprintf_r+0x97c>
    3ca4:	15 00 00 00 	l.nop 0x0
    3ca8:	9d ce 00 01 	l.addi r14,r14,0x1
    3cac:	ab 5a 00 10 	l.ori r26,r26,0x10
    3cb0:	03 ff fd fe 	l.j 34a8 <__vfprintf_r+0x1d0>
    3cb4:	8c 8e 00 00 	l.lbz r4,0x0(r14)
    3cb8:	bc 38 ff ff 	l.sfnei r24,0xffffffff
    3cbc:	10 00 02 e5 	l.bf 4850 <__vfprintf_r+0x1578>
    3cc0:	bc 36 00 67 	l.sfnei r22,0x67
    3cc4:	9f 00 00 06 	l.addi r24,r0,0x6
    3cc8:	b8 7a 00 43 	l.srli r3,r26,0x3
    3ccc:	a4 63 00 01 	l.andi r3,r3,0x1
    3cd0:	bc 03 00 00 	l.sfeqi r3,0x0
    3cd4:	10 00 02 8a 	l.bf 46fc <__vfprintf_r+0x1424>
    3cd8:	a8 7e 00 00 	l.ori r3,r30,0x0
    3cdc:	84 83 00 00 	l.lwz r4,0x0(r3)
    3ce0:	84 a3 00 04 	l.lwz r5,0x4(r3)
    3ce4:	d7 e2 21 88 	l.sw 0xfffff988(r2),r4
    3ce8:	d7 e2 29 8c 	l.sw 0xfffff98c(r2),r5
    3cec:	84 62 f9 88 	l.lwz r3,0xfffff988(r2)
    3cf0:	84 82 f9 8c 	l.lwz r4,0xfffff98c(r2)
    3cf4:	04 00 08 4c 	l.jal 5e24 <_isinf>
    3cf8:	9f de 00 08 	l.addi r30,r30,0x8
    3cfc:	bc 0b 00 00 	l.sfeqi r11,0x0
    3d00:	10 00 02 8a 	l.bf 4728 <__vfprintf_r+0x1450>
    3d04:	15 00 00 00 	l.nop 0x0
    3d08:	1a 80 00 00 	l.movhi r20,0x0
    3d0c:	aa 94 de 8c 	l.ori r20,r20,0xde8c
    3d10:	84 62 f9 88 	l.lwz r3,0xfffff988(r2)
    3d14:	84 82 f9 8c 	l.lwz r4,0xfffff98c(r2)
    3d18:	84 b4 00 00 	l.lwz r5,0x0(r20)
    3d1c:	84 d4 00 04 	l.lwz r6,0x4(r20)
    3d20:	04 00 21 5a 	l.jal c288 <___ltdf2>
    3d24:	15 00 00 00 	l.nop 0x0
    3d28:	bd 8b 00 00 	l.sfltsi r11,0x0
    3d2c:	0c 00 00 03 	l.bnf 3d38 <__vfprintf_r+0xa60>
    3d30:	9c c0 00 2d 	l.addi r6,r0,0x2d
    3d34:	db e2 37 ff 	l.sb 0xffffffff(r2),r6
    3d38:	1a 40 00 00 	l.movhi r18,0x0
    3d3c:	aa 52 e0 2a 	l.ori r18,r18,0xe02a
    3d40:	03 ff fe 51 	l.j 3684 <__vfprintf_r+0x3ac>
    3d44:	9e 80 00 03 	l.addi r20,r0,0x3
    3d48:	bc 16 00 43 	l.sfeqi r22,0x43
    3d4c:	10 00 00 07 	l.bf 3d68 <__vfprintf_r+0xa90>
    3d50:	9e 42 fe 4c 	l.addi r18,r2,0xfffffe4c
    3d54:	b8 7a 00 44 	l.srli r3,r26,0x4
    3d58:	a4 63 00 01 	l.andi r3,r3,0x1
    3d5c:	bc 23 00 00 	l.sfnei r3,0x0
    3d60:	0c 00 03 03 	l.bnf 496c <__vfprintf_r+0x1694>
    3d64:	9e 80 00 01 	l.addi r20,r0,0x1
    3d68:	9c 62 f9 bc 	l.addi r3,r2,0xfffff9bc
    3d6c:	9c 80 00 00 	l.addi r4,r0,0x0
    3d70:	04 00 08 42 	l.jal 5e78 <_memset>
    3d74:	9c a0 00 08 	l.addi r5,r0,0x8
    3d78:	84 be 00 00 	l.lwz r5,0x0(r30)
    3d7c:	a8 92 00 00 	l.ori r4,r18,0x0
    3d80:	9c c2 f9 bc 	l.addi r6,r2,0xfffff9bc
    3d84:	84 62 f9 9c 	l.lwz r3,0xfffff99c(r2)
    3d88:	04 00 08 6d 	l.jal 5f3c <__wcrtomb_r>
    3d8c:	9f de 00 04 	l.addi r30,r30,0x4
    3d90:	bc 2b ff ff 	l.sfnei r11,0xffffffff
    3d94:	0c 00 04 3b 	l.bnf 4e80 <__vfprintf_r+0x1ba8>
    3d98:	aa 8b 00 00 	l.ori r20,r11,0x0
    3d9c:	9c 80 00 00 	l.addi r4,r0,0x0
    3da0:	03 ff fe 39 	l.j 3684 <__vfprintf_r+0x3ac>
    3da4:	db e2 27 ff 	l.sb 0xffffffff(r2),r4
    3da8:	b8 7a 00 44 	l.srli r3,r26,0x4
    3dac:	18 c0 00 00 	l.movhi r6,0x0
    3db0:	a8 c6 e0 2e 	l.ori r6,r6,0xe02e
    3db4:	a4 63 00 01 	l.andi r3,r3,0x1
    3db8:	bc 03 00 00 	l.sfeqi r3,0x0
    3dbc:	0c 00 00 49 	l.bnf 3ee0 <__vfprintf_r+0xc08>
    3dc0:	d7 e2 31 7c 	l.sw 0xfffff97c(r2),r6
    3dc4:	b8 7a 00 46 	l.srli r3,r26,0x6
    3dc8:	a4 63 00 01 	l.andi r3,r3,0x1
    3dcc:	bc 03 00 00 	l.sfeqi r3,0x0
    3dd0:	10 00 00 44 	l.bf 3ee0 <__vfprintf_r+0xc08>
    3dd4:	15 00 00 00 	l.nop 0x0
    3dd8:	95 5e 00 02 	l.lhz r10,0x2(r30)
    3ddc:	9c 80 00 00 	l.addi r4,r0,0x0
    3de0:	9f de 00 04 	l.addi r30,r30,0x4
    3de4:	9c a0 00 02 	l.addi r5,r0,0x2
    3de8:	e4 0a 20 00 	l.sfeq r10,r4
    3dec:	10 00 00 03 	l.bf 3df8 <__vfprintf_r+0xb20>
    3df0:	a4 7a 00 01 	l.andi r3,r26,0x1
    3df4:	9c 80 00 01 	l.addi r4,r0,0x1
    3df8:	e0 63 20 03 	l.and r3,r3,r4
    3dfc:	bc 03 00 00 	l.sfeqi r3,0x0
    3e00:	13 ff fd fe 	l.bf 35f8 <__vfprintf_r+0x320>
    3e04:	9c 60 00 00 	l.addi r3,r0,0x0
    3e08:	03 ff fd fc 	l.j 35f8 <__vfprintf_r+0x320>
    3e0c:	ab 5a 00 02 	l.ori r26,r26,0x2
    3e10:	8c 8e 00 00 	l.lbz r4,0x0(r14)
    3e14:	03 ff fd a5 	l.j 34a8 <__vfprintf_r+0x1d0>
    3e18:	ab 5a 00 08 	l.ori r26,r26,0x8
    3e1c:	9d 40 00 00 	l.addi r10,r0,0x0
    3e20:	b8 6a 00 03 	l.slli r3,r10,0x3
    3e24:	e0 63 50 00 	l.add r3,r3,r10
    3e28:	e1 63 50 00 	l.add r11,r3,r10
    3e2c:	e1 6b b0 00 	l.add r11,r11,r22
    3e30:	92 ce 00 00 	l.lbs r22,0x0(r14)
    3e34:	9d 4b ff d0 	l.addi r10,r11,0xffffffd0
    3e38:	9c 76 ff d0 	l.addi r3,r22,0xffffffd0
    3e3c:	bc 43 00 09 	l.sfgtui r3,0x9
    3e40:	0f ff ff f8 	l.bnf 3e20 <__vfprintf_r+0xb48>
    3e44:	9d ce 00 01 	l.addi r14,r14,0x1
    3e48:	03 ff fd 9b 	l.j 34b4 <__vfprintf_r+0x1dc>
    3e4c:	d7 e2 51 94 	l.sw 0xfffff994(r2),r10
    3e50:	8c 8e 00 00 	l.lbz r4,0x0(r14)
    3e54:	03 ff fd 95 	l.j 34a8 <__vfprintf_r+0x1d0>
    3e58:	ab 5a 00 80 	l.ori r26,r26,0x80
    3e5c:	92 ce 00 00 	l.lbs r22,0x0(r14)
    3e60:	bc 36 00 2a 	l.sfnei r22,0x2a
    3e64:	0c 00 04 23 	l.bnf 4ef0 <__vfprintf_r+0x1c18>
    3e68:	9d ce 00 01 	l.addi r14,r14,0x1
    3e6c:	9c 76 ff d0 	l.addi r3,r22,0xffffffd0
    3e70:	00 00 00 09 	l.j 3e94 <__vfprintf_r+0xbbc>
    3e74:	9d 40 00 00 	l.addi r10,r0,0x0
    3e78:	e0 63 50 00 	l.add r3,r3,r10
    3e7c:	e1 63 50 00 	l.add r11,r3,r10
    3e80:	e1 6b b0 00 	l.add r11,r11,r22
    3e84:	92 ce 00 00 	l.lbs r22,0x0(r14)
    3e88:	9d 4b ff d0 	l.addi r10,r11,0xffffffd0
    3e8c:	9c 76 ff d0 	l.addi r3,r22,0xffffffd0
    3e90:	9d ce 00 01 	l.addi r14,r14,0x1
    3e94:	bc 43 00 09 	l.sfgtui r3,0x9
    3e98:	0f ff ff f8 	l.bnf 3e78 <__vfprintf_r+0xba0>
    3e9c:	b8 6a 00 03 	l.slli r3,r10,0x3
    3ea0:	bd 6a ff ff 	l.sfgesi r10,0xffffffff
    3ea4:	13 ff fd 84 	l.bf 34b4 <__vfprintf_r+0x1dc>
    3ea8:	ab 0a 00 00 	l.ori r24,r10,0x0
    3eac:	03 ff fd 82 	l.j 34b4 <__vfprintf_r+0x1dc>
    3eb0:	9f 00 ff ff 	l.addi r24,r0,0xffffffff
    3eb4:	9c 60 00 2b 	l.addi r3,r0,0x2b
    3eb8:	db e2 1f ff 	l.sb 0xffffffff(r2),r3
    3ebc:	03 ff fd 7b 	l.j 34a8 <__vfprintf_r+0x1d0>
    3ec0:	8c 8e 00 00 	l.lbz r4,0x0(r14)
    3ec4:	b8 7a 00 44 	l.srli r3,r26,0x4
    3ec8:	19 00 00 00 	l.movhi r8,0x0
    3ecc:	a9 08 e0 12 	l.ori r8,r8,0xe012
    3ed0:	a4 63 00 01 	l.andi r3,r3,0x1
    3ed4:	bc 03 00 00 	l.sfeqi r3,0x0
    3ed8:	13 ff ff bb 	l.bf 3dc4 <__vfprintf_r+0xaec>
    3edc:	d7 e2 41 7c 	l.sw 0xfffff97c(r2),r8
    3ee0:	03 ff ff bf 	l.j 3ddc <__vfprintf_r+0xb04>
    3ee4:	85 5e 00 00 	l.lwz r10,0x0(r30)
    3ee8:	8c 8e 00 00 	l.lbz r4,0x0(r14)
    3eec:	03 ff fd 6f 	l.j 34a8 <__vfprintf_r+0x1d0>
    3ef0:	ab 5a 00 01 	l.ori r26,r26,0x1
    3ef4:	a8 7c 00 00 	l.ori r3,r28,0x0
    3ef8:	07 ff fc e2 	l.jal 3280 <___sprint>
    3efc:	9c 82 ff e8 	l.addi r4,r2,0xffffffe8
    3f00:	bc 0b 00 00 	l.sfeqi r11,0x0
    3f04:	0c 00 00 9f 	l.bnf 4180 <__vfprintf_r+0xea8>
    3f08:	9e 02 ff a8 	l.addi r16,r2,0xffffffa8
    3f0c:	03 ff fe 3e 	l.j 3804 <__vfprintf_r+0x52c>
    3f10:	9d 4a ff f0 	l.addi r10,r10,0xfffffff0
    3f14:	a8 7c 00 00 	l.ori r3,r28,0x0
    3f18:	07 ff fc da 	l.jal 3280 <___sprint>
    3f1c:	9c 82 ff e8 	l.addi r4,r2,0xffffffe8
    3f20:	bc 0b 00 00 	l.sfeqi r11,0x0
    3f24:	0c 00 00 97 	l.bnf 4180 <__vfprintf_r+0xea8>
    3f28:	9e 02 ff a8 	l.addi r16,r2,0xffffffa8
    3f2c:	03 ff fe 61 	l.j 38b0 <__vfprintf_r+0x5d8>
    3f30:	9d 4a ff f0 	l.addi r10,r10,0xfffffff0
    3f34:	a8 7c 00 00 	l.ori r3,r28,0x0
    3f38:	07 ff fc d2 	l.jal 3280 <___sprint>
    3f3c:	9c 82 ff e8 	l.addi r4,r2,0xffffffe8
    3f40:	bc 0b 00 00 	l.sfeqi r11,0x0
    3f44:	0c 00 00 8f 	l.bnf 4180 <__vfprintf_r+0xea8>
    3f48:	9e 02 ff a8 	l.addi r16,r2,0xffffffa8
    3f4c:	03 ff fe 9d 	l.j 39c0 <__vfprintf_r+0x6e8>
    3f50:	9d 4a ff f0 	l.addi r10,r10,0xfffffff0
    3f54:	a4 63 00 01 	l.andi r3,r3,0x1
    3f58:	bc 03 00 00 	l.sfeqi r3,0x0
    3f5c:	13 ff fd d7 	l.bf 36b8 <__vfprintf_r+0x3e0>
    3f60:	a5 9a 00 84 	l.andi r12,r26,0x84
    3f64:	03 ff fd d5 	l.j 36b8 <__vfprintf_r+0x3e0>
    3f68:	9f 18 00 02 	l.addi r24,r24,0x2
    3f6c:	a4 63 00 01 	l.andi r3,r3,0x1
    3f70:	bc 03 00 00 	l.sfeqi r3,0x0
    3f74:	13 ff fe 0c 	l.bf 37a4 <__vfprintf_r+0x4cc>
    3f78:	bc 2c 00 80 	l.sfnei r12,0x80
    3f7c:	9c 60 00 30 	l.addi r3,r0,0x30
    3f80:	db e2 b6 49 	l.sb 0xfffffe49(r2),r22
    3f84:	9c c0 00 02 	l.addi r6,r0,0x2
    3f88:	db e2 1e 48 	l.sb 0xfffffe48(r2),r3
    3f8c:	84 62 ff f0 	l.lwz r3,0xfffffff0(r2)
    3f90:	9c a3 00 02 	l.addi r5,r3,0x2
    3f94:	d4 10 30 04 	l.sw 0x4(r16),r6
    3f98:	84 62 ff ec 	l.lwz r3,0xffffffec(r2)
    3f9c:	9c 83 00 01 	l.addi r4,r3,0x1
    3fa0:	d7 e2 2f f0 	l.sw 0xfffffff0(r2),r5
    3fa4:	9c 62 fe 48 	l.addi r3,r2,0xfffffe48
    3fa8:	d7 e2 27 ec 	l.sw 0xffffffec(r2),r4
    3fac:	d4 10 18 00 	l.sw 0x0(r16),r3
    3fb0:	bd a4 00 07 	l.sflesi r4,0x7
    3fb4:	13 ff fd fb 	l.bf 37a0 <__vfprintf_r+0x4c8>
    3fb8:	9e 10 00 08 	l.addi r16,r16,0x8
    3fbc:	a8 7c 00 00 	l.ori r3,r28,0x0
    3fc0:	07 ff fc b0 	l.jal 3280 <___sprint>
    3fc4:	9c 82 ff e8 	l.addi r4,r2,0xffffffe8
    3fc8:	bc 0b 00 00 	l.sfeqi r11,0x0
    3fcc:	0c 00 00 6d 	l.bnf 4180 <__vfprintf_r+0xea8>
    3fd0:	9e 02 ff a8 	l.addi r16,r2,0xffffffa8
    3fd4:	03 ff fd f4 	l.j 37a4 <__vfprintf_r+0x4cc>
    3fd8:	bc 2c 00 80 	l.sfnei r12,0x80
    3fdc:	10 00 00 7c 	l.bf 41cc <__vfprintf_r+0xef4>
    3fe0:	85 42 f9 b4 	l.lwz r10,0xfffff9b4(r2)
    3fe4:	1a 80 00 00 	l.movhi r20,0x0
    3fe8:	aa 94 de 8c 	l.ori r20,r20,0xde8c
    3fec:	84 62 f9 88 	l.lwz r3,0xfffff988(r2)
    3ff0:	84 82 f9 8c 	l.lwz r4,0xfffff98c(r2)
    3ff4:	84 b4 00 00 	l.lwz r5,0x0(r20)
    3ff8:	84 d4 00 04 	l.lwz r6,0x4(r20)
    3ffc:	04 00 20 17 	l.jal c058 <___eqdf2>
    4000:	15 00 00 00 	l.nop 0x0
    4004:	bc 0b 00 00 	l.sfeqi r11,0x0
    4008:	0c 00 00 a9 	l.bnf 42ac <__vfprintf_r+0xfd4>
    400c:	84 a2 f9 b8 	l.lwz r5,0xfffff9b8(r2)
    4010:	84 62 ff f0 	l.lwz r3,0xfffffff0(r2)
    4014:	9c c0 00 01 	l.addi r6,r0,0x1
    4018:	18 a0 00 00 	l.movhi r5,0x0
    401c:	a8 a5 e0 3f 	l.ori r5,r5,0xe03f
    4020:	e0 83 30 00 	l.add r4,r3,r6
    4024:	d4 10 28 00 	l.sw 0x0(r16),r5
    4028:	84 62 ff ec 	l.lwz r3,0xffffffec(r2)
    402c:	d4 10 30 04 	l.sw 0x4(r16),r6
    4030:	e0 63 30 00 	l.add r3,r3,r6
    4034:	9e 10 00 08 	l.addi r16,r16,0x8
    4038:	d7 e2 27 f0 	l.sw 0xfffffff0(r2),r4
    403c:	bd a3 00 07 	l.sflesi r3,0x7
    4040:	0c 00 02 1d 	l.bnf 48b4 <__vfprintf_r+0x15dc>
    4044:	d7 e2 1f ec 	l.sw 0xffffffec(r2),r3
    4048:	85 42 f9 b4 	l.lwz r10,0xfffff9b4(r2)
    404c:	84 62 f9 b8 	l.lwz r3,0xfffff9b8(r2)
    4050:	e5 83 50 00 	l.sflts r3,r10
    4054:	10 00 00 07 	l.bf 4070 <__vfprintf_r+0xd98>
    4058:	84 62 ff f0 	l.lwz r3,0xfffffff0(r2)
    405c:	a4 7a 00 01 	l.andi r3,r26,0x1
    4060:	bc 23 00 00 	l.sfnei r3,0x0
    4064:	0f ff fe 3c 	l.bnf 3954 <__vfprintf_r+0x67c>
    4068:	b8 7a 00 42 	l.srli r3,r26,0x2
    406c:	84 62 ff f0 	l.lwz r3,0xfffffff0(r2)
    4070:	9d 00 00 01 	l.addi r8,r0,0x1
    4074:	e0 83 40 00 	l.add r4,r3,r8
    4078:	84 a2 f9 90 	l.lwz r5,0xfffff990(r2)
    407c:	84 62 ff ec 	l.lwz r3,0xffffffec(r2)
    4080:	d4 10 40 04 	l.sw 0x4(r16),r8
    4084:	e0 63 40 00 	l.add r3,r3,r8
    4088:	d4 10 28 00 	l.sw 0x0(r16),r5
    408c:	d7 e2 27 f0 	l.sw 0xfffffff0(r2),r4
    4090:	9e 10 00 08 	l.addi r16,r16,0x8
    4094:	bd a3 00 07 	l.sflesi r3,0x7
    4098:	0c 00 02 39 	l.bnf 497c <__vfprintf_r+0x16a4>
    409c:	d7 e2 1f ec 	l.sw 0xffffffec(r2),r3
    40a0:	9d 4a ff ff 	l.addi r10,r10,0xffffffff
    40a4:	bd aa 00 00 	l.sflesi r10,0x0
    40a8:	13 ff fe 2a 	l.bf 3950 <__vfprintf_r+0x678>
    40ac:	bd aa 00 10 	l.sflesi r10,0x10
    40b0:	10 00 00 14 	l.bf 4100 <__vfprintf_r+0xe28>
    40b4:	15 00 00 00 	l.nop 0x0
    40b8:	84 62 ff f0 	l.lwz r3,0xfffffff0(r2)
    40bc:	9d 00 00 10 	l.addi r8,r0,0x10
    40c0:	18 c0 00 00 	l.movhi r6,0x0
    40c4:	a8 c6 de 7c 	l.ori r6,r6,0xde7c
    40c8:	e0 83 40 00 	l.add r4,r3,r8
    40cc:	d4 10 30 00 	l.sw 0x0(r16),r6
    40d0:	84 62 ff ec 	l.lwz r3,0xffffffec(r2)
    40d4:	d4 10 40 04 	l.sw 0x4(r16),r8
    40d8:	9c 63 00 01 	l.addi r3,r3,0x1
    40dc:	9e 10 00 08 	l.addi r16,r16,0x8
    40e0:	d7 e2 27 f0 	l.sw 0xfffffff0(r2),r4
    40e4:	bd a3 00 07 	l.sflesi r3,0x7
    40e8:	0c 00 00 0f 	l.bnf 4124 <__vfprintf_r+0xe4c>
    40ec:	d7 e2 1f ec 	l.sw 0xffffffec(r2),r3
    40f0:	9d 4a ff f0 	l.addi r10,r10,0xfffffff0
    40f4:	bd aa 00 10 	l.sflesi r10,0x10
    40f8:	0f ff ff f0 	l.bnf 40b8 <__vfprintf_r+0xde0>
    40fc:	15 00 00 00 	l.nop 0x0
    4100:	18 60 00 00 	l.movhi r3,0x0
    4104:	a8 63 de 7c 	l.ori r3,r3,0xde7c
    4108:	d4 10 50 04 	l.sw 0x4(r16),r10
    410c:	d4 10 18 00 	l.sw 0x0(r16),r3
    4110:	84 62 ff f0 	l.lwz r3,0xfffffff0(r2)
    4114:	e0 83 50 00 	l.add r4,r3,r10
    4118:	84 62 ff ec 	l.lwz r3,0xffffffec(r2)
    411c:	03 ff fe 07 	l.j 3938 <__vfprintf_r+0x660>
    4120:	9c 63 00 01 	l.addi r3,r3,0x1
    4124:	a8 7c 00 00 	l.ori r3,r28,0x0
    4128:	07 ff fc 56 	l.jal 3280 <___sprint>
    412c:	9c 82 ff e8 	l.addi r4,r2,0xffffffe8
    4130:	bc 0b 00 00 	l.sfeqi r11,0x0
    4134:	0c 00 00 13 	l.bnf 4180 <__vfprintf_r+0xea8>
    4138:	9e 02 ff a8 	l.addi r16,r2,0xffffffa8
    413c:	03 ff ff ee 	l.j 40f4 <__vfprintf_r+0xe1c>
    4140:	9d 4a ff f0 	l.addi r10,r10,0xfffffff0
    4144:	13 ff fe 5a 	l.bf 3aac <__vfprintf_r+0x7d4>
    4148:	e0 82 90 02 	l.sub r4,r2,r18
    414c:	a4 7a 00 01 	l.andi r3,r26,0x1
    4150:	bc 03 00 00 	l.sfeqi r3,0x0
    4154:	13 ff fe 56 	l.bf 3aac <__vfprintf_r+0x7d4>
    4158:	9c a0 00 30 	l.addi r5,r0,0x30
    415c:	9e 42 ff a7 	l.addi r18,r2,0xffffffa7
    4160:	03 ff fe 52 	l.j 3aa8 <__vfprintf_r+0x7d0>
    4164:	d8 12 28 00 	l.sb 0x0(r18),r5
    4168:	a8 7c 00 00 	l.ori r3,r28,0x0
    416c:	07 ff fc 45 	l.jal 3280 <___sprint>
    4170:	9c 82 ff e8 	l.addi r4,r2,0xffffffe8
    4174:	bc 0b 00 00 	l.sfeqi r11,0x0
    4178:	13 ff fe 31 	l.bf 3a3c <__vfprintf_r+0x764>
    417c:	15 00 00 00 	l.nop 0x0
    4180:	85 02 f9 78 	l.lwz r8,0xfffff978(r2)
    4184:	bc 08 00 00 	l.sfeqi r8,0x0
    4188:	0c 00 01 d3 	l.bnf 48d4 <__vfprintf_r+0x15fc>
    418c:	84 62 f9 9c 	l.lwz r3,0xfffff99c(r2)
    4190:	94 7c 00 0c 	l.lhz r3,0xc(r28)
    4194:	b8 63 00 46 	l.srli r3,r3,0x6
    4198:	a4 63 00 01 	l.andi r3,r3,0x1
    419c:	bc 23 00 00 	l.sfnei r3,0x0
    41a0:	13 ff fc e2 	l.bf 3528 <__vfprintf_r+0x250>
    41a4:	15 00 00 00 	l.nop 0x0
    41a8:	00 00 03 59 	l.j 4f0c <__vfprintf_r+0x1c34>
    41ac:	85 62 f9 98 	l.lwz r11,0xfffff998(r2)
    41b0:	07 ff fc 34 	l.jal 3280 <___sprint>
    41b4:	9c 82 ff e8 	l.addi r4,r2,0xffffffe8
    41b8:	bc 0b 00 00 	l.sfeqi r11,0x0
    41bc:	0f ff ff f1 	l.bnf 4180 <__vfprintf_r+0xea8>
    41c0:	9e 02 ff a8 	l.addi r16,r2,0xffffffa8
    41c4:	03 ff fd e4 	l.j 3954 <__vfprintf_r+0x67c>
    41c8:	b8 7a 00 42 	l.srli r3,r26,0x2
    41cc:	bd 4a 00 01 	l.sfgtsi r10,0x1
    41d0:	10 00 00 05 	l.bf 41e4 <__vfprintf_r+0xf0c>
    41d4:	a4 7a 00 01 	l.andi r3,r26,0x1
    41d8:	bc 23 00 00 	l.sfnei r3,0x0
    41dc:	0c 00 01 2d 	l.bnf 4690 <__vfprintf_r+0x13b8>
    41e0:	84 62 ff f0 	l.lwz r3,0xfffffff0(r2)
    41e4:	8c 92 00 00 	l.lbz r4,0x0(r18)
    41e8:	9c 60 00 2e 	l.addi r3,r0,0x2e
    41ec:	9c c0 00 02 	l.addi r6,r0,0x2
    41f0:	db e2 1e 49 	l.sb 0xfffffe49(r2),r3
    41f4:	9e 52 00 01 	l.addi r18,r18,0x1
    41f8:	84 62 ff f0 	l.lwz r3,0xfffffff0(r2)
    41fc:	9c a3 00 02 	l.addi r5,r3,0x2
    4200:	db e2 26 48 	l.sb 0xfffffe48(r2),r4
    4204:	84 62 ff ec 	l.lwz r3,0xffffffec(r2)
    4208:	9c 83 00 01 	l.addi r4,r3,0x1
    420c:	d4 10 30 04 	l.sw 0x4(r16),r6
    4210:	9c 62 fe 48 	l.addi r3,r2,0xfffffe48
    4214:	d7 e2 2f f0 	l.sw 0xfffffff0(r2),r5
    4218:	d4 10 18 00 	l.sw 0x0(r16),r3
    421c:	d7 e2 27 ec 	l.sw 0xffffffec(r2),r4
    4220:	bd a4 00 07 	l.sflesi r4,0x7
    4224:	0c 00 01 2e 	l.bnf 46dc <__vfprintf_r+0x1404>
    4228:	9e 10 00 08 	l.addi r16,r16,0x8
    422c:	1a 80 00 00 	l.movhi r20,0x0
    4230:	aa 94 de 8c 	l.ori r20,r20,0xde8c
    4234:	84 62 f9 88 	l.lwz r3,0xfffff988(r2)
    4238:	84 82 f9 8c 	l.lwz r4,0xfffff98c(r2)
    423c:	84 b4 00 00 	l.lwz r5,0x0(r20)
    4240:	84 d4 00 04 	l.lwz r6,0x4(r20)
    4244:	04 00 1f a8 	l.jal c0e4 <___nedf2>
    4248:	15 00 00 00 	l.nop 0x0
    424c:	bc 2b 00 00 	l.sfnei r11,0x0
    4250:	0c 00 00 82 	l.bnf 4458 <__vfprintf_r+0x1180>
    4254:	84 62 ff f0 	l.lwz r3,0xfffffff0(r2)
    4258:	9c 8a ff ff 	l.addi r4,r10,0xffffffff
    425c:	e0 a3 50 00 	l.add r5,r3,r10
    4260:	d4 10 90 00 	l.sw 0x0(r16),r18
    4264:	84 62 ff ec 	l.lwz r3,0xffffffec(r2)
    4268:	9c a5 ff ff 	l.addi r5,r5,0xffffffff
    426c:	9c 63 00 01 	l.addi r3,r3,0x1
    4270:	d4 10 20 04 	l.sw 0x4(r16),r4
    4274:	d7 e2 2f f0 	l.sw 0xfffffff0(r2),r5
    4278:	9e 10 00 08 	l.addi r16,r16,0x8
    427c:	bd a3 00 07 	l.sflesi r3,0x7
    4280:	0c 00 01 0f 	l.bnf 46bc <__vfprintf_r+0x13e4>
    4284:	d7 e2 1f ec 	l.sw 0xffffffec(r2),r3
    4288:	84 62 ff f0 	l.lwz r3,0xfffffff0(r2)
    428c:	84 c2 f9 84 	l.lwz r6,0xfffff984(r2)
    4290:	e0 83 30 00 	l.add r4,r3,r6
    4294:	d4 10 30 04 	l.sw 0x4(r16),r6
    4298:	9c 62 ff f4 	l.addi r3,r2,0xfffffff4
    429c:	d4 10 18 00 	l.sw 0x0(r16),r3
    42a0:	84 62 ff ec 	l.lwz r3,0xffffffec(r2)
    42a4:	03 ff fd a5 	l.j 3938 <__vfprintf_r+0x660>
    42a8:	9c 63 00 01 	l.addi r3,r3,0x1
    42ac:	bd 45 00 00 	l.sfgtsi r5,0x0
    42b0:	10 00 00 a9 	l.bf 4554 <__vfprintf_r+0x127c>
    42b4:	85 42 f9 b4 	l.lwz r10,0xfffff9b4(r2)
    42b8:	18 80 00 00 	l.movhi r4,0x0
    42bc:	a8 84 e0 3f 	l.ori r4,r4,0xe03f
    42c0:	84 62 ff f0 	l.lwz r3,0xfffffff0(r2)
    42c4:	9c c0 00 01 	l.addi r6,r0,0x1
    42c8:	d4 10 20 00 	l.sw 0x0(r16),r4
    42cc:	d4 10 30 04 	l.sw 0x4(r16),r6
    42d0:	e0 83 30 00 	l.add r4,r3,r6
    42d4:	9e 10 00 08 	l.addi r16,r16,0x8
    42d8:	84 62 ff ec 	l.lwz r3,0xffffffec(r2)
    42dc:	e0 63 30 00 	l.add r3,r3,r6
    42e0:	d7 e2 27 f0 	l.sw 0xfffffff0(r2),r4
    42e4:	bd a3 00 07 	l.sflesi r3,0x7
    42e8:	0c 00 01 b1 	l.bnf 49ac <__vfprintf_r+0x16d4>
    42ec:	d7 e2 1f ec 	l.sw 0xffffffec(r2),r3
    42f0:	bc 25 00 00 	l.sfnei r5,0x0
    42f4:	10 00 00 07 	l.bf 4310 <__vfprintf_r+0x1038>
    42f8:	84 62 ff f0 	l.lwz r3,0xfffffff0(r2)
    42fc:	84 62 f9 b4 	l.lwz r3,0xfffff9b4(r2)
    4300:	bc 23 00 00 	l.sfnei r3,0x0
    4304:	0f ff fd 94 	l.bnf 3954 <__vfprintf_r+0x67c>
    4308:	b8 7a 00 42 	l.srli r3,r26,0x2
    430c:	84 62 ff f0 	l.lwz r3,0xfffffff0(r2)
    4310:	9d 00 00 01 	l.addi r8,r0,0x1
    4314:	e0 83 40 00 	l.add r4,r3,r8
    4318:	84 c2 f9 90 	l.lwz r6,0xfffff990(r2)
    431c:	84 62 ff ec 	l.lwz r3,0xffffffec(r2)
    4320:	d4 10 40 04 	l.sw 0x4(r16),r8
    4324:	e0 63 40 00 	l.add r3,r3,r8
    4328:	d4 10 30 00 	l.sw 0x0(r16),r6
    432c:	d7 e2 27 f0 	l.sw 0xfffffff0(r2),r4
    4330:	9e 10 00 08 	l.addi r16,r16,0x8
    4334:	bd a3 00 07 	l.sflesi r3,0x7
    4338:	0c 00 01 b3 	l.bnf 4a04 <__vfprintf_r+0x172c>
    433c:	d7 e2 1f ec 	l.sw 0xffffffec(r2),r3
    4340:	e1 40 28 02 	l.sub r10,r0,r5
    4344:	bd aa 00 00 	l.sflesi r10,0x0
    4348:	10 00 00 29 	l.bf 43ec <__vfprintf_r+0x1114>
    434c:	15 00 00 00 	l.nop 0x0
    4350:	bd aa 00 10 	l.sflesi r10,0x10
    4354:	10 00 00 13 	l.bf 43a0 <__vfprintf_r+0x10c8>
    4358:	9c 60 00 10 	l.addi r3,r0,0x10
    435c:	19 00 00 00 	l.movhi r8,0x0
    4360:	a9 08 de 7c 	l.ori r8,r8,0xde7c
    4364:	d4 10 18 04 	l.sw 0x4(r16),r3
    4368:	d4 10 40 00 	l.sw 0x0(r16),r8
    436c:	84 62 ff f0 	l.lwz r3,0xfffffff0(r2)
    4370:	9e 10 00 08 	l.addi r16,r16,0x8
    4374:	9c 83 00 10 	l.addi r4,r3,0x10
    4378:	84 62 ff ec 	l.lwz r3,0xffffffec(r2)
    437c:	9c 63 00 01 	l.addi r3,r3,0x1
    4380:	d7 e2 27 f0 	l.sw 0xfffffff0(r2),r4
    4384:	bd a3 00 07 	l.sflesi r3,0x7
    4388:	0c 00 00 26 	l.bnf 4420 <__vfprintf_r+0x1148>
    438c:	d7 e2 1f ec 	l.sw 0xffffffec(r2),r3
    4390:	9d 4a ff f0 	l.addi r10,r10,0xfffffff0
    4394:	bd aa 00 10 	l.sflesi r10,0x10
    4398:	0f ff ff f1 	l.bnf 435c <__vfprintf_r+0x1084>
    439c:	9c 60 00 10 	l.addi r3,r0,0x10
    43a0:	18 80 00 00 	l.movhi r4,0x0
    43a4:	a8 84 de 7c 	l.ori r4,r4,0xde7c
    43a8:	84 62 ff f0 	l.lwz r3,0xfffffff0(r2)
    43ac:	d4 10 20 00 	l.sw 0x0(r16),r4
    43b0:	d4 10 50 04 	l.sw 0x4(r16),r10
    43b4:	e0 83 50 00 	l.add r4,r3,r10
    43b8:	9e 10 00 08 	l.addi r16,r16,0x8
    43bc:	84 62 ff ec 	l.lwz r3,0xffffffec(r2)
    43c0:	9c 63 00 01 	l.addi r3,r3,0x1
    43c4:	d7 e2 27 f0 	l.sw 0xfffffff0(r2),r4
    43c8:	bd a3 00 07 	l.sflesi r3,0x7
    43cc:	10 00 00 08 	l.bf 43ec <__vfprintf_r+0x1114>
    43d0:	d7 e2 1f ec 	l.sw 0xffffffec(r2),r3
    43d4:	a8 7c 00 00 	l.ori r3,r28,0x0
    43d8:	07 ff fb aa 	l.jal 3280 <___sprint>
    43dc:	9c 82 ff e8 	l.addi r4,r2,0xffffffe8
    43e0:	bc 0b 00 00 	l.sfeqi r11,0x0
    43e4:	0f ff ff 67 	l.bnf 4180 <__vfprintf_r+0xea8>
    43e8:	9e 02 ff a8 	l.addi r16,r2,0xffffffa8
    43ec:	84 a2 f9 b4 	l.lwz r5,0xfffff9b4(r2)
    43f0:	84 62 ff ec 	l.lwz r3,0xffffffec(r2)
    43f4:	d4 10 28 04 	l.sw 0x4(r16),r5
    43f8:	84 82 f9 b4 	l.lwz r4,0xfffff9b4(r2)
    43fc:	9c a3 00 01 	l.addi r5,r3,0x1
    4400:	84 62 ff f0 	l.lwz r3,0xfffffff0(r2)
    4404:	bd a5 00 07 	l.sflesi r5,0x7
    4408:	d4 10 90 00 	l.sw 0x0(r16),r18
    440c:	e0 63 20 00 	l.add r3,r3,r4
    4410:	9e 10 00 08 	l.addi r16,r16,0x8
    4414:	d7 e2 1f f0 	l.sw 0xfffffff0(r2),r3
    4418:	03 ff fd 4c 	l.j 3948 <__vfprintf_r+0x670>
    441c:	d7 e2 2f ec 	l.sw 0xffffffec(r2),r5
    4420:	a8 7c 00 00 	l.ori r3,r28,0x0
    4424:	07 ff fb 97 	l.jal 3280 <___sprint>
    4428:	9c 82 ff e8 	l.addi r4,r2,0xffffffe8
    442c:	bc 0b 00 00 	l.sfeqi r11,0x0
    4430:	0f ff ff 54 	l.bnf 4180 <__vfprintf_r+0xea8>
    4434:	9e 02 ff a8 	l.addi r16,r2,0xffffffa8
    4438:	03 ff ff d7 	l.j 4394 <__vfprintf_r+0x10bc>
    443c:	9d 4a ff f0 	l.addi r10,r10,0xfffffff0
    4440:	03 ff fc 6b 	l.j 35ec <__vfprintf_r+0x314>
    4444:	85 5e 00 00 	l.lwz r10,0x0(r30)
    4448:	03 ff fd bf 	l.j 3b44 <__vfprintf_r+0x86c>
    444c:	85 5e 00 00 	l.lwz r10,0x0(r30)
    4450:	03 ff fd d0 	l.j 3b90 <__vfprintf_r+0x8b8>
    4454:	85 5e 00 00 	l.lwz r10,0x0(r30)
    4458:	9d 4a ff ff 	l.addi r10,r10,0xffffffff
    445c:	bd aa 00 00 	l.sflesi r10,0x0
    4460:	13 ff ff 8c 	l.bf 4290 <__vfprintf_r+0xfb8>
    4464:	84 c2 f9 84 	l.lwz r6,0xfffff984(r2)
    4468:	bd aa 00 10 	l.sflesi r10,0x10
    446c:	10 00 00 14 	l.bf 44bc <__vfprintf_r+0x11e4>
    4470:	15 00 00 00 	l.nop 0x0
    4474:	9c 60 00 10 	l.addi r3,r0,0x10
    4478:	19 00 00 00 	l.movhi r8,0x0
    447c:	a9 08 de 7c 	l.ori r8,r8,0xde7c
    4480:	d4 10 18 04 	l.sw 0x4(r16),r3
    4484:	d4 10 40 00 	l.sw 0x0(r16),r8
    4488:	84 62 ff f0 	l.lwz r3,0xfffffff0(r2)
    448c:	9e 10 00 08 	l.addi r16,r16,0x8
    4490:	9c 83 00 10 	l.addi r4,r3,0x10
    4494:	84 62 ff ec 	l.lwz r3,0xffffffec(r2)
    4498:	9c 63 00 01 	l.addi r3,r3,0x1
    449c:	d7 e2 27 f0 	l.sw 0xfffffff0(r2),r4
    44a0:	bd a3 00 07 	l.sflesi r3,0x7
    44a4:	0c 00 00 0f 	l.bnf 44e0 <__vfprintf_r+0x1208>
    44a8:	d7 e2 1f ec 	l.sw 0xffffffec(r2),r3
    44ac:	9d 4a ff f0 	l.addi r10,r10,0xfffffff0
    44b0:	bd aa 00 10 	l.sflesi r10,0x10
    44b4:	0f ff ff f0 	l.bnf 4474 <__vfprintf_r+0x119c>
    44b8:	15 00 00 00 	l.nop 0x0
    44bc:	18 80 00 00 	l.movhi r4,0x0
    44c0:	a8 84 de 7c 	l.ori r4,r4,0xde7c
    44c4:	84 62 ff f0 	l.lwz r3,0xfffffff0(r2)
    44c8:	d4 10 20 00 	l.sw 0x0(r16),r4
    44cc:	d4 10 50 04 	l.sw 0x4(r16),r10
    44d0:	e0 83 50 00 	l.add r4,r3,r10
    44d4:	84 62 ff ec 	l.lwz r3,0xffffffec(r2)
    44d8:	00 00 00 74 	l.j 46a8 <__vfprintf_r+0x13d0>
    44dc:	9c 63 00 01 	l.addi r3,r3,0x1
    44e0:	a8 7c 00 00 	l.ori r3,r28,0x0
    44e4:	07 ff fb 67 	l.jal 3280 <___sprint>
    44e8:	9c 82 ff e8 	l.addi r4,r2,0xffffffe8
    44ec:	bc 0b 00 00 	l.sfeqi r11,0x0
    44f0:	0f ff ff 24 	l.bnf 4180 <__vfprintf_r+0xea8>
    44f4:	9e 02 ff a8 	l.addi r16,r2,0xffffffa8
    44f8:	03 ff ff ee 	l.j 44b0 <__vfprintf_r+0x11d8>
    44fc:	9d 4a ff f0 	l.addi r10,r10,0xfffffff0
    4500:	0f ff fc 5c 	l.bnf 3670 <__vfprintf_r+0x398>
    4504:	15 00 00 00 	l.nop 0x0
    4508:	84 82 f9 7c 	l.lwz r4,0xfffff97c(r2)
    450c:	a4 6a 00 0f 	l.andi r3,r10,0xf
    4510:	9e 52 ff ff 	l.addi r18,r18,0xffffffff
    4514:	e0 63 20 00 	l.add r3,r3,r4
    4518:	b9 4a 00 44 	l.srli r10,r10,0x4
    451c:	8c 63 00 00 	l.lbz r3,0x0(r3)
    4520:	bc 0a 00 00 	l.sfeqi r10,0x0
    4524:	0f ff ff f9 	l.bnf 4508 <__vfprintf_r+0x1230>
    4528:	d8 12 18 00 	l.sb 0x0(r18),r3
    452c:	03 ff fd 60 	l.j 3aac <__vfprintf_r+0x7d4>
    4530:	e0 82 90 02 	l.sub r4,r2,r18
    4534:	a8 7c 00 00 	l.ori r3,r28,0x0
    4538:	07 ff fb 52 	l.jal 3280 <___sprint>
    453c:	9c 82 ff e8 	l.addi r4,r2,0xffffffe8
    4540:	bc 0b 00 00 	l.sfeqi r11,0x0
    4544:	0f ff ff 0f 	l.bnf 4180 <__vfprintf_r+0xea8>
    4548:	9e 02 ff a8 	l.addi r16,r2,0xffffffa8
    454c:	03 ff fc 83 	l.j 3758 <__vfprintf_r+0x480>
    4550:	8c 82 ff ff 	l.lbz r4,0xffffffff(r2)
    4554:	e5 85 50 00 	l.sflts r5,r10
    4558:	10 00 00 e3 	l.bf 48e4 <__vfprintf_r+0x160c>
    455c:	84 62 ff f0 	l.lwz r3,0xfffffff0(r2)
    4560:	e0 83 50 00 	l.add r4,r3,r10
    4564:	d4 10 90 00 	l.sw 0x0(r16),r18
    4568:	84 62 ff ec 	l.lwz r3,0xffffffec(r2)
    456c:	d4 10 50 04 	l.sw 0x4(r16),r10
    4570:	9c 63 00 01 	l.addi r3,r3,0x1
    4574:	d7 e2 27 f0 	l.sw 0xfffffff0(r2),r4
    4578:	9e 10 00 08 	l.addi r16,r16,0x8
    457c:	bd a3 00 07 	l.sflesi r3,0x7
    4580:	0c 00 01 c3 	l.bnf 4c8c <__vfprintf_r+0x19b4>
    4584:	d7 e2 1f ec 	l.sw 0xffffffec(r2),r3
    4588:	e1 45 50 02 	l.sub r10,r5,r10
    458c:	bd aa 00 00 	l.sflesi r10,0x0
    4590:	10 00 00 2a 	l.bf 4638 <__vfprintf_r+0x1360>
    4594:	a4 7a 00 01 	l.andi r3,r26,0x1
    4598:	bd aa 00 10 	l.sflesi r10,0x10
    459c:	10 00 00 13 	l.bf 45e8 <__vfprintf_r+0x1310>
    45a0:	84 62 ff f0 	l.lwz r3,0xfffffff0(r2)
    45a4:	9d 00 00 10 	l.addi r8,r0,0x10
    45a8:	18 c0 00 00 	l.movhi r6,0x0
    45ac:	a8 c6 de 7c 	l.ori r6,r6,0xde7c
    45b0:	e0 83 40 00 	l.add r4,r3,r8
    45b4:	d4 10 30 00 	l.sw 0x0(r16),r6
    45b8:	84 62 ff ec 	l.lwz r3,0xffffffec(r2)
    45bc:	d4 10 40 04 	l.sw 0x4(r16),r8
    45c0:	9c 63 00 01 	l.addi r3,r3,0x1
    45c4:	9e 10 00 08 	l.addi r16,r16,0x8
    45c8:	d7 e2 27 f0 	l.sw 0xfffffff0(r2),r4
    45cc:	bd a3 00 07 	l.sflesi r3,0x7
    45d0:	0c 00 00 28 	l.bnf 4670 <__vfprintf_r+0x1398>
    45d4:	d7 e2 1f ec 	l.sw 0xffffffec(r2),r3
    45d8:	9d 4a ff f0 	l.addi r10,r10,0xfffffff0
    45dc:	bd aa 00 10 	l.sflesi r10,0x10
    45e0:	0f ff ff f1 	l.bnf 45a4 <__vfprintf_r+0x12cc>
    45e4:	84 62 ff f0 	l.lwz r3,0xfffffff0(r2)
    45e8:	18 60 00 00 	l.movhi r3,0x0
    45ec:	a8 63 de 7c 	l.ori r3,r3,0xde7c
    45f0:	d4 10 50 04 	l.sw 0x4(r16),r10
    45f4:	d4 10 18 00 	l.sw 0x0(r16),r3
    45f8:	84 62 ff f0 	l.lwz r3,0xfffffff0(r2)
    45fc:	9e 10 00 08 	l.addi r16,r16,0x8
    4600:	e0 83 50 00 	l.add r4,r3,r10
    4604:	84 62 ff ec 	l.lwz r3,0xffffffec(r2)
    4608:	9c 63 00 01 	l.addi r3,r3,0x1
    460c:	d7 e2 27 f0 	l.sw 0xfffffff0(r2),r4
    4610:	bd a3 00 07 	l.sflesi r3,0x7
    4614:	10 00 00 08 	l.bf 4634 <__vfprintf_r+0x135c>
    4618:	d7 e2 1f ec 	l.sw 0xffffffec(r2),r3
    461c:	a8 7c 00 00 	l.ori r3,r28,0x0
    4620:	07 ff fb 18 	l.jal 3280 <___sprint>
    4624:	9c 82 ff e8 	l.addi r4,r2,0xffffffe8
    4628:	bc 0b 00 00 	l.sfeqi r11,0x0
    462c:	0f ff fe d5 	l.bnf 4180 <__vfprintf_r+0xea8>
    4630:	9e 02 ff a8 	l.addi r16,r2,0xffffffa8
    4634:	a4 7a 00 01 	l.andi r3,r26,0x1
    4638:	bc 03 00 00 	l.sfeqi r3,0x0
    463c:	13 ff fc c5 	l.bf 3950 <__vfprintf_r+0x678>
    4640:	84 62 ff f0 	l.lwz r3,0xfffffff0(r2)
    4644:	18 80 00 00 	l.movhi r4,0x0
    4648:	a8 84 e0 41 	l.ori r4,r4,0xe041
    464c:	9c a0 00 01 	l.addi r5,r0,0x1
    4650:	d4 10 20 00 	l.sw 0x0(r16),r4
    4654:	d4 10 28 04 	l.sw 0x4(r16),r5
    4658:	e0 83 28 00 	l.add r4,r3,r5
    465c:	9e 10 00 08 	l.addi r16,r16,0x8
    4660:	84 62 ff ec 	l.lwz r3,0xffffffec(r2)
    4664:	d7 e2 27 f0 	l.sw 0xfffffff0(r2),r4
    4668:	03 ff fc b6 	l.j 3940 <__vfprintf_r+0x668>
    466c:	e0 63 28 00 	l.add r3,r3,r5
    4670:	a8 7c 00 00 	l.ori r3,r28,0x0
    4674:	07 ff fb 03 	l.jal 3280 <___sprint>
    4678:	9c 82 ff e8 	l.addi r4,r2,0xffffffe8
    467c:	bc 0b 00 00 	l.sfeqi r11,0x0
    4680:	0f ff fe c0 	l.bnf 4180 <__vfprintf_r+0xea8>
    4684:	9e 02 ff a8 	l.addi r16,r2,0xffffffa8
    4688:	03 ff ff d5 	l.j 45dc <__vfprintf_r+0x1304>
    468c:	9d 4a ff f0 	l.addi r10,r10,0xfffffff0
    4690:	9c a0 00 01 	l.addi r5,r0,0x1
    4694:	e0 83 28 00 	l.add r4,r3,r5
    4698:	d4 10 28 04 	l.sw 0x4(r16),r5
    469c:	84 62 ff ec 	l.lwz r3,0xffffffec(r2)
    46a0:	d4 10 90 00 	l.sw 0x0(r16),r18
    46a4:	e0 63 28 00 	l.add r3,r3,r5
    46a8:	d7 e2 27 f0 	l.sw 0xfffffff0(r2),r4
    46ac:	9e 10 00 08 	l.addi r16,r16,0x8
    46b0:	bd a3 00 07 	l.sflesi r3,0x7
    46b4:	13 ff fe f5 	l.bf 4288 <__vfprintf_r+0xfb0>
    46b8:	d7 e2 1f ec 	l.sw 0xffffffec(r2),r3
    46bc:	a8 7c 00 00 	l.ori r3,r28,0x0
    46c0:	07 ff fa f0 	l.jal 3280 <___sprint>
    46c4:	9c 82 ff e8 	l.addi r4,r2,0xffffffe8
    46c8:	bc 0b 00 00 	l.sfeqi r11,0x0
    46cc:	0f ff fe ad 	l.bnf 4180 <__vfprintf_r+0xea8>
    46d0:	9e 02 ff a8 	l.addi r16,r2,0xffffffa8
    46d4:	03 ff fe ee 	l.j 428c <__vfprintf_r+0xfb4>
    46d8:	84 62 ff f0 	l.lwz r3,0xfffffff0(r2)
    46dc:	a8 7c 00 00 	l.ori r3,r28,0x0
    46e0:	07 ff fa e8 	l.jal 3280 <___sprint>
    46e4:	9c 82 ff e8 	l.addi r4,r2,0xffffffe8
    46e8:	bc 0b 00 00 	l.sfeqi r11,0x0
    46ec:	0f ff fe a5 	l.bnf 4180 <__vfprintf_r+0xea8>
    46f0:	85 42 f9 b4 	l.lwz r10,0xfffff9b4(r2)
    46f4:	03 ff fe ce 	l.j 422c <__vfprintf_r+0xf54>
    46f8:	9e 02 ff a8 	l.addi r16,r2,0xffffffa8
    46fc:	84 a3 00 00 	l.lwz r5,0x0(r3)
    4700:	84 c3 00 04 	l.lwz r6,0x4(r3)
    4704:	d7 e2 29 88 	l.sw 0xfffff988(r2),r5
    4708:	d7 e2 31 8c 	l.sw 0xfffff98c(r2),r6
    470c:	84 62 f9 88 	l.lwz r3,0xfffff988(r2)
    4710:	84 82 f9 8c 	l.lwz r4,0xfffff98c(r2)
    4714:	04 00 05 c4 	l.jal 5e24 <_isinf>
    4718:	9f de 00 08 	l.addi r30,r30,0x8
    471c:	bc 0b 00 00 	l.sfeqi r11,0x0
    4720:	0f ff fd 7a 	l.bnf 3d08 <__vfprintf_r+0xa30>
    4724:	15 00 00 00 	l.nop 0x0
    4728:	84 62 f9 88 	l.lwz r3,0xfffff988(r2)
    472c:	84 82 f9 8c 	l.lwz r4,0xfffff98c(r2)
    4730:	04 00 06 33 	l.jal 5ffc <_isnan>
    4734:	15 00 00 00 	l.nop 0x0
    4738:	bc 0b 00 00 	l.sfeqi r11,0x0
    473c:	10 00 00 ba 	l.bf 4a24 <__vfprintf_r+0x174c>
    4740:	a9 98 00 00 	l.ori r12,r24,0x0
    4744:	1a 40 00 00 	l.movhi r18,0x0
    4748:	aa 52 e0 43 	l.ori r18,r18,0xe043
    474c:	03 ff fb ce 	l.j 3684 <__vfprintf_r+0x3ac>
    4750:	9e 80 00 03 	l.addi r20,r0,0x3
    4754:	bc 16 00 53 	l.sfeqi r22,0x53
    4758:	10 00 00 06 	l.bf 4770 <__vfprintf_r+0x1498>
    475c:	b8 7a 00 44 	l.srli r3,r26,0x4
    4760:	a4 63 00 01 	l.andi r3,r3,0x1
    4764:	bc 23 00 00 	l.sfnei r3,0x0
    4768:	0c 00 00 99 	l.bnf 49cc <__vfprintf_r+0x16f4>
    476c:	bd 98 00 00 	l.sfltsi r24,0x0
    4770:	9e 80 00 00 	l.addi r20,r0,0x0
    4774:	d7 e2 91 a0 	l.sw 0xfffff9a0(r2),r18
    4778:	9c 62 f9 a4 	l.addi r3,r2,0xfffff9a4
    477c:	a8 94 00 00 	l.ori r4,r20,0x0
    4780:	9c a0 00 08 	l.addi r5,r0,0x8
    4784:	04 00 05 bd 	l.jal 5e78 <_memset>
    4788:	a9 94 00 00 	l.ori r12,r20,0x0
    478c:	e5 98 a0 00 	l.sflts r24,r20
    4790:	10 00 01 58 	l.bf 4cf0 <__vfprintf_r+0x1a18>
    4794:	84 62 f9 9c 	l.lwz r3,0xfffff99c(r2)
    4798:	b8 8c 00 02 	l.slli r4,r12,0x2
    479c:	84 62 f9 a0 	l.lwz r3,0xfffff9a0(r2)
    47a0:	e0 a4 18 00 	l.add r5,r4,r3
    47a4:	84 a5 00 00 	l.lwz r5,0x0(r5)
    47a8:	bc 25 00 00 	l.sfnei r5,0x0
    47ac:	0c 00 00 0e 	l.bnf 47e4 <__vfprintf_r+0x150c>
    47b0:	84 62 f9 9c 	l.lwz r3,0xfffff99c(r2)
    47b4:	9c 82 fe 4c 	l.addi r4,r2,0xfffffe4c
    47b8:	04 00 05 e1 	l.jal 5f3c <__wcrtomb_r>
    47bc:	9c c2 f9 a4 	l.addi r6,r2,0xfffff9a4
    47c0:	bc 2b ff ff 	l.sfnei r11,0xffffffff
    47c4:	0c 00 01 af 	l.bnf 4e80 <__vfprintf_r+0x1ba8>
    47c8:	e1 6b a0 00 	l.add r11,r11,r20
    47cc:	e5 ab c0 00 	l.sfles r11,r24
    47d0:	0c 00 00 05 	l.bnf 47e4 <__vfprintf_r+0x150c>
    47d4:	e4 2b c0 00 	l.sfne r11,r24
    47d8:	aa 8b 00 00 	l.ori r20,r11,0x0
    47dc:	13 ff ff ef 	l.bf 4798 <__vfprintf_r+0x14c0>
    47e0:	9d 8c 00 01 	l.addi r12,r12,0x1
    47e4:	bc 34 00 00 	l.sfnei r20,0x0
    47e8:	0f ff fb a8 	l.bnf 3688 <__vfprintf_r+0x3b0>
    47ec:	85 02 f9 80 	l.lwz r8,0xfffff980(r2)
    47f0:	84 62 f9 9c 	l.lwz r3,0xfffff99c(r2)
    47f4:	07 ff f7 42 	l.jal 24fc <__malloc_r>
    47f8:	9c 94 00 01 	l.addi r4,r20,0x1
    47fc:	bc 2b 00 00 	l.sfnei r11,0x0
    4800:	0c 00 01 a0 	l.bnf 4e80 <__vfprintf_r+0x1ba8>
    4804:	d7 e2 59 78 	l.sw 0xfffff978(r2),r11
    4808:	9c 62 f9 a4 	l.addi r3,r2,0xfffff9a4
    480c:	9c 80 00 00 	l.addi r4,r0,0x0
    4810:	04 00 05 9a 	l.jal 5e78 <_memset>
    4814:	9c a0 00 08 	l.addi r5,r0,0x8
    4818:	84 62 f9 9c 	l.lwz r3,0xfffff99c(r2)
    481c:	9c a2 f9 a0 	l.addi r5,r2,0xfffff9a0
    4820:	a8 d4 00 00 	l.ori r6,r20,0x0
    4824:	84 82 f9 78 	l.lwz r4,0xfffff978(r2)
    4828:	04 00 06 06 	l.jal 6040 <__wcsrtombs_r>
    482c:	9c e2 f9 a4 	l.addi r7,r2,0xfffff9a4
    4830:	e4 0b a0 00 	l.sfeq r11,r20
    4834:	0c 00 01 93 	l.bnf 4e80 <__vfprintf_r+0x1ba8>
    4838:	9c a0 00 00 	l.addi r5,r0,0x0
    483c:	84 82 f9 78 	l.lwz r4,0xfffff978(r2)
    4840:	e0 64 a0 00 	l.add r3,r4,r20
    4844:	aa 44 00 00 	l.ori r18,r4,0x0
    4848:	03 ff fb 8f 	l.j 3684 <__vfprintf_r+0x3ac>
    484c:	d8 03 28 00 	l.sb 0x0(r3),r5
    4850:	10 00 00 03 	l.bf 485c <__vfprintf_r+0x1584>
    4854:	9c 80 00 00 	l.addi r4,r0,0x0
    4858:	9c 80 00 01 	l.addi r4,r0,0x1
    485c:	bc 36 00 47 	l.sfnei r22,0x47
    4860:	10 00 00 03 	l.bf 486c <__vfprintf_r+0x1594>
    4864:	9c 60 00 00 	l.addi r3,r0,0x0
    4868:	9c 60 00 01 	l.addi r3,r0,0x1
    486c:	e0 64 18 04 	l.or r3,r4,r3
    4870:	bc 03 00 00 	l.sfeqi r3,0x0
    4874:	13 ff fd 16 	l.bf 3ccc <__vfprintf_r+0x9f4>
    4878:	b8 7a 00 43 	l.srli r3,r26,0x3
    487c:	bc 38 00 00 	l.sfnei r24,0x0
    4880:	13 ff fd 14 	l.bf 3cd0 <__vfprintf_r+0x9f8>
    4884:	a4 63 00 01 	l.andi r3,r3,0x1
    4888:	03 ff fd 10 	l.j 3cc8 <__vfprintf_r+0x9f0>
    488c:	9f 00 00 01 	l.addi r24,r0,0x1
    4890:	a4 63 00 01 	l.andi r3,r3,0x1
    4894:	bc 03 00 00 	l.sfeqi r3,0x0
    4898:	10 00 00 41 	l.bf 499c <__vfprintf_r+0x16c4>
    489c:	84 a2 f9 98 	l.lwz r5,0xfffff998(r2)
    48a0:	84 7e 00 00 	l.lwz r3,0x0(r30)
    48a4:	84 82 f9 98 	l.lwz r4,0xfffff998(r2)
    48a8:	9f de 00 04 	l.addi r30,r30,0x4
    48ac:	03 ff fa d1 	l.j 33f0 <__vfprintf_r+0x118>
    48b0:	dc 03 20 00 	l.sh 0x0(r3),r4
    48b4:	a8 7c 00 00 	l.ori r3,r28,0x0
    48b8:	07 ff fa 72 	l.jal 3280 <___sprint>
    48bc:	9c 82 ff e8 	l.addi r4,r2,0xffffffe8
    48c0:	bc 0b 00 00 	l.sfeqi r11,0x0
    48c4:	0f ff fe 2f 	l.bnf 4180 <__vfprintf_r+0xea8>
    48c8:	9e 02 ff a8 	l.addi r16,r2,0xffffffa8
    48cc:	03 ff fd e0 	l.j 404c <__vfprintf_r+0xd74>
    48d0:	85 42 f9 b4 	l.lwz r10,0xfffff9b4(r2)
    48d4:	07 ff f9 81 	l.jal 2ed8 <__free_r>
    48d8:	a8 88 00 00 	l.ori r4,r8,0x0
    48dc:	03 ff fe 2e 	l.j 4194 <__vfprintf_r+0xebc>
    48e0:	94 7c 00 0c 	l.lhz r3,0xc(r28)
    48e4:	e0 83 28 00 	l.add r4,r3,r5
    48e8:	d4 10 90 00 	l.sw 0x0(r16),r18
    48ec:	84 62 ff ec 	l.lwz r3,0xffffffec(r2)
    48f0:	d4 10 28 04 	l.sw 0x4(r16),r5
    48f4:	9c 63 00 01 	l.addi r3,r3,0x1
    48f8:	d7 e2 27 f0 	l.sw 0xfffffff0(r2),r4
    48fc:	9e 10 00 08 	l.addi r16,r16,0x8
    4900:	bd a3 00 07 	l.sflesi r3,0x7
    4904:	0c 00 00 f3 	l.bnf 4cd0 <__vfprintf_r+0x19f8>
    4908:	d7 e2 1f ec 	l.sw 0xffffffec(r2),r3
    490c:	84 62 ff f0 	l.lwz r3,0xfffffff0(r2)
    4910:	9d 00 00 01 	l.addi r8,r0,0x1
    4914:	18 c0 00 00 	l.movhi r6,0x0
    4918:	a8 c6 e0 41 	l.ori r6,r6,0xe041
    491c:	e0 83 40 00 	l.add r4,r3,r8
    4920:	d4 10 30 00 	l.sw 0x0(r16),r6
    4924:	84 62 ff ec 	l.lwz r3,0xffffffec(r2)
    4928:	e2 52 28 00 	l.add r18,r18,r5
    492c:	e0 63 40 00 	l.add r3,r3,r8
    4930:	d4 10 40 04 	l.sw 0x4(r16),r8
    4934:	d7 e2 27 f0 	l.sw 0xfffffff0(r2),r4
    4938:	9e 10 00 08 	l.addi r16,r16,0x8
    493c:	bd a3 00 07 	l.sflesi r3,0x7
    4940:	0c 00 00 dc 	l.bnf 4cb0 <__vfprintf_r+0x19d8>
    4944:	d7 e2 1f ec 	l.sw 0xffffffec(r2),r3
    4948:	84 62 f9 b4 	l.lwz r3,0xfffff9b4(r2)
    494c:	e0 a3 28 02 	l.sub r5,r3,r5
    4950:	d4 10 90 00 	l.sw 0x0(r16),r18
    4954:	84 62 ff f0 	l.lwz r3,0xfffffff0(r2)
    4958:	e0 83 28 00 	l.add r4,r3,r5
    495c:	d4 10 28 04 	l.sw 0x4(r16),r5
    4960:	84 62 ff ec 	l.lwz r3,0xffffffec(r2)
    4964:	03 ff fb f5 	l.j 3938 <__vfprintf_r+0x660>
    4968:	9c 63 00 01 	l.addi r3,r3,0x1
    496c:	8c 7e 00 03 	l.lbz r3,0x3(r30)
    4970:	d8 12 18 00 	l.sb 0x0(r18),r3
    4974:	03 ff fd 0a 	l.j 3d9c <__vfprintf_r+0xac4>
    4978:	9f de 00 04 	l.addi r30,r30,0x4
    497c:	a8 7c 00 00 	l.ori r3,r28,0x0
    4980:	07 ff fa 40 	l.jal 3280 <___sprint>
    4984:	9c 82 ff e8 	l.addi r4,r2,0xffffffe8
    4988:	bc 0b 00 00 	l.sfeqi r11,0x0
    498c:	0f ff fd fd 	l.bnf 4180 <__vfprintf_r+0xea8>
    4990:	85 42 f9 b4 	l.lwz r10,0xfffff9b4(r2)
    4994:	03 ff fd c3 	l.j 40a0 <__vfprintf_r+0xdc8>
    4998:	9e 02 ff a8 	l.addi r16,r2,0xffffffa8
    499c:	84 7e 00 00 	l.lwz r3,0x0(r30)
    49a0:	9f de 00 04 	l.addi r30,r30,0x4
    49a4:	03 ff fa 93 	l.j 33f0 <__vfprintf_r+0x118>
    49a8:	d4 03 28 00 	l.sw 0x0(r3),r5
    49ac:	a8 7c 00 00 	l.ori r3,r28,0x0
    49b0:	07 ff fa 34 	l.jal 3280 <___sprint>
    49b4:	9c 82 ff e8 	l.addi r4,r2,0xffffffe8
    49b8:	bc 0b 00 00 	l.sfeqi r11,0x0
    49bc:	0f ff fd f1 	l.bnf 4180 <__vfprintf_r+0xea8>
    49c0:	84 a2 f9 b8 	l.lwz r5,0xfffff9b8(r2)
    49c4:	03 ff fe 4b 	l.j 42f0 <__vfprintf_r+0x1018>
    49c8:	9e 02 ff a8 	l.addi r16,r2,0xffffffa8
    49cc:	13 ff fb 2b 	l.bf 3678 <__vfprintf_r+0x3a0>
    49d0:	a8 72 00 00 	l.ori r3,r18,0x0
    49d4:	9c 80 00 00 	l.addi r4,r0,0x0
    49d8:	04 00 06 18 	l.jal 6238 <_memchr>
    49dc:	a8 b8 00 00 	l.ori r5,r24,0x0
    49e0:	bc 0b 00 00 	l.sfeqi r11,0x0
    49e4:	13 ff fb 28 	l.bf 3684 <__vfprintf_r+0x3ac>
    49e8:	aa 98 00 00 	l.ori r20,r24,0x0
    49ec:	e2 8b 90 02 	l.sub r20,r11,r18
    49f0:	e5 b4 c0 00 	l.sfles r20,r24
    49f4:	13 ff fb 25 	l.bf 3688 <__vfprintf_r+0x3b0>
    49f8:	85 02 f9 80 	l.lwz r8,0xfffff980(r2)
    49fc:	03 ff fb 23 	l.j 3688 <__vfprintf_r+0x3b0>
    4a00:	aa 98 00 00 	l.ori r20,r24,0x0
    4a04:	a8 7c 00 00 	l.ori r3,r28,0x0
    4a08:	07 ff fa 1e 	l.jal 3280 <___sprint>
    4a0c:	9c 82 ff e8 	l.addi r4,r2,0xffffffe8
    4a10:	bc 0b 00 00 	l.sfeqi r11,0x0
    4a14:	0f ff fd db 	l.bnf 4180 <__vfprintf_r+0xea8>
    4a18:	84 a2 f9 b8 	l.lwz r5,0xfffff9b8(r2)
    4a1c:	03 ff fe 49 	l.j 4340 <__vfprintf_r+0x1068>
    4a20:	9e 02 ff a8 	l.addi r16,r2,0xffffffa8
    4a24:	84 62 f9 88 	l.lwz r3,0xfffff988(r2)
    4a28:	84 82 f9 8c 	l.lwz r4,0xfffff98c(r2)
    4a2c:	ab 5a 01 00 	l.ori r26,r26,0x100
    4a30:	bc 36 00 66 	l.sfnei r22,0x66
    4a34:	d7 e2 19 70 	l.sw 0xfffff970(r2),r3
    4a38:	d7 e2 21 74 	l.sw 0xfffff974(r2),r4
    4a3c:	10 00 00 e9 	l.bf 4de0 <__vfprintf_r+0x1b08>
    4a40:	9c a2 ff fe 	l.addi r5,r2,0xfffffffe
    4a44:	9c e0 00 03 	l.addi r7,r0,0x3
    4a48:	84 82 f9 70 	l.lwz r4,0xfffff970(r2)
    4a4c:	bd 64 00 00 	l.sfgesi r4,0x0
    4a50:	10 00 00 e1 	l.bf 4dd4 <__vfprintf_r+0x1afc>
    4a54:	84 c2 f9 74 	l.lwz r6,0xfffff974(r2)
    4a58:	19 00 80 00 	l.movhi r8,0x8000
    4a5c:	a9 08 00 00 	l.ori r8,r8,0x0
    4a60:	e0 64 40 05 	l.xor r3,r4,r8
    4a64:	9d 00 00 2d 	l.addi r8,r0,0x2d
    4a68:	a8 86 00 00 	l.ori r4,r6,0x0
    4a6c:	d8 05 40 00 	l.sb 0x0(r5),r8
    4a70:	d7 e2 19 70 	l.sw 0xfffff970(r2),r3
    4a74:	d7 e2 21 74 	l.sw 0xfffff974(r2),r4
    4a78:	9c 62 f9 b0 	l.addi r3,r2,0xfffff9b0
    4a7c:	9c 82 f9 b8 	l.addi r4,r2,0xfffff9b8
    4a80:	d4 01 18 04 	l.sw 0x4(r1),r3
    4a84:	d4 01 20 00 	l.sw 0x0(r1),r4
    4a88:	9c 62 f9 ac 	l.addi r3,r2,0xfffff9ac
    4a8c:	a9 0c 00 00 	l.ori r8,r12,0x0
    4a90:	d4 01 18 08 	l.sw 0x8(r1),r3
    4a94:	84 a2 f9 70 	l.lwz r5,0xfffff970(r2)
    4a98:	84 c2 f9 74 	l.lwz r6,0xfffff974(r2)
    4a9c:	04 00 06 c3 	l.jal 65a8 <__dtoa_r>
    4aa0:	84 62 f9 9c 	l.lwz r3,0xfffff99c(r2)
    4aa4:	aa 4b 00 00 	l.ori r18,r11,0x0
    4aa8:	bc 16 00 67 	l.sfeqi r22,0x67
    4aac:	10 00 00 03 	l.bf 4ab8 <__vfprintf_r+0x17e0>
    4ab0:	9c 80 00 00 	l.addi r4,r0,0x0
    4ab4:	9c 80 00 01 	l.addi r4,r0,0x1
    4ab8:	bc 16 00 47 	l.sfeqi r22,0x47
    4abc:	10 00 00 03 	l.bf 4ac8 <__vfprintf_r+0x17f0>
    4ac0:	9c 60 00 00 	l.addi r3,r0,0x0
    4ac4:	9c 60 00 01 	l.addi r3,r0,0x1
    4ac8:	e0 64 18 03 	l.and r3,r4,r3
    4acc:	bc 23 00 00 	l.sfnei r3,0x0
    4ad0:	10 00 00 07 	l.bf 4aec <__vfprintf_r+0x1814>
    4ad4:	bc 36 00 66 	l.sfnei r22,0x66
    4ad8:	a4 7a 00 01 	l.andi r3,r26,0x1
    4adc:	bc 23 00 00 	l.sfnei r3,0x0
    4ae0:	0c 00 00 29 	l.bnf 4b84 <__vfprintf_r+0x18ac>
    4ae4:	84 62 f9 ac 	l.lwz r3,0xfffff9ac(r2)
    4ae8:	bc 36 00 66 	l.sfnei r22,0x66
    4aec:	10 00 00 cc 	l.bf 4e1c <__vfprintf_r+0x1b44>
    4af0:	e1 52 60 00 	l.add r10,r18,r12
    4af4:	90 72 00 00 	l.lbs r3,0x0(r18)
    4af8:	bc 23 00 30 	l.sfnei r3,0x30
    4afc:	10 00 00 e5 	l.bf 4e90 <__vfprintf_r+0x1bb8>
    4b00:	15 00 00 00 	l.nop 0x0
    4b04:	1a 80 00 00 	l.movhi r20,0x0
    4b08:	aa 94 de 8c 	l.ori r20,r20,0xde8c
    4b0c:	84 62 f9 70 	l.lwz r3,0xfffff970(r2)
    4b10:	84 82 f9 74 	l.lwz r4,0xfffff974(r2)
    4b14:	84 b4 00 00 	l.lwz r5,0x0(r20)
    4b18:	84 d4 00 04 	l.lwz r6,0x4(r20)
    4b1c:	04 00 1d 72 	l.jal c0e4 <___nedf2>
    4b20:	15 00 00 00 	l.nop 0x0
    4b24:	bc 2b 00 00 	l.sfnei r11,0x0
    4b28:	0c 00 00 05 	l.bnf 4b3c <__vfprintf_r+0x1864>
    4b2c:	85 02 f9 b8 	l.lwz r8,0xfffff9b8(r2)
    4b30:	9c 60 00 01 	l.addi r3,r0,0x1
    4b34:	e1 03 60 02 	l.sub r8,r3,r12
    4b38:	d7 e2 41 b8 	l.sw 0xfffff9b8(r2),r8
    4b3c:	e1 4a 40 00 	l.add r10,r10,r8
    4b40:	84 62 f9 70 	l.lwz r3,0xfffff970(r2)
    4b44:	84 82 f9 74 	l.lwz r4,0xfffff974(r2)
    4b48:	84 b4 00 00 	l.lwz r5,0x0(r20)
    4b4c:	84 d4 00 04 	l.lwz r6,0x4(r20)
    4b50:	04 00 1d 42 	l.jal c058 <___eqdf2>
    4b54:	15 00 00 00 	l.nop 0x0
    4b58:	bc 0b 00 00 	l.sfeqi r11,0x0
    4b5c:	0c 00 00 04 	l.bnf 4b6c <__vfprintf_r+0x1894>
    4b60:	84 62 f9 ac 	l.lwz r3,0xfffff9ac(r2)
    4b64:	a8 6a 00 00 	l.ori r3,r10,0x0
    4b68:	d7 e2 19 ac 	l.sw 0xfffff9ac(r2),r3
    4b6c:	e4 63 50 00 	l.sfgeu r3,r10
    4b70:	10 00 00 05 	l.bf 4b84 <__vfprintf_r+0x18ac>
    4b74:	9c a0 00 30 	l.addi r5,r0,0x30
    4b78:	d8 03 28 00 	l.sb 0x0(r3),r5
    4b7c:	03 ff ff fb 	l.j 4b68 <__vfprintf_r+0x1890>
    4b80:	9c 63 00 01 	l.addi r3,r3,0x1
    4b84:	e0 63 90 02 	l.sub r3,r3,r18
    4b88:	9c 80 00 00 	l.addi r4,r0,0x0
    4b8c:	bc 36 00 67 	l.sfnei r22,0x67
    4b90:	10 00 00 03 	l.bf 4b9c <__vfprintf_r+0x18c4>
    4b94:	d7 e2 19 b4 	l.sw 0xfffff9b4(r2),r3
    4b98:	9c 80 00 01 	l.addi r4,r0,0x1
    4b9c:	bc 36 00 47 	l.sfnei r22,0x47
    4ba0:	10 00 00 03 	l.bf 4bac <__vfprintf_r+0x18d4>
    4ba4:	9c 60 00 00 	l.addi r3,r0,0x0
    4ba8:	9c 60 00 01 	l.addi r3,r0,0x1
    4bac:	e0 64 18 04 	l.or r3,r4,r3
    4bb0:	bc 03 00 00 	l.sfeqi r3,0x0
    4bb4:	10 00 00 0c 	l.bf 4be4 <__vfprintf_r+0x190c>
    4bb8:	84 a2 f9 b8 	l.lwz r5,0xfffff9b8(r2)
    4bbc:	bd a5 ff fc 	l.sflesi r5,0xfffffffc
    4bc0:	10 00 00 05 	l.bf 4bd4 <__vfprintf_r+0x18fc>
    4bc4:	bc 36 00 67 	l.sfnei r22,0x67
    4bc8:	e5 45 c0 00 	l.sfgts r5,r24
    4bcc:	0c 00 00 98 	l.bnf 4e2c <__vfprintf_r+0x1b54>
    4bd0:	bc 36 00 67 	l.sfnei r22,0x67
    4bd4:	10 00 00 03 	l.bf 4be0 <__vfprintf_r+0x1908>
    4bd8:	9c 60 00 45 	l.addi r3,r0,0x45
    4bdc:	9c 60 00 65 	l.addi r3,r0,0x65
    4be0:	aa c3 00 00 	l.ori r22,r3,0x0
    4be4:	bd 56 00 65 	l.sfgtsi r22,0x65
    4be8:	10 00 00 66 	l.bf 4d80 <__vfprintf_r+0x1aa8>
    4bec:	bc 36 00 66 	l.sfnei r22,0x66
    4bf0:	9c a5 ff ff 	l.addi r5,r5,0xffffffff
    4bf4:	db e2 b7 f4 	l.sb 0xfffffff4(r2),r22
    4bf8:	a9 45 00 00 	l.ori r10,r5,0x0
    4bfc:	9e 82 ff f5 	l.addi r20,r2,0xfffffff5
    4c00:	bd 65 00 00 	l.sfgesi r5,0x0
    4c04:	10 00 00 95 	l.bf 4e58 <__vfprintf_r+0x1b80>
    4c08:	d7 e2 29 b8 	l.sw 0xfffff9b8(r2),r5
    4c0c:	9c c0 00 2d 	l.addi r6,r0,0x2d
    4c10:	e1 40 28 02 	l.sub r10,r0,r5
    4c14:	d8 14 30 00 	l.sb 0x0(r20),r6
    4c18:	9f 02 f9 ec 	l.addi r24,r2,0xfffff9ec
    4c1c:	9e 82 ff f6 	l.addi r20,r2,0xfffffff6
    4c20:	bd aa 00 09 	l.sflesi r10,0x9
    4c24:	10 00 00 3d 	l.bf 4d18 <__vfprintf_r+0x1a40>
    4c28:	a9 98 00 00 	l.ori r12,r24,0x0
    4c2c:	a8 6a 00 00 	l.ori r3,r10,0x0
    4c30:	9c 80 00 0a 	l.addi r4,r0,0xa
    4c34:	04 00 1f 1b 	l.jal c8a0 <___modsi3>
    4c38:	9d 8c ff ff 	l.addi r12,r12,0xffffffff
    4c3c:	9d 6b 00 30 	l.addi r11,r11,0x30
    4c40:	a8 6a 00 00 	l.ori r3,r10,0x0
    4c44:	d8 0c 58 00 	l.sb 0x0(r12),r11
    4c48:	04 00 1f 2c 	l.jal c8f8 <___divsi3>
    4c4c:	9c 80 00 0a 	l.addi r4,r0,0xa
    4c50:	bd ab 00 09 	l.sflesi r11,0x9
    4c54:	0f ff ff f6 	l.bnf 4c2c <__vfprintf_r+0x1954>
    4c58:	a9 4b 00 00 	l.ori r10,r11,0x0
    4c5c:	9d 8c ff ff 	l.addi r12,r12,0xffffffff
    4c60:	9c 6b 00 30 	l.addi r3,r11,0x30
    4c64:	e4 b8 60 00 	l.sfleu r24,r12
    4c68:	d8 0c 18 00 	l.sb 0x0(r12),r3
    4c6c:	10 00 00 32 	l.bf 4d34 <__vfprintf_r+0x1a5c>
    4c70:	9c a2 ff f4 	l.addi r5,r2,0xfffffff4
    4c74:	8c 6c 00 00 	l.lbz r3,0x0(r12)
    4c78:	9d 8c 00 01 	l.addi r12,r12,0x1
    4c7c:	d8 14 18 00 	l.sb 0x0(r20),r3
    4c80:	e4 b8 60 00 	l.sfleu r24,r12
    4c84:	03 ff ff fa 	l.j 4c6c <__vfprintf_r+0x1994>
    4c88:	9e 94 00 01 	l.addi r20,r20,0x1
    4c8c:	a8 7c 00 00 	l.ori r3,r28,0x0
    4c90:	07 ff f9 7c 	l.jal 3280 <___sprint>
    4c94:	9c 82 ff e8 	l.addi r4,r2,0xffffffe8
    4c98:	bc 0b 00 00 	l.sfeqi r11,0x0
    4c9c:	0f ff fd 39 	l.bnf 4180 <__vfprintf_r+0xea8>
    4ca0:	84 a2 f9 b8 	l.lwz r5,0xfffff9b8(r2)
    4ca4:	9e 02 ff a8 	l.addi r16,r2,0xffffffa8
    4ca8:	03 ff fe 38 	l.j 4588 <__vfprintf_r+0x12b0>
    4cac:	85 42 f9 b4 	l.lwz r10,0xfffff9b4(r2)
    4cb0:	a8 7c 00 00 	l.ori r3,r28,0x0
    4cb4:	07 ff f9 73 	l.jal 3280 <___sprint>
    4cb8:	9c 82 ff e8 	l.addi r4,r2,0xffffffe8
    4cbc:	bc 0b 00 00 	l.sfeqi r11,0x0
    4cc0:	0f ff fd 30 	l.bnf 4180 <__vfprintf_r+0xea8>
    4cc4:	84 a2 f9 b8 	l.lwz r5,0xfffff9b8(r2)
    4cc8:	03 ff ff 20 	l.j 4948 <__vfprintf_r+0x1670>
    4ccc:	9e 02 ff a8 	l.addi r16,r2,0xffffffa8
    4cd0:	a8 7c 00 00 	l.ori r3,r28,0x0
    4cd4:	07 ff f9 6b 	l.jal 3280 <___sprint>
    4cd8:	9c 82 ff e8 	l.addi r4,r2,0xffffffe8
    4cdc:	bc 0b 00 00 	l.sfeqi r11,0x0
    4ce0:	0f ff fd 28 	l.bnf 4180 <__vfprintf_r+0xea8>
    4ce4:	84 a2 f9 b8 	l.lwz r5,0xfffff9b8(r2)
    4ce8:	03 ff ff 09 	l.j 490c <__vfprintf_r+0x1634>
    4cec:	9e 02 ff a8 	l.addi r16,r2,0xffffffa8
    4cf0:	a8 94 00 00 	l.ori r4,r20,0x0
    4cf4:	a8 d4 00 00 	l.ori r6,r20,0x0
    4cf8:	9c a2 f9 a0 	l.addi r5,r2,0xfffff9a0
    4cfc:	04 00 04 d1 	l.jal 6040 <__wcsrtombs_r>
    4d00:	9c e2 f9 a4 	l.addi r7,r2,0xfffff9a4
    4d04:	bc 2b ff ff 	l.sfnei r11,0xffffffff
    4d08:	0c 00 00 5e 	l.bnf 4e80 <__vfprintf_r+0x1ba8>
    4d0c:	aa 8b 00 00 	l.ori r20,r11,0x0
    4d10:	03 ff fe b5 	l.j 47e4 <__vfprintf_r+0x150c>
    4d14:	d7 e2 91 a0 	l.sw 0xfffff9a0(r2),r18
    4d18:	9c 60 00 30 	l.addi r3,r0,0x30
    4d1c:	d8 14 18 00 	l.sb 0x0(r20),r3
    4d20:	9e 94 00 01 	l.addi r20,r20,0x1
    4d24:	9c 6a 00 30 	l.addi r3,r10,0x30
    4d28:	d8 14 18 00 	l.sb 0x0(r20),r3
    4d2c:	9e 94 00 01 	l.addi r20,r20,0x1
    4d30:	9c a2 ff f4 	l.addi r5,r2,0xfffffff4
    4d34:	84 82 f9 b4 	l.lwz r4,0xfffff9b4(r2)
    4d38:	e0 b4 28 02 	l.sub r5,r20,r5
    4d3c:	bd 44 00 01 	l.sfgtsi r4,0x1
    4d40:	d7 e2 29 84 	l.sw 0xfffff984(r2),r5
    4d44:	10 00 00 0d 	l.bf 4d78 <__vfprintf_r+0x1aa0>
    4d48:	e2 85 20 00 	l.add r20,r5,r4
    4d4c:	a4 7a 00 01 	l.andi r3,r26,0x1
    4d50:	bc 23 00 00 	l.sfnei r3,0x0
    4d54:	10 00 00 09 	l.bf 4d78 <__vfprintf_r+0x1aa0>
    4d58:	15 00 00 00 	l.nop 0x0
    4d5c:	90 62 ff fe 	l.lbs r3,0xfffffffe(r2)
    4d60:	bc 03 00 00 	l.sfeqi r3,0x0
    4d64:	13 ff fa 49 	l.bf 3688 <__vfprintf_r+0x3b0>
    4d68:	85 02 f9 80 	l.lwz r8,0xfffff980(r2)
    4d6c:	9c c0 00 2d 	l.addi r6,r0,0x2d
    4d70:	03 ff fa 45 	l.j 3684 <__vfprintf_r+0x3ac>
    4d74:	db e2 37 ff 	l.sb 0xffffffff(r2),r6
    4d78:	03 ff ff f9 	l.j 4d5c <__vfprintf_r+0x1a84>
    4d7c:	9e 94 00 01 	l.addi r20,r20,0x1
    4d80:	10 00 00 2d 	l.bf 4e34 <__vfprintf_r+0x1b5c>
    4d84:	84 82 f9 b4 	l.lwz r4,0xfffff9b4(r2)
    4d88:	bd a5 00 00 	l.sflesi r5,0x0
    4d8c:	10 00 00 51 	l.bf 4ed0 <__vfprintf_r+0x1bf8>
    4d90:	bc 38 00 00 	l.sfnei r24,0x0
    4d94:	10 00 00 06 	l.bf 4dac <__vfprintf_r+0x1ad4>
    4d98:	aa 85 00 00 	l.ori r20,r5,0x0
    4d9c:	a4 7a 00 01 	l.andi r3,r26,0x1
    4da0:	bc 23 00 00 	l.sfnei r3,0x0
    4da4:	0f ff ff ef 	l.bnf 4d60 <__vfprintf_r+0x1a88>
    4da8:	90 62 ff fe 	l.lbs r3,0xfffffffe(r2)
    4dac:	e0 98 28 00 	l.add r4,r24,r5
    4db0:	03 ff ff eb 	l.j 4d5c <__vfprintf_r+0x1a84>
    4db4:	9e 84 00 01 	l.addi r20,r4,0x1
    4db8:	04 00 0b ff 	l.jal 7db4 <_fflush>
    4dbc:	a8 6c 00 00 	l.ori r3,r12,0x0
    4dc0:	bc 0b 00 00 	l.sfeqi r11,0x0
    4dc4:	13 ff f9 f5 	l.bf 3598 <__vfprintf_r+0x2c0>
    4dc8:	94 62 fd f8 	l.lhz r3,0xfffffdf8(r2)
    4dcc:	03 ff f9 f3 	l.j 3598 <__vfprintf_r+0x2c0>
    4dd0:	9d 40 ff ff 	l.addi r10,r0,0xffffffff
    4dd4:	9c 60 00 00 	l.addi r3,r0,0x0
    4dd8:	03 ff ff 28 	l.j 4a78 <__vfprintf_r+0x17a0>
    4ddc:	d8 05 18 00 	l.sb 0x0(r5),r3
    4de0:	bc 36 00 65 	l.sfnei r22,0x65
    4de4:	10 00 00 03 	l.bf 4df0 <__vfprintf_r+0x1b18>
    4de8:	9c 80 00 00 	l.addi r4,r0,0x0
    4dec:	9c 80 00 01 	l.addi r4,r0,0x1
    4df0:	bc 36 00 45 	l.sfnei r22,0x45
    4df4:	10 00 00 03 	l.bf 4e00 <__vfprintf_r+0x1b28>
    4df8:	9c 60 00 00 	l.addi r3,r0,0x0
    4dfc:	9c 60 00 01 	l.addi r3,r0,0x1
    4e00:	e0 64 18 04 	l.or r3,r4,r3
    4e04:	bc 03 00 00 	l.sfeqi r3,0x0
    4e08:	10 00 00 03 	l.bf 4e14 <__vfprintf_r+0x1b3c>
    4e0c:	15 00 00 00 	l.nop 0x0
    4e10:	9d 98 00 01 	l.addi r12,r24,0x1
    4e14:	03 ff ff 0d 	l.j 4a48 <__vfprintf_r+0x1770>
    4e18:	9c e0 00 02 	l.addi r7,r0,0x2
    4e1c:	1a 80 00 00 	l.movhi r20,0x0
    4e20:	aa 94 de 8c 	l.ori r20,r20,0xde8c
    4e24:	03 ff ff 47 	l.j 4b40 <__vfprintf_r+0x1868>
    4e28:	15 00 00 00 	l.nop 0x0
    4e2c:	9e c0 00 67 	l.addi r22,r0,0x67
    4e30:	84 82 f9 b4 	l.lwz r4,0xfffff9b4(r2)
    4e34:	e5 85 20 00 	l.sflts r5,r4
    4e38:	10 00 00 1a 	l.bf 4ea0 <__vfprintf_r+0x1bc8>
    4e3c:	bd 45 00 00 	l.sfgtsi r5,0x0
    4e40:	a4 7a 00 01 	l.andi r3,r26,0x1
    4e44:	bc 03 00 00 	l.sfeqi r3,0x0
    4e48:	13 ff ff c5 	l.bf 4d5c <__vfprintf_r+0x1a84>
    4e4c:	aa 85 00 00 	l.ori r20,r5,0x0
    4e50:	03 ff ff c3 	l.j 4d5c <__vfprintf_r+0x1a84>
    4e54:	9e 85 00 01 	l.addi r20,r5,0x1
    4e58:	9d 00 00 2b 	l.addi r8,r0,0x2b
    4e5c:	03 ff ff 6f 	l.j 4c18 <__vfprintf_r+0x1940>
    4e60:	d8 14 40 00 	l.sb 0x0(r20),r8
    4e64:	84 62 ff f0 	l.lwz r3,0xfffffff0(r2)
    4e68:	bc 03 00 00 	l.sfeqi r3,0x0
    4e6c:	0c 00 00 12 	l.bnf 4eb4 <__vfprintf_r+0x1bdc>
    4e70:	a8 7c 00 00 	l.ori r3,r28,0x0
    4e74:	9c c0 00 00 	l.addi r6,r0,0x0
    4e78:	03 ff fc c2 	l.j 4180 <__vfprintf_r+0xea8>
    4e7c:	d7 e2 37 ec 	l.sw 0xffffffec(r2),r6
    4e80:	94 7c 00 0c 	l.lhz r3,0xc(r28)
    4e84:	a8 63 00 40 	l.ori r3,r3,0x40
    4e88:	03 ff fc be 	l.j 4180 <__vfprintf_r+0xea8>
    4e8c:	dc 1c 18 0c 	l.sh 0xc(r28),r3
    4e90:	1a 80 00 00 	l.movhi r20,0x0
    4e94:	aa 94 de 8c 	l.ori r20,r20,0xde8c
    4e98:	03 ff ff 29 	l.j 4b3c <__vfprintf_r+0x1864>
    4e9c:	85 02 f9 b8 	l.lwz r8,0xfffff9b8(r2)
    4ea0:	13 ff ff c4 	l.bf 4db0 <__vfprintf_r+0x1ad8>
    4ea4:	15 00 00 00 	l.nop 0x0
    4ea8:	e0 84 28 02 	l.sub r4,r4,r5
    4eac:	03 ff ff ac 	l.j 4d5c <__vfprintf_r+0x1a84>
    4eb0:	9e 84 00 02 	l.addi r20,r4,0x2
    4eb4:	07 ff f8 f3 	l.jal 3280 <___sprint>
    4eb8:	9c 82 ff e8 	l.addi r4,r2,0xffffffe8
    4ebc:	bc 0b 00 00 	l.sfeqi r11,0x0
    4ec0:	13 ff ff ee 	l.bf 4e78 <__vfprintf_r+0x1ba0>
    4ec4:	9c c0 00 00 	l.addi r6,r0,0x0
    4ec8:	03 ff fc af 	l.j 4184 <__vfprintf_r+0xeac>
    4ecc:	85 02 f9 78 	l.lwz r8,0xfffff978(r2)
    4ed0:	13 ff ff a3 	l.bf 4d5c <__vfprintf_r+0x1a84>
    4ed4:	9e 98 00 02 	l.addi r20,r24,0x2
    4ed8:	a4 7a 00 01 	l.andi r3,r26,0x1
    4edc:	bc 23 00 00 	l.sfnei r3,0x0
    4ee0:	13 ff ff a0 	l.bf 4d60 <__vfprintf_r+0x1a88>
    4ee4:	90 62 ff fe 	l.lbs r3,0xfffffffe(r2)
    4ee8:	03 ff ff 9e 	l.j 4d60 <__vfprintf_r+0x1a88>
    4eec:	9e 80 00 01 	l.addi r20,r0,0x1
    4ef0:	87 1e 00 00 	l.lwz r24,0x0(r30)
    4ef4:	bd 78 00 00 	l.sfgesi r24,0x0
    4ef8:	13 ff fb 40 	l.bf 3bf8 <__vfprintf_r+0x920>
    4efc:	9f de 00 04 	l.addi r30,r30,0x4
    4f00:	8c 8e 00 00 	l.lbz r4,0x0(r14)
    4f04:	03 ff f9 69 	l.j 34a8 <__vfprintf_r+0x1d0>
    4f08:	9f 00 ff ff 	l.addi r24,r0,0xffffffff
    4f0c:	85 21 00 0c 	l.lwz r9,0xc(r1)
    4f10:	84 41 00 10 	l.lwz r2,0x10(r1)
    4f14:	85 41 00 14 	l.lwz r10,0x14(r1)
    4f18:	85 81 00 18 	l.lwz r12,0x18(r1)
    4f1c:	85 c1 00 1c 	l.lwz r14,0x1c(r1)
    4f20:	86 01 00 20 	l.lwz r16,0x20(r1)
    4f24:	86 41 00 24 	l.lwz r18,0x24(r1)
    4f28:	86 81 00 28 	l.lwz r20,0x28(r1)
    4f2c:	86 c1 00 2c 	l.lwz r22,0x2c(r1)
    4f30:	87 01 00 30 	l.lwz r24,0x30(r1)
    4f34:	87 41 00 34 	l.lwz r26,0x34(r1)
    4f38:	87 81 00 38 	l.lwz r28,0x38(r1)
    4f3c:	87 c1 00 3c 	l.lwz r30,0x3c(r1)
    4f40:	44 00 48 00 	l.jr r9
    4f44:	9c 21 06 d0 	l.addi r1,r1,0x6d0

00004f48 <_vfprintf>:
    4f48:	9c 21 ff f8 	l.addi r1,r1,0xfffffff8
    4f4c:	d4 01 10 04 	l.sw 0x4(r1),r2
    4f50:	9c 41 00 08 	l.addi r2,r1,0x8
    4f54:	d4 01 48 00 	l.sw 0x0(r1),r9
    4f58:	a9 03 00 00 	l.ori r8,r3,0x0
    4f5c:	a8 e4 00 00 	l.ori r7,r4,0x0
    4f60:	18 60 00 00 	l.movhi r3,0x0
    4f64:	a8 63 e6 bc 	l.ori r3,r3,0xe6bc
    4f68:	a8 c5 00 00 	l.ori r6,r5,0x0
    4f6c:	84 63 00 00 	l.lwz r3,0x0(r3)
    4f70:	a8 88 00 00 	l.ori r4,r8,0x0
    4f74:	07 ff f8 d9 	l.jal 32d8 <__vfprintf_r>
    4f78:	a8 a7 00 00 	l.ori r5,r7,0x0
    4f7c:	85 21 00 00 	l.lwz r9,0x0(r1)
    4f80:	84 41 00 04 	l.lwz r2,0x4(r1)
    4f84:	44 00 48 00 	l.jr r9
    4f88:	9c 21 00 08 	l.addi r1,r1,0x8

00004f8c <___call_exitprocs>:
    4f8c:	9c 21 ff e0 	l.addi r1,r1,0xffffffe0
    4f90:	d4 01 10 04 	l.sw 0x4(r1),r2
    4f94:	9c 41 00 20 	l.addi r2,r1,0x20
    4f98:	d4 01 48 00 	l.sw 0x0(r1),r9
    4f9c:	d4 01 50 08 	l.sw 0x8(r1),r10
    4fa0:	d4 01 60 0c 	l.sw 0xc(r1),r12
    4fa4:	d4 01 70 10 	l.sw 0x10(r1),r14
    4fa8:	d4 01 80 14 	l.sw 0x14(r1),r16
    4fac:	d4 01 90 18 	l.sw 0x18(r1),r18
    4fb0:	d4 01 a0 1c 	l.sw 0x1c(r1),r20
    4fb4:	aa 83 00 00 	l.ori r20,r3,0x0
    4fb8:	aa 04 00 00 	l.ori r16,r4,0x0
    4fbc:	18 60 00 00 	l.movhi r3,0x0
    4fc0:	a8 63 de 64 	l.ori r3,r3,0xde64
    4fc4:	84 63 00 00 	l.lwz r3,0x0(r3)
    4fc8:	85 83 01 48 	l.lwz r12,0x148(r3)
    4fcc:	bc 0c 00 00 	l.sfeqi r12,0x0
    4fd0:	10 00 00 5c 	l.bf 5140 <___call_exitprocs+0x1b4>
    4fd4:	9e 43 01 48 	l.addi r18,r3,0x148
    4fd8:	84 ec 00 04 	l.lwz r7,0x4(r12)
    4fdc:	9d 47 ff ff 	l.addi r10,r7,0xffffffff
    4fe0:	bd 8a 00 00 	l.sfltsi r10,0x0
    4fe4:	10 00 00 0d 	l.bf 5018 <___call_exitprocs+0x8c>
    4fe8:	9d cc 00 88 	l.addi r14,r12,0x88
    4fec:	9c 60 00 01 	l.addi r3,r0,0x1
    4ff0:	bc 10 00 00 	l.sfeqi r16,0x0
    4ff4:	10 00 00 39 	l.bf 50d8 <___call_exitprocs+0x14c>
    4ff8:	e1 23 50 08 	l.sll r9,r3,r10
    4ffc:	bc 0e 00 00 	l.sfeqi r14,0x0
    5000:	0c 00 00 14 	l.bnf 5050 <___call_exitprocs+0xc4>
    5004:	b8 6a 00 02 	l.slli r3,r10,0x2
    5008:	9d 4a ff ff 	l.addi r10,r10,0xffffffff
    500c:	bd 8a 00 00 	l.sfltsi r10,0x0
    5010:	0f ff ff f8 	l.bnf 4ff0 <___call_exitprocs+0x64>
    5014:	9c 60 00 01 	l.addi r3,r0,0x1
    5018:	bc 27 00 00 	l.sfnei r7,0x0
    501c:	10 00 00 42 	l.bf 5124 <___call_exitprocs+0x198>
    5020:	15 00 00 00 	l.nop 0x0
    5024:	84 6c 00 00 	l.lwz r3,0x0(r12)
    5028:	bc 03 00 00 	l.sfeqi r3,0x0
    502c:	0c 00 00 40 	l.bnf 512c <___call_exitprocs+0x1a0>
    5030:	15 00 00 00 	l.nop 0x0
    5034:	aa 4c 00 00 	l.ori r18,r12,0x0
    5038:	a9 83 00 00 	l.ori r12,r3,0x0
    503c:	bc 0c 00 00 	l.sfeqi r12,0x0
    5040:	0f ff ff e6 	l.bnf 4fd8 <___call_exitprocs+0x4c>
    5044:	15 00 00 00 	l.nop 0x0
    5048:	00 00 00 3e 	l.j 5140 <___call_exitprocs+0x1b4>
    504c:	15 00 00 00 	l.nop 0x0
    5050:	e0 a3 70 00 	l.add r5,r3,r14
    5054:	84 a5 00 80 	l.lwz r5,0x80(r5)
    5058:	e4 25 80 00 	l.sfne r5,r16
    505c:	13 ff ff eb 	l.bf 5008 <___call_exitprocs+0x7c>
    5060:	e0 a3 60 00 	l.add r5,r3,r12
    5064:	9c c7 ff ff 	l.addi r6,r7,0xffffffff
    5068:	9c a5 00 08 	l.addi r5,r5,0x8
    506c:	e4 26 50 00 	l.sfne r6,r10
    5070:	10 00 00 21 	l.bf 50f4 <___call_exitprocs+0x168>
    5074:	85 05 00 00 	l.lwz r8,0x0(r5)
    5078:	a8 e6 00 00 	l.ori r7,r6,0x0
    507c:	d4 0c 30 04 	l.sw 0x4(r12),r6
    5080:	bc 28 00 00 	l.sfnei r8,0x0
    5084:	0f ff ff e1 	l.bnf 5008 <___call_exitprocs+0x7c>
    5088:	bc 0e 00 00 	l.sfeqi r14,0x0
    508c:	10 00 00 22 	l.bf 5114 <___call_exitprocs+0x188>
    5090:	15 00 00 00 	l.nop 0x0
    5094:	84 8e 01 00 	l.lwz r4,0x100(r14)
    5098:	e0 a4 48 03 	l.and r5,r4,r9
    509c:	bc 25 00 00 	l.sfnei r5,0x0
    50a0:	0c 00 00 1d 	l.bnf 5114 <___call_exitprocs+0x188>
    50a4:	15 00 00 00 	l.nop 0x0
    50a8:	84 8e 01 04 	l.lwz r4,0x104(r14)
    50ac:	e0 84 48 03 	l.and r4,r4,r9
    50b0:	bc 24 00 00 	l.sfnei r4,0x0
    50b4:	10 00 00 13 	l.bf 5100 <___call_exitprocs+0x174>
    50b8:	e0 83 70 00 	l.add r4,r3,r14
    50bc:	84 84 00 00 	l.lwz r4,0x0(r4)
    50c0:	48 00 40 00 	l.jalr r8
    50c4:	a8 74 00 00 	l.ori r3,r20,0x0
    50c8:	84 ec 00 04 	l.lwz r7,0x4(r12)
    50cc:	9d 4a ff ff 	l.addi r10,r10,0xffffffff
    50d0:	03 ff ff d0 	l.j 5010 <___call_exitprocs+0x84>
    50d4:	bd 8a 00 00 	l.sfltsi r10,0x0
    50d8:	b8 6a 00 02 	l.slli r3,r10,0x2
    50dc:	9c c7 ff ff 	l.addi r6,r7,0xffffffff
    50e0:	e0 a3 60 00 	l.add r5,r3,r12
    50e4:	e4 26 50 00 	l.sfne r6,r10
    50e8:	9c a5 00 08 	l.addi r5,r5,0x8
    50ec:	0f ff ff e3 	l.bnf 5078 <___call_exitprocs+0xec>
    50f0:	85 05 00 00 	l.lwz r8,0x0(r5)
    50f4:	9c 80 00 00 	l.addi r4,r0,0x0
    50f8:	03 ff ff e2 	l.j 5080 <___call_exitprocs+0xf4>
    50fc:	d4 05 20 00 	l.sw 0x0(r5),r4
    5100:	e0 63 70 00 	l.add r3,r3,r14
    5104:	48 00 40 00 	l.jalr r8
    5108:	84 63 00 00 	l.lwz r3,0x0(r3)
    510c:	03 ff ff f0 	l.j 50cc <___call_exitprocs+0x140>
    5110:	84 ec 00 04 	l.lwz r7,0x4(r12)
    5114:	48 00 40 00 	l.jalr r8
    5118:	9d 4a ff ff 	l.addi r10,r10,0xffffffff
    511c:	03 ff ff ed 	l.j 50d0 <___call_exitprocs+0x144>
    5120:	84 ec 00 04 	l.lwz r7,0x4(r12)
    5124:	03 ff ff c4 	l.j 5034 <___call_exitprocs+0xa8>
    5128:	84 6c 00 00 	l.lwz r3,0x0(r12)
    512c:	d4 12 18 00 	l.sw 0x0(r18),r3
    5130:	07 ff f4 9b 	l.jal 239c <_free>
    5134:	a8 6c 00 00 	l.ori r3,r12,0x0
    5138:	03 ff ff c1 	l.j 503c <___call_exitprocs+0xb0>
    513c:	85 92 00 00 	l.lwz r12,0x0(r18)
    5140:	85 21 00 00 	l.lwz r9,0x0(r1)
    5144:	84 41 00 04 	l.lwz r2,0x4(r1)
    5148:	85 41 00 08 	l.lwz r10,0x8(r1)
    514c:	85 81 00 0c 	l.lwz r12,0xc(r1)
    5150:	85 c1 00 10 	l.lwz r14,0x10(r1)
    5154:	86 01 00 14 	l.lwz r16,0x14(r1)
    5158:	86 41 00 18 	l.lwz r18,0x18(r1)
    515c:	86 81 00 1c 	l.lwz r20,0x1c(r1)
    5160:	44 00 48 00 	l.jr r9
    5164:	9c 21 00 20 	l.addi r1,r1,0x20

00005168 <___malloc_lock>:
    5168:	9c 21 ff fc 	l.addi r1,r1,0xfffffffc
    516c:	d4 01 10 00 	l.sw 0x0(r1),r2
    5170:	9c 41 00 04 	l.addi r2,r1,0x4
    5174:	84 41 00 00 	l.lwz r2,0x0(r1)
    5178:	44 00 48 00 	l.jr r9
    517c:	9c 21 00 04 	l.addi r1,r1,0x4

00005180 <___malloc_unlock>:
    5180:	9c 21 ff fc 	l.addi r1,r1,0xfffffffc
    5184:	d4 01 10 00 	l.sw 0x0(r1),r2
    5188:	9c 41 00 04 	l.addi r2,r1,0x4
    518c:	84 41 00 00 	l.lwz r2,0x0(r1)
    5190:	44 00 48 00 	l.jr r9
    5194:	9c 21 00 04 	l.addi r1,r1,0x4

00005198 <__sbrk_r>:
    5198:	9c 21 ff f0 	l.addi r1,r1,0xfffffff0
    519c:	d4 01 10 04 	l.sw 0x4(r1),r2
    51a0:	9c 41 00 10 	l.addi r2,r1,0x10
    51a4:	d4 01 48 00 	l.sw 0x0(r1),r9
    51a8:	d4 01 50 08 	l.sw 0x8(r1),r10
    51ac:	d4 01 60 0c 	l.sw 0xc(r1),r12
    51b0:	a9 83 00 00 	l.ori r12,r3,0x0
    51b4:	19 40 00 00 	l.movhi r10,0x0
    51b8:	a9 4a f4 80 	l.ori r10,r10,0xf480
    51bc:	a8 64 00 00 	l.ori r3,r4,0x0
    51c0:	9c 80 00 00 	l.addi r4,r0,0x0
    51c4:	04 00 15 f4 	l.jal a994 <_sbrk>
    51c8:	d4 0a 20 00 	l.sw 0x0(r10),r4
    51cc:	bc 2b ff ff 	l.sfnei r11,0xffffffff
    51d0:	10 00 00 07 	l.bf 51ec <__sbrk_r+0x54>
    51d4:	15 00 00 00 	l.nop 0x0
    51d8:	84 6a 00 00 	l.lwz r3,0x0(r10)
    51dc:	bc 03 00 00 	l.sfeqi r3,0x0
    51e0:	10 00 00 03 	l.bf 51ec <__sbrk_r+0x54>
    51e4:	15 00 00 00 	l.nop 0x0
    51e8:	d4 0c 18 00 	l.sw 0x0(r12),r3
    51ec:	85 21 00 00 	l.lwz r9,0x0(r1)
    51f0:	84 41 00 04 	l.lwz r2,0x4(r1)
    51f4:	85 41 00 08 	l.lwz r10,0x8(r1)
    51f8:	85 81 00 0c 	l.lwz r12,0xc(r1)
    51fc:	44 00 48 00 	l.jr r9
    5200:	9c 21 00 10 	l.addi r1,r1,0x10

00005204 <___sfvwrite>:
    5204:	9c 21 ff d8 	l.addi r1,r1,0xffffffd8
    5208:	d4 01 10 04 	l.sw 0x4(r1),r2
    520c:	9c 41 00 28 	l.addi r2,r1,0x28
    5210:	d4 01 48 00 	l.sw 0x0(r1),r9
    5214:	d4 01 50 08 	l.sw 0x8(r1),r10
    5218:	d4 01 60 0c 	l.sw 0xc(r1),r12
    521c:	d4 01 70 10 	l.sw 0x10(r1),r14
    5220:	d4 01 80 14 	l.sw 0x14(r1),r16
    5224:	d4 01 90 18 	l.sw 0x18(r1),r18
    5228:	d4 01 a0 1c 	l.sw 0x1c(r1),r20
    522c:	d4 01 b0 20 	l.sw 0x20(r1),r22
    5230:	d4 01 c0 24 	l.sw 0x24(r1),r24
    5234:	85 44 00 08 	l.lwz r10,0x8(r4)
    5238:	9e 40 00 00 	l.addi r18,r0,0x0
    523c:	aa 84 00 00 	l.ori r20,r4,0x0
    5240:	e4 2a 90 00 	l.sfne r10,r18
    5244:	10 00 00 04 	l.bf 5254 <___sfvwrite+0x50>
    5248:	aa 03 00 00 	l.ori r16,r3,0x0
    524c:	00 00 01 1d 	l.j 56c0 <___sfvwrite+0x4bc>
    5250:	a8 72 00 00 	l.ori r3,r18,0x0
    5254:	94 83 00 0c 	l.lhz r4,0xc(r3)
    5258:	a4 a4 ff ff 	l.andi r5,r4,0xffff
    525c:	b8 a5 00 43 	l.srli r5,r5,0x3
    5260:	ac a5 00 01 	l.xori r5,r5,0x1
    5264:	a4 a5 00 01 	l.andi r5,r5,0x1
    5268:	bc 25 00 00 	l.sfnei r5,0x0
    526c:	10 00 00 06 	l.bf 5284 <___sfvwrite+0x80>
    5270:	15 00 00 00 	l.nop 0x0
    5274:	84 a3 00 10 	l.lwz r5,0x10(r3)
    5278:	bc 25 00 00 	l.sfnei r5,0x0
    527c:	10 00 00 09 	l.bf 52a0 <___sfvwrite+0x9c>
    5280:	a4 a4 ff ff 	l.andi r5,r4,0xffff
    5284:	04 00 01 71 	l.jal 5848 <___swsetup>
    5288:	15 00 00 00 	l.nop 0x0
    528c:	bc 0b 00 00 	l.sfeqi r11,0x0
    5290:	0c 00 01 0c 	l.bnf 56c0 <___sfvwrite+0x4bc>
    5294:	9c 60 ff ff 	l.addi r3,r0,0xffffffff
    5298:	94 90 00 0c 	l.lhz r4,0xc(r16)
    529c:	a4 a4 ff ff 	l.andi r5,r4,0xffff
    52a0:	9d 40 00 00 	l.addi r10,r0,0x0
    52a4:	b8 65 00 41 	l.srli r3,r5,0x1
    52a8:	a4 63 00 01 	l.andi r3,r3,0x1
    52ac:	e4 03 50 00 	l.sfeq r3,r10
    52b0:	10 00 00 1e 	l.bf 5328 <___sfvwrite+0x124>
    52b4:	85 d4 00 00 	l.lwz r14,0x0(r20)
    52b8:	bc 2a 00 00 	l.sfnei r10,0x0
    52bc:	10 00 00 07 	l.bf 52d8 <___sfvwrite+0xd4>
    52c0:	15 00 00 00 	l.nop 0x0
    52c4:	85 4e 00 04 	l.lwz r10,0x4(r14)
    52c8:	86 4e 00 00 	l.lwz r18,0x0(r14)
    52cc:	bc 2a 00 00 	l.sfnei r10,0x0
    52d0:	0f ff ff fd 	l.bnf 52c4 <___sfvwrite+0xc0>
    52d4:	9d ce 00 08 	l.addi r14,r14,0x8
    52d8:	84 70 00 1c 	l.lwz r3,0x1c(r16)
    52dc:	bc aa 04 00 	l.sfleui r10,0x400
    52e0:	10 00 00 03 	l.bf 52ec <___sfvwrite+0xe8>
    52e4:	a8 aa 00 00 	l.ori r5,r10,0x0
    52e8:	9c a0 04 00 	l.addi r5,r0,0x400
    52ec:	84 d0 00 24 	l.lwz r6,0x24(r16)
    52f0:	48 00 30 00 	l.jalr r6
    52f4:	a8 92 00 00 	l.ori r4,r18,0x0
    52f8:	bd 4b 00 00 	l.sfgtsi r11,0x0
    52fc:	0c 00 00 a3 	l.bnf 5588 <___sfvwrite+0x384>
    5300:	15 00 00 00 	l.nop 0x0
    5304:	84 74 00 08 	l.lwz r3,0x8(r20)
    5308:	e2 52 58 00 	l.add r18,r18,r11
    530c:	e1 4a 58 02 	l.sub r10,r10,r11
    5310:	e0 a3 58 02 	l.sub r5,r3,r11
    5314:	bc 05 00 00 	l.sfeqi r5,0x0
    5318:	0f ff ff e8 	l.bnf 52b8 <___sfvwrite+0xb4>
    531c:	d4 14 28 08 	l.sw 0x8(r20),r5
    5320:	00 00 00 e8 	l.j 56c0 <___sfvwrite+0x4bc>
    5324:	9c 60 00 00 	l.addi r3,r0,0x0
    5328:	ac 65 00 01 	l.xori r3,r5,0x1
    532c:	a4 63 00 01 	l.andi r3,r3,0x1
    5330:	bc 03 00 00 	l.sfeqi r3,0x0
    5334:	0c 00 00 74 	l.bnf 5504 <___sfvwrite+0x300>
    5338:	bc 2a 00 00 	l.sfnei r10,0x0
    533c:	ab 0a 00 00 	l.ori r24,r10,0x0
    5340:	10 00 00 3f 	l.bf 543c <___sfvwrite+0x238>
    5344:	aa ca 00 00 	l.ori r22,r10,0x0
    5348:	85 4e 00 04 	l.lwz r10,0x4(r14)
    534c:	86 4e 00 00 	l.lwz r18,0x0(r14)
    5350:	bc 2a 00 00 	l.sfnei r10,0x0
    5354:	0f ff ff fd 	l.bnf 5348 <___sfvwrite+0x144>
    5358:	9d ce 00 08 	l.addi r14,r14,0x8
    535c:	a8 72 00 00 	l.ori r3,r18,0x0
    5360:	9c 80 00 0a 	l.addi r4,r0,0xa
    5364:	04 00 03 b5 	l.jal 6238 <_memchr>
    5368:	a8 aa 00 00 	l.ori r5,r10,0x0
    536c:	bc 0b 00 00 	l.sfeqi r11,0x0
    5370:	10 00 00 04 	l.bf 5380 <___sfvwrite+0x17c>
    5374:	9e ca 00 01 	l.addi r22,r10,0x1
    5378:	e1 6b 90 02 	l.sub r11,r11,r18
    537c:	9e cb 00 01 	l.addi r22,r11,0x1
    5380:	9f 00 00 01 	l.addi r24,r0,0x1
    5384:	e4 b6 50 00 	l.sfleu r22,r10
    5388:	10 00 00 03 	l.bf 5394 <___sfvwrite+0x190>
    538c:	a8 d6 00 00 	l.ori r6,r22,0x0
    5390:	a8 ca 00 00 	l.ori r6,r10,0x0
    5394:	84 b0 00 08 	l.lwz r5,0x8(r16)
    5398:	9d 00 00 00 	l.addi r8,r0,0x0
    539c:	84 f0 00 14 	l.lwz r7,0x14(r16)
    53a0:	84 70 00 00 	l.lwz r3,0x0(r16)
    53a4:	84 90 00 10 	l.lwz r4,0x10(r16)
    53a8:	e4 a3 20 00 	l.sfleu r3,r4
    53ac:	10 00 00 03 	l.bf 53b8 <___sfvwrite+0x1b4>
    53b0:	e1 85 38 00 	l.add r12,r5,r7
    53b4:	9d 00 00 01 	l.addi r8,r0,0x1
    53b8:	e5 a6 60 00 	l.sfles r6,r12
    53bc:	10 00 00 03 	l.bf 53c8 <___sfvwrite+0x1c4>
    53c0:	9c 80 00 00 	l.addi r4,r0,0x0
    53c4:	9c 80 00 01 	l.addi r4,r0,0x1
    53c8:	e0 88 20 03 	l.and r4,r8,r4
    53cc:	bc 04 00 00 	l.sfeqi r4,0x0
    53d0:	0c 00 00 9a 	l.bnf 5638 <___sfvwrite+0x434>
    53d4:	a8 92 00 00 	l.ori r4,r18,0x0
    53d8:	e5 47 30 00 	l.sfgts r7,r6
    53dc:	10 00 00 85 	l.bf 55f0 <___sfvwrite+0x3ec>
    53e0:	a9 86 00 00 	l.ori r12,r6,0x0
    53e4:	84 d0 00 24 	l.lwz r6,0x24(r16)
    53e8:	a8 a7 00 00 	l.ori r5,r7,0x0
    53ec:	a8 92 00 00 	l.ori r4,r18,0x0
    53f0:	48 00 30 00 	l.jalr r6
    53f4:	84 70 00 1c 	l.lwz r3,0x1c(r16)
    53f8:	a9 8b 00 00 	l.ori r12,r11,0x0
    53fc:	bd 4b 00 00 	l.sfgtsi r11,0x0
    5400:	0c 00 00 62 	l.bnf 5588 <___sfvwrite+0x384>
    5404:	e2 d6 60 02 	l.sub r22,r22,r12
    5408:	bc 36 00 00 	l.sfnei r22,0x0
    540c:	0c 00 00 84 	l.bnf 561c <___sfvwrite+0x418>
    5410:	15 00 00 00 	l.nop 0x0
    5414:	84 74 00 08 	l.lwz r3,0x8(r20)
    5418:	e2 52 60 00 	l.add r18,r18,r12
    541c:	e1 4a 60 02 	l.sub r10,r10,r12
    5420:	e0 a3 60 02 	l.sub r5,r3,r12
    5424:	bc 05 00 00 	l.sfeqi r5,0x0
    5428:	13 ff ff be 	l.bf 5320 <___sfvwrite+0x11c>
    542c:	d4 14 28 08 	l.sw 0x8(r20),r5
    5430:	bc 2a 00 00 	l.sfnei r10,0x0
    5434:	0f ff ff c5 	l.bnf 5348 <___sfvwrite+0x144>
    5438:	15 00 00 00 	l.nop 0x0
    543c:	bc 38 00 00 	l.sfnei r24,0x0
    5440:	13 ff ff d2 	l.bf 5388 <___sfvwrite+0x184>
    5444:	e4 b6 50 00 	l.sfleu r22,r10
    5448:	a8 72 00 00 	l.ori r3,r18,0x0
    544c:	9c 80 00 0a 	l.addi r4,r0,0xa
    5450:	04 00 03 7a 	l.jal 6238 <_memchr>
    5454:	a8 aa 00 00 	l.ori r5,r10,0x0
    5458:	bc 0b 00 00 	l.sfeqi r11,0x0
    545c:	0f ff ff c7 	l.bnf 5378 <___sfvwrite+0x174>
    5460:	9e ca 00 01 	l.addi r22,r10,0x1
    5464:	03 ff ff c8 	l.j 5384 <___sfvwrite+0x180>
    5468:	9f 00 00 01 	l.addi r24,r0,0x1
    546c:	a4 84 ff ff 	l.andi r4,r4,0xffff
    5470:	b8 64 00 49 	l.srli r3,r4,0x9
    5474:	a4 63 00 01 	l.andi r3,r3,0x1
    5478:	bc 03 00 00 	l.sfeqi r3,0x0
    547c:	10 00 00 29 	l.bf 5520 <___sfvwrite+0x31c>
    5480:	85 90 00 08 	l.lwz r12,0x8(r16)
    5484:	e4 6c 50 00 	l.sfgeu r12,r10
    5488:	10 00 00 08 	l.bf 54a8 <___sfvwrite+0x2a4>
    548c:	e4 ac 50 00 	l.sfleu r12,r10
    5490:	b8 64 00 47 	l.srli r3,r4,0x7
    5494:	a4 63 00 01 	l.andi r3,r3,0x1
    5498:	bc 03 00 00 	l.sfeqi r3,0x0
    549c:	0c 00 00 70 	l.bnf 565c <___sfvwrite+0x458>
    54a0:	15 00 00 00 	l.nop 0x0
    54a4:	e4 ac 50 00 	l.sfleu r12,r10
    54a8:	10 00 00 03 	l.bf 54b4 <___sfvwrite+0x2b0>
    54ac:	15 00 00 00 	l.nop 0x0
    54b0:	a9 8a 00 00 	l.ori r12,r10,0x0
    54b4:	84 70 00 00 	l.lwz r3,0x0(r16)
    54b8:	a8 ac 00 00 	l.ori r5,r12,0x0
    54bc:	04 00 0a 8c 	l.jal 7eec <_memmove>
    54c0:	a8 92 00 00 	l.ori r4,r18,0x0
    54c4:	84 70 00 08 	l.lwz r3,0x8(r16)
    54c8:	84 90 00 00 	l.lwz r4,0x0(r16)
    54cc:	e0 63 60 02 	l.sub r3,r3,r12
    54d0:	e0 a4 60 00 	l.add r5,r4,r12
    54d4:	d4 10 18 08 	l.sw 0x8(r16),r3
    54d8:	d4 10 28 00 	l.sw 0x0(r16),r5
    54dc:	a9 8a 00 00 	l.ori r12,r10,0x0
    54e0:	84 74 00 08 	l.lwz r3,0x8(r20)
    54e4:	e2 52 60 00 	l.add r18,r18,r12
    54e8:	e1 4a 60 02 	l.sub r10,r10,r12
    54ec:	e0 a3 60 02 	l.sub r5,r3,r12
    54f0:	bc 05 00 00 	l.sfeqi r5,0x0
    54f4:	13 ff ff 8b 	l.bf 5320 <___sfvwrite+0x11c>
    54f8:	d4 14 28 08 	l.sw 0x8(r20),r5
    54fc:	94 90 00 0c 	l.lhz r4,0xc(r16)
    5500:	bc 2a 00 00 	l.sfnei r10,0x0
    5504:	13 ff ff da 	l.bf 546c <___sfvwrite+0x268>
    5508:	15 00 00 00 	l.nop 0x0
    550c:	85 4e 00 04 	l.lwz r10,0x4(r14)
    5510:	86 4e 00 00 	l.lwz r18,0x0(r14)
    5514:	bc 2a 00 00 	l.sfnei r10,0x0
    5518:	03 ff ff fb 	l.j 5504 <___sfvwrite+0x300>
    551c:	9d ce 00 08 	l.addi r14,r14,0x8
    5520:	84 70 00 00 	l.lwz r3,0x0(r16)
    5524:	84 90 00 10 	l.lwz r4,0x10(r16)
    5528:	e4 a3 20 00 	l.sfleu r3,r4
    552c:	10 00 00 03 	l.bf 5538 <___sfvwrite+0x334>
    5530:	9c a0 00 00 	l.addi r5,r0,0x0
    5534:	9c a0 00 01 	l.addi r5,r0,0x1
    5538:	e4 6c 50 00 	l.sfgeu r12,r10
    553c:	10 00 00 03 	l.bf 5548 <___sfvwrite+0x344>
    5540:	9c 80 00 00 	l.addi r4,r0,0x0
    5544:	9c 80 00 01 	l.addi r4,r0,0x1
    5548:	e0 85 20 03 	l.and r4,r5,r4
    554c:	bc 04 00 00 	l.sfeqi r4,0x0
    5550:	0c 00 00 1c 	l.bnf 55c0 <___sfvwrite+0x3bc>
    5554:	a8 92 00 00 	l.ori r4,r18,0x0
    5558:	85 90 00 14 	l.lwz r12,0x14(r16)
    555c:	e4 4c 50 00 	l.sfgtu r12,r10
    5560:	10 00 00 0f 	l.bf 559c <___sfvwrite+0x398>
    5564:	a8 aa 00 00 	l.ori r5,r10,0x0
    5568:	84 d0 00 24 	l.lwz r6,0x24(r16)
    556c:	a8 ac 00 00 	l.ori r5,r12,0x0
    5570:	a8 92 00 00 	l.ori r4,r18,0x0
    5574:	48 00 30 00 	l.jalr r6
    5578:	84 70 00 1c 	l.lwz r3,0x1c(r16)
    557c:	bd 4b 00 00 	l.sfgtsi r11,0x0
    5580:	13 ff ff d8 	l.bf 54e0 <___sfvwrite+0x2dc>
    5584:	a9 8b 00 00 	l.ori r12,r11,0x0
    5588:	94 90 00 0c 	l.lhz r4,0xc(r16)
    558c:	9c 60 ff ff 	l.addi r3,r0,0xffffffff
    5590:	a8 84 00 40 	l.ori r4,r4,0x40
    5594:	00 00 00 4b 	l.j 56c0 <___sfvwrite+0x4bc>
    5598:	dc 10 20 0c 	l.sh 0xc(r16),r4
    559c:	04 00 0a 54 	l.jal 7eec <_memmove>
    55a0:	a9 8a 00 00 	l.ori r12,r10,0x0
    55a4:	84 70 00 08 	l.lwz r3,0x8(r16)
    55a8:	84 90 00 00 	l.lwz r4,0x0(r16)
    55ac:	e0 63 50 02 	l.sub r3,r3,r10
    55b0:	e0 84 50 00 	l.add r4,r4,r10
    55b4:	d4 10 18 08 	l.sw 0x8(r16),r3
    55b8:	03 ff ff ca 	l.j 54e0 <___sfvwrite+0x2dc>
    55bc:	d4 10 20 00 	l.sw 0x0(r16),r4
    55c0:	04 00 0a 4b 	l.jal 7eec <_memmove>
    55c4:	a8 ac 00 00 	l.ori r5,r12,0x0
    55c8:	84 90 00 00 	l.lwz r4,0x0(r16)
    55cc:	a8 70 00 00 	l.ori r3,r16,0x0
    55d0:	e0 84 60 00 	l.add r4,r4,r12
    55d4:	04 00 09 f8 	l.jal 7db4 <_fflush>
    55d8:	d4 10 20 00 	l.sw 0x0(r16),r4
    55dc:	bc 0b 00 00 	l.sfeqi r11,0x0
    55e0:	13 ff ff c0 	l.bf 54e0 <___sfvwrite+0x2dc>
    55e4:	15 00 00 00 	l.nop 0x0
    55e8:	03 ff ff e9 	l.j 558c <___sfvwrite+0x388>
    55ec:	94 90 00 0c 	l.lhz r4,0xc(r16)
    55f0:	a8 a6 00 00 	l.ori r5,r6,0x0
    55f4:	04 00 0a 3e 	l.jal 7eec <_memmove>
    55f8:	e2 d6 60 02 	l.sub r22,r22,r12
    55fc:	84 70 00 08 	l.lwz r3,0x8(r16)
    5600:	bc 36 00 00 	l.sfnei r22,0x0
    5604:	84 90 00 00 	l.lwz r4,0x0(r16)
    5608:	e0 63 60 02 	l.sub r3,r3,r12
    560c:	e0 84 60 00 	l.add r4,r4,r12
    5610:	d4 10 18 08 	l.sw 0x8(r16),r3
    5614:	13 ff ff 80 	l.bf 5414 <___sfvwrite+0x210>
    5618:	d4 10 20 00 	l.sw 0x0(r16),r4
    561c:	04 00 09 e6 	l.jal 7db4 <_fflush>
    5620:	a8 70 00 00 	l.ori r3,r16,0x0
    5624:	bc 0b 00 00 	l.sfeqi r11,0x0
    5628:	0f ff ff d8 	l.bnf 5588 <___sfvwrite+0x384>
    562c:	9f 00 00 00 	l.addi r24,r0,0x0
    5630:	03 ff ff 7a 	l.j 5418 <___sfvwrite+0x214>
    5634:	84 74 00 08 	l.lwz r3,0x8(r20)
    5638:	04 00 0a 2d 	l.jal 7eec <_memmove>
    563c:	a8 ac 00 00 	l.ori r5,r12,0x0
    5640:	84 90 00 00 	l.lwz r4,0x0(r16)
    5644:	a8 70 00 00 	l.ori r3,r16,0x0
    5648:	e0 84 60 00 	l.add r4,r4,r12
    564c:	04 00 09 da 	l.jal 7db4 <_fflush>
    5650:	d4 10 20 00 	l.sw 0x0(r16),r4
    5654:	03 ff ff 6b 	l.j 5400 <___sfvwrite+0x1fc>
    5658:	bc 0b 00 00 	l.sfeqi r11,0x0
    565c:	84 b0 00 10 	l.lwz r5,0x10(r16)
    5660:	1b 00 00 00 	l.movhi r24,0x0
    5664:	ab 18 e6 bc 	l.ori r24,r24,0xe6bc
    5668:	84 70 00 00 	l.lwz r3,0x0(r16)
    566c:	a8 85 00 00 	l.ori r4,r5,0x0
    5670:	e2 c3 28 02 	l.sub r22,r3,r5
    5674:	e1 96 50 00 	l.add r12,r22,r10
    5678:	84 78 00 00 	l.lwz r3,0x0(r24)
    567c:	04 00 0a 6e 	l.jal 8034 <__realloc_r>
    5680:	a8 ac 00 00 	l.ori r5,r12,0x0
    5684:	bc 2b 00 00 	l.sfnei r11,0x0
    5688:	0c 00 00 09 	l.bnf 56ac <___sfvwrite+0x4a8>
    568c:	15 00 00 00 	l.nop 0x0
    5690:	e0 8b b0 00 	l.add r4,r11,r22
    5694:	d4 10 60 14 	l.sw 0x14(r16),r12
    5698:	d4 10 20 00 	l.sw 0x0(r16),r4
    569c:	d4 10 58 10 	l.sw 0x10(r16),r11
    56a0:	d4 10 50 08 	l.sw 0x8(r16),r10
    56a4:	03 ff ff 80 	l.j 54a4 <___sfvwrite+0x2a0>
    56a8:	a9 8a 00 00 	l.ori r12,r10,0x0
    56ac:	84 78 00 00 	l.lwz r3,0x0(r24)
    56b0:	07 ff f6 0a 	l.jal 2ed8 <__free_r>
    56b4:	84 90 00 10 	l.lwz r4,0x10(r16)
    56b8:	03 ff ff b5 	l.j 558c <___sfvwrite+0x388>
    56bc:	94 90 00 0c 	l.lhz r4,0xc(r16)
    56c0:	a9 63 00 00 	l.ori r11,r3,0x0
    56c4:	85 21 00 00 	l.lwz r9,0x0(r1)
    56c8:	84 41 00 04 	l.lwz r2,0x4(r1)
    56cc:	85 41 00 08 	l.lwz r10,0x8(r1)
    56d0:	85 81 00 0c 	l.lwz r12,0xc(r1)
    56d4:	85 c1 00 10 	l.lwz r14,0x10(r1)
    56d8:	86 01 00 14 	l.lwz r16,0x14(r1)
    56dc:	86 41 00 18 	l.lwz r18,0x18(r1)
    56e0:	86 81 00 1c 	l.lwz r20,0x1c(r1)
    56e4:	86 c1 00 20 	l.lwz r22,0x20(r1)
    56e8:	87 01 00 24 	l.lwz r24,0x24(r1)
    56ec:	44 00 48 00 	l.jr r9
    56f0:	9c 21 00 28 	l.addi r1,r1,0x28

000056f4 <__setlocale_r>:
    56f4:	9c 21 ff ec 	l.addi r1,r1,0xffffffec
    56f8:	d4 01 10 04 	l.sw 0x4(r1),r2
    56fc:	9c 41 00 14 	l.addi r2,r1,0x14
    5700:	d4 01 48 00 	l.sw 0x0(r1),r9
    5704:	d4 01 50 08 	l.sw 0x8(r1),r10
    5708:	d4 01 60 0c 	l.sw 0xc(r1),r12
    570c:	d4 01 70 10 	l.sw 0x10(r1),r14
    5710:	a9 83 00 00 	l.ori r12,r3,0x0
    5714:	a9 c4 00 00 	l.ori r14,r4,0x0
    5718:	a9 45 00 00 	l.ori r10,r5,0x0
    571c:	18 80 00 00 	l.movhi r4,0x0
    5720:	a8 84 e0 55 	l.ori r4,r4,0xe055
    5724:	bc 05 00 00 	l.sfeqi r5,0x0
    5728:	0c 00 00 06 	l.bnf 5740 <__setlocale_r+0x4c>
    572c:	a8 65 00 00 	l.ori r3,r5,0x0
    5730:	19 60 00 00 	l.movhi r11,0x0
    5734:	a9 6b e0 55 	l.ori r11,r11,0xe055
    5738:	00 00 00 11 	l.j 577c <__setlocale_r+0x88>
    573c:	15 00 00 00 	l.nop 0x0
    5740:	04 00 0b af 	l.jal 85fc <_strcmp>
    5744:	15 00 00 00 	l.nop 0x0
    5748:	18 80 00 00 	l.movhi r4,0x0
    574c:	a8 84 e0 49 	l.ori r4,r4,0xe049
    5750:	bc 0b 00 00 	l.sfeqi r11,0x0
    5754:	0c 00 00 05 	l.bnf 5768 <__setlocale_r+0x74>
    5758:	a8 6a 00 00 	l.ori r3,r10,0x0
    575c:	d4 0c 50 34 	l.sw 0x34(r12),r10
    5760:	03 ff ff f4 	l.j 5730 <__setlocale_r+0x3c>
    5764:	d4 0c 70 30 	l.sw 0x30(r12),r14
    5768:	04 00 0b a5 	l.jal 85fc <_strcmp>
    576c:	15 00 00 00 	l.nop 0x0
    5770:	bc 0b 00 00 	l.sfeqi r11,0x0
    5774:	13 ff ff fa 	l.bf 575c <__setlocale_r+0x68>
    5778:	9d 60 00 00 	l.addi r11,r0,0x0
    577c:	85 21 00 00 	l.lwz r9,0x0(r1)
    5780:	84 41 00 04 	l.lwz r2,0x4(r1)
    5784:	85 41 00 08 	l.lwz r10,0x8(r1)
    5788:	85 81 00 0c 	l.lwz r12,0xc(r1)
    578c:	85 c1 00 10 	l.lwz r14,0x10(r1)
    5790:	44 00 48 00 	l.jr r9
    5794:	9c 21 00 14 	l.addi r1,r1,0x14

00005798 <___locale_charset>:
    5798:	9c 21 ff fc 	l.addi r1,r1,0xfffffffc
    579c:	d4 01 10 00 	l.sw 0x0(r1),r2
    57a0:	9c 41 00 04 	l.addi r2,r1,0x4
    57a4:	19 60 00 00 	l.movhi r11,0x0
    57a8:	a9 6b eb 20 	l.ori r11,r11,0xeb20
    57ac:	85 6b 00 00 	l.lwz r11,0x0(r11)
    57b0:	84 41 00 00 	l.lwz r2,0x0(r1)
    57b4:	44 00 48 00 	l.jr r9
    57b8:	9c 21 00 04 	l.addi r1,r1,0x4

000057bc <__localeconv_r>:
    57bc:	9c 21 ff fc 	l.addi r1,r1,0xfffffffc
    57c0:	d4 01 10 00 	l.sw 0x0(r1),r2
    57c4:	9c 41 00 04 	l.addi r2,r1,0x4
    57c8:	19 60 00 00 	l.movhi r11,0x0
    57cc:	a9 6b e0 58 	l.ori r11,r11,0xe058
    57d0:	84 41 00 00 	l.lwz r2,0x0(r1)
    57d4:	44 00 48 00 	l.jr r9
    57d8:	9c 21 00 04 	l.addi r1,r1,0x4

000057dc <_setlocale>:
    57dc:	9c 21 ff f8 	l.addi r1,r1,0xfffffff8
    57e0:	d4 01 10 04 	l.sw 0x4(r1),r2
    57e4:	9c 41 00 08 	l.addi r2,r1,0x8
    57e8:	d4 01 48 00 	l.sw 0x0(r1),r9
    57ec:	a8 c3 00 00 	l.ori r6,r3,0x0
    57f0:	a8 a4 00 00 	l.ori r5,r4,0x0
    57f4:	18 60 00 00 	l.movhi r3,0x0
    57f8:	a8 63 e6 bc 	l.ori r3,r3,0xe6bc
    57fc:	a8 86 00 00 	l.ori r4,r6,0x0
    5800:	07 ff ff bd 	l.jal 56f4 <__setlocale_r>
    5804:	84 63 00 00 	l.lwz r3,0x0(r3)
    5808:	85 21 00 00 	l.lwz r9,0x0(r1)
    580c:	84 41 00 04 	l.lwz r2,0x4(r1)
    5810:	44 00 48 00 	l.jr r9
    5814:	9c 21 00 08 	l.addi r1,r1,0x8

00005818 <_localeconv>:
    5818:	9c 21 ff f8 	l.addi r1,r1,0xfffffff8
    581c:	d4 01 10 04 	l.sw 0x4(r1),r2
    5820:	9c 41 00 08 	l.addi r2,r1,0x8
    5824:	d4 01 48 00 	l.sw 0x0(r1),r9
    5828:	18 60 00 00 	l.movhi r3,0x0
    582c:	a8 63 e6 bc 	l.ori r3,r3,0xe6bc
    5830:	07 ff ff e3 	l.jal 57bc <__localeconv_r>
    5834:	84 63 00 00 	l.lwz r3,0x0(r3)
    5838:	85 21 00 00 	l.lwz r9,0x0(r1)
    583c:	84 41 00 04 	l.lwz r2,0x4(r1)
    5840:	44 00 48 00 	l.jr r9
    5844:	9c 21 00 08 	l.addi r1,r1,0x8

00005848 <___swsetup>:
    5848:	9c 21 ff f0 	l.addi r1,r1,0xfffffff0
    584c:	d4 01 10 04 	l.sw 0x4(r1),r2
    5850:	9c 41 00 10 	l.addi r2,r1,0x10
    5854:	d4 01 48 00 	l.sw 0x0(r1),r9
    5858:	d4 01 50 08 	l.sw 0x8(r1),r10
    585c:	d4 01 60 0c 	l.sw 0xc(r1),r12
    5860:	19 80 00 00 	l.movhi r12,0x0
    5864:	a9 8c e6 bc 	l.ori r12,r12,0xe6bc
    5868:	a9 43 00 00 	l.ori r10,r3,0x0
    586c:	84 6c 00 00 	l.lwz r3,0x0(r12)
    5870:	bc 03 00 00 	l.sfeqi r3,0x0
    5874:	10 00 00 06 	l.bf 588c <___swsetup+0x44>
    5878:	15 00 00 00 	l.nop 0x0
    587c:	84 83 00 38 	l.lwz r4,0x38(r3)
    5880:	bc 24 00 00 	l.sfnei r4,0x0
    5884:	0c 00 00 43 	l.bnf 5990 <___swsetup+0x148>
    5888:	15 00 00 00 	l.nop 0x0
    588c:	94 aa 00 0c 	l.lhz r5,0xc(r10)
    5890:	a4 85 ff ff 	l.andi r4,r5,0xffff
    5894:	b8 64 00 43 	l.srli r3,r4,0x3
    5898:	ac 63 00 01 	l.xori r3,r3,0x1
    589c:	a4 63 00 01 	l.andi r3,r3,0x1
    58a0:	bc 03 00 00 	l.sfeqi r3,0x0
    58a4:	10 00 00 1e 	l.bf 591c <___swsetup+0xd4>
    58a8:	b8 64 00 44 	l.srli r3,r4,0x4
    58ac:	ac 63 00 01 	l.xori r3,r3,0x1
    58b0:	a4 63 00 01 	l.andi r3,r3,0x1
    58b4:	bc 03 00 00 	l.sfeqi r3,0x0
    58b8:	0c 00 00 3a 	l.bnf 59a0 <___swsetup+0x158>
    58bc:	b8 64 00 42 	l.srli r3,r4,0x2
    58c0:	a4 63 00 01 	l.andi r3,r3,0x1
    58c4:	bc 03 00 00 	l.sfeqi r3,0x0
    58c8:	10 00 00 14 	l.bf 5918 <___swsetup+0xd0>
    58cc:	a8 65 00 08 	l.ori r3,r5,0x8
    58d0:	84 8a 00 30 	l.lwz r4,0x30(r10)
    58d4:	bc 04 00 00 	l.sfeqi r4,0x0
    58d8:	10 00 00 07 	l.bf 58f4 <___swsetup+0xac>
    58dc:	9c 6a 00 40 	l.addi r3,r10,0x40
    58e0:	e4 04 18 00 	l.sfeq r4,r3
    58e4:	0c 00 00 31 	l.bnf 59a8 <___swsetup+0x160>
    58e8:	15 00 00 00 	l.nop 0x0
    58ec:	9c 60 00 00 	l.addi r3,r0,0x0
    58f0:	d4 0a 18 30 	l.sw 0x30(r10),r3
    58f4:	9c 80 ff db 	l.addi r4,r0,0xffffffdb
    58f8:	e0 65 20 03 	l.and r3,r5,r4
    58fc:	9c 80 00 00 	l.addi r4,r0,0x0
    5900:	dc 0a 18 0c 	l.sh 0xc(r10),r3
    5904:	a8 a3 00 00 	l.ori r5,r3,0x0
    5908:	d4 0a 20 04 	l.sw 0x4(r10),r4
    590c:	84 8a 00 10 	l.lwz r4,0x10(r10)
    5910:	d4 0a 20 00 	l.sw 0x0(r10),r4
    5914:	a8 65 00 08 	l.ori r3,r5,0x8
    5918:	dc 0a 18 0c 	l.sh 0xc(r10),r3
    591c:	84 6a 00 10 	l.lwz r3,0x10(r10)
    5920:	bc 23 00 00 	l.sfnei r3,0x0
    5924:	0c 00 00 15 	l.bnf 5978 <___swsetup+0x130>
    5928:	15 00 00 00 	l.nop 0x0
    592c:	94 8a 00 0c 	l.lhz r4,0xc(r10)
    5930:	a4 64 00 01 	l.andi r3,r4,0x1
    5934:	bc 03 00 00 	l.sfeqi r3,0x0
    5938:	0c 00 00 0a 	l.bnf 5960 <___swsetup+0x118>
    593c:	b8 64 00 41 	l.srli r3,r4,0x1
    5940:	a4 63 00 01 	l.andi r3,r3,0x1
    5944:	bc 23 00 00 	l.sfnei r3,0x0
    5948:	10 00 00 10 	l.bf 5988 <___swsetup+0x140>
    594c:	9c 60 00 00 	l.addi r3,r0,0x0
    5950:	84 6a 00 14 	l.lwz r3,0x14(r10)
    5954:	d4 0a 18 08 	l.sw 0x8(r10),r3
    5958:	00 00 00 18 	l.j 59b8 <___swsetup+0x170>
    595c:	9d 60 00 00 	l.addi r11,r0,0x0
    5960:	84 6a 00 14 	l.lwz r3,0x14(r10)
    5964:	9c 80 00 00 	l.addi r4,r0,0x0
    5968:	e0 60 18 02 	l.sub r3,r0,r3
    596c:	d4 0a 20 08 	l.sw 0x8(r10),r4
    5970:	03 ff ff fa 	l.j 5958 <___swsetup+0x110>
    5974:	d4 0a 18 18 	l.sw 0x18(r10),r3
    5978:	04 00 0b 59 	l.jal 86dc <___smakebuf>
    597c:	a8 6a 00 00 	l.ori r3,r10,0x0
    5980:	03 ff ff ec 	l.j 5930 <___swsetup+0xe8>
    5984:	94 8a 00 0c 	l.lhz r4,0xc(r10)
    5988:	03 ff ff f4 	l.j 5958 <___swsetup+0x110>
    598c:	d4 0a 18 08 	l.sw 0x8(r10),r3
    5990:	04 00 00 53 	l.jal 5adc <___sinit>
    5994:	15 00 00 00 	l.nop 0x0
    5998:	03 ff ff be 	l.j 5890 <___swsetup+0x48>
    599c:	94 aa 00 0c 	l.lhz r5,0xc(r10)
    59a0:	00 00 00 06 	l.j 59b8 <___swsetup+0x170>
    59a4:	9d 60 ff ff 	l.addi r11,r0,0xffffffff
    59a8:	07 ff f5 4c 	l.jal 2ed8 <__free_r>
    59ac:	84 6c 00 00 	l.lwz r3,0x0(r12)
    59b0:	03 ff ff cf 	l.j 58ec <___swsetup+0xa4>
    59b4:	94 aa 00 0c 	l.lhz r5,0xc(r10)
    59b8:	85 21 00 00 	l.lwz r9,0x0(r1)
    59bc:	84 41 00 04 	l.lwz r2,0x4(r1)
    59c0:	85 41 00 08 	l.lwz r10,0x8(r1)
    59c4:	85 81 00 0c 	l.lwz r12,0xc(r1)
    59c8:	44 00 48 00 	l.jr r9
    59cc:	9c 21 00 10 	l.addi r1,r1,0x10

000059d0 <_std>:
    59d0:	9c 21 ff fc 	l.addi r1,r1,0xfffffffc
    59d4:	d4 01 10 00 	l.sw 0x0(r1),r2
    59d8:	9c 41 00 04 	l.addi r2,r1,0x4
    59dc:	dc 03 20 0c 	l.sh 0xc(r3),r4
    59e0:	18 80 00 00 	l.movhi r4,0x0
    59e4:	a8 84 8a 1c 	l.ori r4,r4,0x8a1c
    59e8:	dc 03 28 0e 	l.sh 0xe(r3),r5
    59ec:	d4 03 20 2c 	l.sw 0x2c(r3),r4
    59f0:	d4 03 18 1c 	l.sw 0x1c(r3),r3
    59f4:	9c 80 00 00 	l.addi r4,r0,0x0
    59f8:	d4 03 20 00 	l.sw 0x0(r3),r4
    59fc:	d4 03 20 04 	l.sw 0x4(r3),r4
    5a00:	d4 03 20 08 	l.sw 0x8(r3),r4
    5a04:	d4 03 20 10 	l.sw 0x10(r3),r4
    5a08:	d4 03 20 14 	l.sw 0x14(r3),r4
    5a0c:	d4 03 20 18 	l.sw 0x18(r3),r4
    5a10:	18 80 00 00 	l.movhi r4,0x0
    5a14:	a8 84 88 88 	l.ori r4,r4,0x8888
    5a18:	d4 03 20 20 	l.sw 0x20(r3),r4
    5a1c:	18 80 00 00 	l.movhi r4,0x0
    5a20:	a8 84 88 fc 	l.ori r4,r4,0x88fc
    5a24:	d4 03 20 24 	l.sw 0x24(r3),r4
    5a28:	18 80 00 00 	l.movhi r4,0x0
    5a2c:	a8 84 89 ac 	l.ori r4,r4,0x89ac
    5a30:	d4 03 20 28 	l.sw 0x28(r3),r4
    5a34:	84 41 00 00 	l.lwz r2,0x0(r1)
    5a38:	44 00 48 00 	l.jr r9
    5a3c:	9c 21 00 04 	l.addi r1,r1,0x4

00005a40 <___sfmoreglue>:
    5a40:	9c 21 ff ec 	l.addi r1,r1,0xffffffec
    5a44:	d4 01 10 04 	l.sw 0x4(r1),r2
    5a48:	9c 41 00 14 	l.addi r2,r1,0x14
    5a4c:	d4 01 48 00 	l.sw 0x0(r1),r9
    5a50:	d4 01 50 08 	l.sw 0x8(r1),r10
    5a54:	d4 01 60 0c 	l.sw 0xc(r1),r12
    5a58:	d4 01 70 10 	l.sw 0x10(r1),r14
    5a5c:	a9 c4 00 00 	l.ori r14,r4,0x0
    5a60:	9c 80 00 5c 	l.addi r4,r0,0x5c
    5a64:	e1 8e 23 06 	l.mul r12,r14,r4
    5a68:	07 ff f2 a5 	l.jal 24fc <__malloc_r>
    5a6c:	9c 8c 00 0c 	l.addi r4,r12,0xc
    5a70:	9c 80 00 00 	l.addi r4,r0,0x0
    5a74:	9c cb 00 0c 	l.addi r6,r11,0xc
    5a78:	a9 4b 00 00 	l.ori r10,r11,0x0
    5a7c:	e4 2b 20 00 	l.sfne r11,r4
    5a80:	a8 ac 00 00 	l.ori r5,r12,0x0
    5a84:	a8 66 00 00 	l.ori r3,r6,0x0
    5a88:	0c 00 00 08 	l.bnf 5aa8 <___sfmoreglue+0x68>
    5a8c:	a9 64 00 00 	l.ori r11,r4,0x0
    5a90:	9c e0 00 00 	l.addi r7,r0,0x0
    5a94:	d4 0a 70 04 	l.sw 0x4(r10),r14
    5a98:	d4 0a 38 00 	l.sw 0x0(r10),r7
    5a9c:	04 00 00 f7 	l.jal 5e78 <_memset>
    5aa0:	d4 0a 30 08 	l.sw 0x8(r10),r6
    5aa4:	a9 6a 00 00 	l.ori r11,r10,0x0
    5aa8:	85 21 00 00 	l.lwz r9,0x0(r1)
    5aac:	84 41 00 04 	l.lwz r2,0x4(r1)
    5ab0:	85 41 00 08 	l.lwz r10,0x8(r1)
    5ab4:	85 81 00 0c 	l.lwz r12,0xc(r1)
    5ab8:	85 c1 00 10 	l.lwz r14,0x10(r1)
    5abc:	44 00 48 00 	l.jr r9
    5ac0:	9c 21 00 14 	l.addi r1,r1,0x14

00005ac4 <___sfp_lock_acquire>:
    5ac4:	9c 21 ff fc 	l.addi r1,r1,0xfffffffc
    5ac8:	d4 01 10 00 	l.sw 0x0(r1),r2
    5acc:	9c 41 00 04 	l.addi r2,r1,0x4
    5ad0:	84 41 00 00 	l.lwz r2,0x0(r1)
    5ad4:	44 00 48 00 	l.jr r9
    5ad8:	9c 21 00 04 	l.addi r1,r1,0x4

00005adc <___sinit>:
    5adc:	9c 21 ff f4 	l.addi r1,r1,0xfffffff4
    5ae0:	d4 01 10 04 	l.sw 0x4(r1),r2
    5ae4:	9c 41 00 0c 	l.addi r2,r1,0xc
    5ae8:	d4 01 48 00 	l.sw 0x0(r1),r9
    5aec:	d4 01 50 08 	l.sw 0x8(r1),r10
    5af0:	a9 43 00 00 	l.ori r10,r3,0x0
    5af4:	18 c0 00 00 	l.movhi r6,0x0
    5af8:	a8 c6 5c 94 	l.ori r6,r6,0x5c94
    5afc:	9c a3 02 ec 	l.addi r5,r3,0x2ec
    5b00:	d4 0a 30 3c 	l.sw 0x3c(r10),r6
    5b04:	d4 0a 2a e8 	l.sw 0x2e8(r10),r5
    5b08:	9c c0 00 01 	l.addi r6,r0,0x1
    5b0c:	9c a0 00 00 	l.addi r5,r0,0x0
    5b10:	d4 0a 30 38 	l.sw 0x38(r10),r6
    5b14:	84 63 00 04 	l.lwz r3,0x4(r3)
    5b18:	9c c0 00 03 	l.addi r6,r0,0x3
    5b1c:	9c 80 00 04 	l.addi r4,r0,0x4
    5b20:	d4 0a 32 e4 	l.sw 0x2e4(r10),r6
    5b24:	d4 0a 2a e0 	l.sw 0x2e0(r10),r5
    5b28:	07 ff ff aa 	l.jal 59d0 <_std>
    5b2c:	a8 ca 00 00 	l.ori r6,r10,0x0
    5b30:	84 6a 00 08 	l.lwz r3,0x8(r10)
    5b34:	9c 80 00 09 	l.addi r4,r0,0x9
    5b38:	9c a0 00 01 	l.addi r5,r0,0x1
    5b3c:	07 ff ff a5 	l.jal 59d0 <_std>
    5b40:	a8 ca 00 00 	l.ori r6,r10,0x0
    5b44:	84 6a 00 0c 	l.lwz r3,0xc(r10)
    5b48:	a8 ca 00 00 	l.ori r6,r10,0x0
    5b4c:	9c 80 00 0a 	l.addi r4,r0,0xa
    5b50:	07 ff ff a0 	l.jal 59d0 <_std>
    5b54:	9c a0 00 02 	l.addi r5,r0,0x2
    5b58:	85 21 00 00 	l.lwz r9,0x0(r1)
    5b5c:	84 41 00 04 	l.lwz r2,0x4(r1)
    5b60:	85 41 00 08 	l.lwz r10,0x8(r1)
    5b64:	44 00 48 00 	l.jr r9
    5b68:	9c 21 00 0c 	l.addi r1,r1,0xc

00005b6c <___sfp_lock_release>:
    5b6c:	9c 21 ff fc 	l.addi r1,r1,0xfffffffc
    5b70:	d4 01 10 00 	l.sw 0x0(r1),r2
    5b74:	9c 41 00 04 	l.addi r2,r1,0x4
    5b78:	84 41 00 00 	l.lwz r2,0x0(r1)
    5b7c:	44 00 48 00 	l.jr r9
    5b80:	9c 21 00 04 	l.addi r1,r1,0x4

00005b84 <___sfp>:
    5b84:	9c 21 ff f0 	l.addi r1,r1,0xfffffff0
    5b88:	d4 01 10 04 	l.sw 0x4(r1),r2
    5b8c:	9c 41 00 10 	l.addi r2,r1,0x10
    5b90:	d4 01 48 00 	l.sw 0x0(r1),r9
    5b94:	d4 01 50 08 	l.sw 0x8(r1),r10
    5b98:	d4 01 60 0c 	l.sw 0xc(r1),r12
    5b9c:	a9 83 00 00 	l.ori r12,r3,0x0
    5ba0:	18 60 00 00 	l.movhi r3,0x0
    5ba4:	a8 63 de 64 	l.ori r3,r3,0xde64
    5ba8:	85 43 00 00 	l.lwz r10,0x0(r3)
    5bac:	84 6a 00 38 	l.lwz r3,0x38(r10)
    5bb0:	bc 23 00 00 	l.sfnei r3,0x0
    5bb4:	0c 00 00 1e 	l.bnf 5c2c <___sfp+0xa8>
    5bb8:	15 00 00 00 	l.nop 0x0
    5bbc:	9d 4a 02 e0 	l.addi r10,r10,0x2e0
    5bc0:	84 8a 00 04 	l.lwz r4,0x4(r10)
    5bc4:	9c 84 ff ff 	l.addi r4,r4,0xffffffff
    5bc8:	bd 84 00 00 	l.sfltsi r4,0x0
    5bcc:	10 00 00 09 	l.bf 5bf0 <___sfp+0x6c>
    5bd0:	85 6a 00 08 	l.lwz r11,0x8(r10)
    5bd4:	98 6b 00 0c 	l.lhs r3,0xc(r11)
    5bd8:	bc 23 00 00 	l.sfnei r3,0x0
    5bdc:	0c 00 00 18 	l.bnf 5c3c <___sfp+0xb8>
    5be0:	9c 84 ff ff 	l.addi r4,r4,0xffffffff
    5be4:	bd 84 00 00 	l.sfltsi r4,0x0
    5be8:	0f ff ff fb 	l.bnf 5bd4 <___sfp+0x50>
    5bec:	9d 6b 00 5c 	l.addi r11,r11,0x5c
    5bf0:	85 6a 00 00 	l.lwz r11,0x0(r10)
    5bf4:	bc 2b 00 00 	l.sfnei r11,0x0
    5bf8:	0c 00 00 04 	l.bnf 5c08 <___sfp+0x84>
    5bfc:	a8 6c 00 00 	l.ori r3,r12,0x0
    5c00:	03 ff ff f0 	l.j 5bc0 <___sfp+0x3c>
    5c04:	a9 4b 00 00 	l.ori r10,r11,0x0
    5c08:	07 ff ff 8e 	l.jal 5a40 <___sfmoreglue>
    5c0c:	9c 80 00 04 	l.addi r4,r0,0x4
    5c10:	bc 2b 00 00 	l.sfnei r11,0x0
    5c14:	13 ff ff fb 	l.bf 5c00 <___sfp+0x7c>
    5c18:	d4 0a 58 00 	l.sw 0x0(r10),r11
    5c1c:	9c 60 00 0c 	l.addi r3,r0,0xc
    5c20:	9d 60 00 00 	l.addi r11,r0,0x0
    5c24:	00 00 00 16 	l.j 5c7c <___sfp+0xf8>
    5c28:	d4 0c 18 00 	l.sw 0x0(r12),r3
    5c2c:	07 ff ff ac 	l.jal 5adc <___sinit>
    5c30:	a8 6a 00 00 	l.ori r3,r10,0x0
    5c34:	03 ff ff e3 	l.j 5bc0 <___sfp+0x3c>
    5c38:	9d 4a 02 e0 	l.addi r10,r10,0x2e0
    5c3c:	9c 60 ff ff 	l.addi r3,r0,0xffffffff
    5c40:	dc 0b 18 0e 	l.sh 0xe(r11),r3
    5c44:	9c 60 00 00 	l.addi r3,r0,0x0
    5c48:	d4 0b 18 00 	l.sw 0x0(r11),r3
    5c4c:	d4 0b 18 08 	l.sw 0x8(r11),r3
    5c50:	9c 60 00 01 	l.addi r3,r0,0x1
    5c54:	dc 0b 18 0c 	l.sh 0xc(r11),r3
    5c58:	9c 60 00 00 	l.addi r3,r0,0x0
    5c5c:	d4 0b 18 04 	l.sw 0x4(r11),r3
    5c60:	d4 0b 18 10 	l.sw 0x10(r11),r3
    5c64:	d4 0b 18 14 	l.sw 0x14(r11),r3
    5c68:	d4 0b 18 18 	l.sw 0x18(r11),r3
    5c6c:	d4 0b 18 30 	l.sw 0x30(r11),r3
    5c70:	d4 0b 18 34 	l.sw 0x34(r11),r3
    5c74:	d4 0b 18 44 	l.sw 0x44(r11),r3
    5c78:	d4 0b 18 48 	l.sw 0x48(r11),r3
    5c7c:	85 21 00 00 	l.lwz r9,0x0(r1)
    5c80:	84 41 00 04 	l.lwz r2,0x4(r1)
    5c84:	85 41 00 08 	l.lwz r10,0x8(r1)
    5c88:	85 81 00 0c 	l.lwz r12,0xc(r1)
    5c8c:	44 00 48 00 	l.jr r9
    5c90:	9c 21 00 10 	l.addi r1,r1,0x10

00005c94 <__cleanup_r>:
    5c94:	9c 21 ff f8 	l.addi r1,r1,0xfffffff8
    5c98:	d4 01 10 04 	l.sw 0x4(r1),r2
    5c9c:	9c 41 00 08 	l.addi r2,r1,0x8
    5ca0:	d4 01 48 00 	l.sw 0x0(r1),r9
    5ca4:	18 80 00 00 	l.movhi r4,0x0
    5ca8:	a8 84 8b f8 	l.ori r4,r4,0x8bf8
    5cac:	04 00 0b e0 	l.jal 8c2c <__fwalk>
    5cb0:	15 00 00 00 	l.nop 0x0
    5cb4:	85 21 00 00 	l.lwz r9,0x0(r1)
    5cb8:	84 41 00 04 	l.lwz r2,0x4(r1)
    5cbc:	44 00 48 00 	l.jr r9
    5cc0:	9c 21 00 08 	l.addi r1,r1,0x8

00005cc4 <__cleanup>:
    5cc4:	9c 21 ff f8 	l.addi r1,r1,0xfffffff8
    5cc8:	d4 01 10 04 	l.sw 0x4(r1),r2
    5ccc:	9c 41 00 08 	l.addi r2,r1,0x8
    5cd0:	d4 01 48 00 	l.sw 0x0(r1),r9
    5cd4:	18 60 00 00 	l.movhi r3,0x0
    5cd8:	a8 63 de 64 	l.ori r3,r3,0xde64
    5cdc:	07 ff ff ee 	l.jal 5c94 <__cleanup_r>
    5ce0:	84 63 00 00 	l.lwz r3,0x0(r3)
    5ce4:	85 21 00 00 	l.lwz r9,0x0(r1)
    5ce8:	84 41 00 04 	l.lwz r2,0x4(r1)
    5cec:	44 00 48 00 	l.jr r9
    5cf0:	9c 21 00 08 	l.addi r1,r1,0x8

00005cf4 <___fp_lock>:
    5cf4:	9c 21 ff fc 	l.addi r1,r1,0xfffffffc
    5cf8:	d4 01 10 00 	l.sw 0x0(r1),r2
    5cfc:	9c 41 00 04 	l.addi r2,r1,0x4
    5d00:	9d 60 00 00 	l.addi r11,r0,0x0
    5d04:	84 41 00 00 	l.lwz r2,0x0(r1)
    5d08:	44 00 48 00 	l.jr r9
    5d0c:	9c 21 00 04 	l.addi r1,r1,0x4

00005d10 <___fp_unlock>:
    5d10:	9c 21 ff fc 	l.addi r1,r1,0xfffffffc
    5d14:	d4 01 10 00 	l.sw 0x0(r1),r2
    5d18:	9c 41 00 04 	l.addi r2,r1,0x4
    5d1c:	9d 60 00 00 	l.addi r11,r0,0x0
    5d20:	84 41 00 00 	l.lwz r2,0x0(r1)
    5d24:	44 00 48 00 	l.jr r9
    5d28:	9c 21 00 04 	l.addi r1,r1,0x4

00005d2c <___fp_lock_all>:
    5d2c:	9c 21 ff f8 	l.addi r1,r1,0xfffffff8
    5d30:	d4 01 10 04 	l.sw 0x4(r1),r2
    5d34:	9c 41 00 08 	l.addi r2,r1,0x8
    5d38:	d4 01 48 00 	l.sw 0x0(r1),r9
    5d3c:	18 60 00 00 	l.movhi r3,0x0
    5d40:	a8 63 e6 bc 	l.ori r3,r3,0xe6bc
    5d44:	18 80 00 00 	l.movhi r4,0x0
    5d48:	a8 84 5c f4 	l.ori r4,r4,0x5cf4
    5d4c:	04 00 0b b8 	l.jal 8c2c <__fwalk>
    5d50:	84 63 00 00 	l.lwz r3,0x0(r3)
    5d54:	85 21 00 00 	l.lwz r9,0x0(r1)
    5d58:	84 41 00 04 	l.lwz r2,0x4(r1)
    5d5c:	44 00 48 00 	l.jr r9
    5d60:	9c 21 00 08 	l.addi r1,r1,0x8

00005d64 <___fp_unlock_all>:
    5d64:	9c 21 ff f8 	l.addi r1,r1,0xfffffff8
    5d68:	d4 01 10 04 	l.sw 0x4(r1),r2
    5d6c:	9c 41 00 08 	l.addi r2,r1,0x8
    5d70:	d4 01 48 00 	l.sw 0x0(r1),r9
    5d74:	18 60 00 00 	l.movhi r3,0x0
    5d78:	a8 63 e6 bc 	l.ori r3,r3,0xe6bc
    5d7c:	18 80 00 00 	l.movhi r4,0x0
    5d80:	a8 84 5d 10 	l.ori r4,r4,0x5d10
    5d84:	04 00 0b aa 	l.jal 8c2c <__fwalk>
    5d88:	84 63 00 00 	l.lwz r3,0x0(r3)
    5d8c:	85 21 00 00 	l.lwz r9,0x0(r1)
    5d90:	84 41 00 04 	l.lwz r2,0x4(r1)
    5d94:	44 00 48 00 	l.jr r9
    5d98:	9c 21 00 08 	l.addi r1,r1,0x8

00005d9c <_strlen>:
    5d9c:	9c 21 ff fc 	l.addi r1,r1,0xfffffffc
    5da0:	d4 01 10 00 	l.sw 0x0(r1),r2
    5da4:	9c 41 00 04 	l.addi r2,r1,0x4
    5da8:	a4 83 00 03 	l.andi r4,r3,0x3
    5dac:	bc 24 00 00 	l.sfnei r4,0x0
    5db0:	10 00 00 16 	l.bf 5e08 <_strlen+0x6c>
    5db4:	a8 c3 00 00 	l.ori r6,r3,0x0
    5db8:	00 00 00 04 	l.j 5dc8 <_strlen+0x2c>
    5dbc:	84 83 00 00 	l.lwz r4,0x0(r3)
    5dc0:	9c 63 00 04 	l.addi r3,r3,0x4
    5dc4:	84 83 00 00 	l.lwz r4,0x0(r3)
    5dc8:	18 e0 fe fe 	l.movhi r7,0xfefe
    5dcc:	a8 e7 fe ff 	l.ori r7,r7,0xfeff
    5dd0:	ac a4 ff ff 	l.xori r5,r4,0xffffffff
    5dd4:	e0 84 38 00 	l.add r4,r4,r7
    5dd8:	e0 84 28 03 	l.and r4,r4,r5
    5ddc:	18 a0 80 80 	l.movhi r5,0x8080
    5de0:	a8 a5 80 80 	l.ori r5,r5,0x8080
    5de4:	e0 84 28 03 	l.and r4,r4,r5
    5de8:	bc 24 00 00 	l.sfnei r4,0x0
    5dec:	0f ff ff f5 	l.bnf 5dc0 <_strlen+0x24>
    5df0:	15 00 00 00 	l.nop 0x0
    5df4:	90 83 00 00 	l.lbs r4,0x0(r3)
    5df8:	bc 04 00 00 	l.sfeqi r4,0x0
    5dfc:	10 00 00 07 	l.bf 5e18 <_strlen+0x7c>
    5e00:	e1 63 30 02 	l.sub r11,r3,r6
    5e04:	9c 63 00 01 	l.addi r3,r3,0x1
    5e08:	90 83 00 00 	l.lbs r4,0x0(r3)
    5e0c:	bc 04 00 00 	l.sfeqi r4,0x0
    5e10:	0f ff ff fd 	l.bnf 5e04 <_strlen+0x68>
    5e14:	e1 63 30 02 	l.sub r11,r3,r6
    5e18:	84 41 00 00 	l.lwz r2,0x0(r1)
    5e1c:	44 00 48 00 	l.jr r9
    5e20:	9c 21 00 04 	l.addi r1,r1,0x4

00005e24 <_isinf>:
    5e24:	9c 21 ff fc 	l.addi r1,r1,0xfffffffc
    5e28:	d4 01 10 00 	l.sw 0x0(r1),r2
    5e2c:	9c 41 00 04 	l.addi r2,r1,0x4
    5e30:	18 e0 7f ff 	l.movhi r7,0x7fff
    5e34:	a8 e7 ff ff 	l.ori r7,r7,0xffff
    5e38:	e0 c0 20 02 	l.sub r6,r0,r4
    5e3c:	e0 a3 38 03 	l.and r5,r3,r7
    5e40:	9d 60 00 01 	l.addi r11,r0,0x1
    5e44:	e0 66 20 04 	l.or r3,r6,r4
    5e48:	b8 63 00 5f 	l.srli r3,r3,0x1f
    5e4c:	e0 a5 18 04 	l.or r5,r5,r3
    5e50:	18 60 7f f0 	l.movhi r3,0x7ff0
    5e54:	a8 63 00 00 	l.ori r3,r3,0x0
    5e58:	e0 a3 28 02 	l.sub r5,r3,r5
    5e5c:	e0 60 28 02 	l.sub r3,r0,r5
    5e60:	e0 63 28 04 	l.or r3,r3,r5
    5e64:	b8 63 00 5f 	l.srli r3,r3,0x1f
    5e68:	e1 6b 18 02 	l.sub r11,r11,r3
    5e6c:	84 41 00 00 	l.lwz r2,0x0(r1)
    5e70:	44 00 48 00 	l.jr r9
    5e74:	9c 21 00 04 	l.addi r1,r1,0x4

00005e78 <_memset>:
    5e78:	9c 21 ff fc 	l.addi r1,r1,0xfffffffc
    5e7c:	d4 01 10 00 	l.sw 0x0(r1),r2
    5e80:	9c 41 00 04 	l.addi r2,r1,0x4
    5e84:	a4 84 00 ff 	l.andi r4,r4,0xff
    5e88:	bc a5 00 03 	l.sfleui r5,0x3
    5e8c:	10 00 00 06 	l.bf 5ea4 <_memset+0x2c>
    5e90:	a8 c3 00 00 	l.ori r6,r3,0x0
    5e94:	a4 e3 00 03 	l.andi r7,r3,0x3
    5e98:	bc 27 00 00 	l.sfnei r7,0x0
    5e9c:	0c 00 00 0c 	l.bnf 5ecc <_memset+0x54>
    5ea0:	b8 e4 00 08 	l.slli r7,r4,0x8
    5ea4:	00 00 00 05 	l.j 5eb8 <_memset+0x40>
    5ea8:	9c a5 ff ff 	l.addi r5,r5,0xffffffff
    5eac:	d8 06 20 00 	l.sb 0x0(r6),r4
    5eb0:	9c a5 ff ff 	l.addi r5,r5,0xffffffff
    5eb4:	9c c6 00 01 	l.addi r6,r6,0x1
    5eb8:	bc 05 ff ff 	l.sfeqi r5,0xffffffff
    5ebc:	0f ff ff fc 	l.bnf 5eac <_memset+0x34>
    5ec0:	a9 63 00 00 	l.ori r11,r3,0x0
    5ec4:	00 00 00 1b 	l.j 5f30 <_memset+0xb8>
    5ec8:	15 00 00 00 	l.nop 0x0
    5ecc:	e0 e7 20 04 	l.or r7,r7,r4
    5ed0:	b9 07 00 10 	l.slli r8,r7,0x10
    5ed4:	e0 e7 40 04 	l.or r7,r7,r8
    5ed8:	bc a5 00 0f 	l.sfleui r5,0xf
    5edc:	10 00 00 10 	l.bf 5f1c <_memset+0xa4>
    5ee0:	15 00 00 00 	l.nop 0x0
    5ee4:	d4 06 38 00 	l.sw 0x0(r6),r7
    5ee8:	9c a5 ff f0 	l.addi r5,r5,0xfffffff0
    5eec:	9c c6 00 04 	l.addi r6,r6,0x4
    5ef0:	bc a5 00 0f 	l.sfleui r5,0xf
    5ef4:	d4 06 38 00 	l.sw 0x0(r6),r7
    5ef8:	9c c6 00 04 	l.addi r6,r6,0x4
    5efc:	d4 06 38 00 	l.sw 0x0(r6),r7
    5f00:	9c c6 00 04 	l.addi r6,r6,0x4
    5f04:	d4 06 38 00 	l.sw 0x0(r6),r7
    5f08:	03 ff ff f5 	l.j 5edc <_memset+0x64>
    5f0c:	9c c6 00 04 	l.addi r6,r6,0x4
    5f10:	d4 06 38 00 	l.sw 0x0(r6),r7
    5f14:	9c a5 ff fc 	l.addi r5,r5,0xfffffffc
    5f18:	9c c6 00 04 	l.addi r6,r6,0x4
    5f1c:	bc a5 00 03 	l.sfleui r5,0x3
    5f20:	0f ff ff fc 	l.bnf 5f10 <_memset+0x98>
    5f24:	15 00 00 00 	l.nop 0x0
    5f28:	03 ff ff e4 	l.j 5eb8 <_memset+0x40>
    5f2c:	9c a5 ff ff 	l.addi r5,r5,0xffffffff
    5f30:	84 41 00 00 	l.lwz r2,0x0(r1)
    5f34:	44 00 48 00 	l.jr r9
    5f38:	9c 21 00 04 	l.addi r1,r1,0x4

00005f3c <__wcrtomb_r>:
    5f3c:	9c 21 ff e4 	l.addi r1,r1,0xffffffe4
    5f40:	d4 01 10 04 	l.sw 0x4(r1),r2
    5f44:	9c 41 00 1c 	l.addi r2,r1,0x1c
    5f48:	d4 01 48 00 	l.sw 0x0(r1),r9
    5f4c:	d4 01 50 08 	l.sw 0x8(r1),r10
    5f50:	d4 01 60 0c 	l.sw 0xc(r1),r12
    5f54:	bc 24 00 00 	l.sfnei r4,0x0
    5f58:	a9 83 00 00 	l.ori r12,r3,0x0
    5f5c:	a9 46 00 00 	l.ori r10,r6,0x0
    5f60:	10 00 00 04 	l.bf 5f70 <__wcrtomb_r+0x34>
    5f64:	9d 60 00 00 	l.addi r11,r0,0x0
    5f68:	a8 ab 00 00 	l.ori r5,r11,0x0
    5f6c:	9c 82 ff f4 	l.addi r4,r2,0xfffffff4
    5f70:	04 00 0b a1 	l.jal 8df4 <__wctomb_r>
    5f74:	15 00 00 00 	l.nop 0x0
    5f78:	bc 2b ff ff 	l.sfnei r11,0xffffffff
    5f7c:	0c 00 00 04 	l.bnf 5f8c <__wcrtomb_r+0x50>
    5f80:	9c 60 ff ff 	l.addi r3,r0,0xffffffff
    5f84:	00 00 00 06 	l.j 5f9c <__wcrtomb_r+0x60>
    5f88:	a8 6b 00 00 	l.ori r3,r11,0x0
    5f8c:	9c 80 00 00 	l.addi r4,r0,0x0
    5f90:	d4 0a 20 00 	l.sw 0x0(r10),r4
    5f94:	9c 80 00 8a 	l.addi r4,r0,0x8a
    5f98:	d4 0c 20 00 	l.sw 0x0(r12),r4
    5f9c:	a9 63 00 00 	l.ori r11,r3,0x0
    5fa0:	85 21 00 00 	l.lwz r9,0x0(r1)
    5fa4:	84 41 00 04 	l.lwz r2,0x4(r1)
    5fa8:	85 41 00 08 	l.lwz r10,0x8(r1)
    5fac:	85 81 00 0c 	l.lwz r12,0xc(r1)
    5fb0:	44 00 48 00 	l.jr r9
    5fb4:	9c 21 00 1c 	l.addi r1,r1,0x1c

00005fb8 <_wcrtomb>:
    5fb8:	9c 21 ff f8 	l.addi r1,r1,0xfffffff8
    5fbc:	d4 01 10 04 	l.sw 0x4(r1),r2
    5fc0:	9c 41 00 08 	l.addi r2,r1,0x8
    5fc4:	d4 01 48 00 	l.sw 0x0(r1),r9
    5fc8:	a9 03 00 00 	l.ori r8,r3,0x0
    5fcc:	a8 e4 00 00 	l.ori r7,r4,0x0
    5fd0:	18 60 00 00 	l.movhi r3,0x0
    5fd4:	a8 63 e6 bc 	l.ori r3,r3,0xe6bc
    5fd8:	a8 c5 00 00 	l.ori r6,r5,0x0
    5fdc:	84 63 00 00 	l.lwz r3,0x0(r3)
    5fe0:	a8 88 00 00 	l.ori r4,r8,0x0
    5fe4:	07 ff ff d6 	l.jal 5f3c <__wcrtomb_r>
    5fe8:	a8 a7 00 00 	l.ori r5,r7,0x0
    5fec:	85 21 00 00 	l.lwz r9,0x0(r1)
    5ff0:	84 41 00 04 	l.lwz r2,0x4(r1)
    5ff4:	44 00 48 00 	l.jr r9
    5ff8:	9c 21 00 08 	l.addi r1,r1,0x8

00005ffc <_isnan>:
    5ffc:	9c 21 ff fc 	l.addi r1,r1,0xfffffffc
    6000:	d4 01 10 00 	l.sw 0x0(r1),r2
    6004:	9c 41 00 04 	l.addi r2,r1,0x4
    6008:	18 c0 7f ff 	l.movhi r6,0x7fff
    600c:	a8 c6 ff ff 	l.ori r6,r6,0xffff
    6010:	e0 a0 20 02 	l.sub r5,r0,r4
    6014:	e1 63 30 03 	l.and r11,r3,r6
    6018:	e0 65 20 04 	l.or r3,r5,r4
    601c:	b8 63 00 5f 	l.srli r3,r3,0x1f
    6020:	e1 6b 18 04 	l.or r11,r11,r3
    6024:	18 60 7f f0 	l.movhi r3,0x7ff0
    6028:	a8 63 00 00 	l.ori r3,r3,0x0
    602c:	e1 63 58 02 	l.sub r11,r3,r11
    6030:	b9 6b 00 5f 	l.srli r11,r11,0x1f
    6034:	84 41 00 00 	l.lwz r2,0x0(r1)
    6038:	44 00 48 00 	l.jr r9
    603c:	9c 21 00 04 	l.addi r1,r1,0x4

00006040 <__wcsrtombs_r>:
    6040:	9c 21 ff c0 	l.addi r1,r1,0xffffffc0
    6044:	d4 01 10 04 	l.sw 0x4(r1),r2
    6048:	9c 41 00 40 	l.addi r2,r1,0x40
    604c:	d4 01 48 00 	l.sw 0x0(r1),r9
    6050:	d4 01 50 08 	l.sw 0x8(r1),r10
    6054:	d4 01 60 0c 	l.sw 0xc(r1),r12
    6058:	d4 01 70 10 	l.sw 0x10(r1),r14
    605c:	d4 01 80 14 	l.sw 0x14(r1),r16
    6060:	d4 01 90 18 	l.sw 0x18(r1),r18
    6064:	d4 01 a0 1c 	l.sw 0x1c(r1),r20
    6068:	d4 01 b0 20 	l.sw 0x20(r1),r22
    606c:	d4 01 c0 24 	l.sw 0x24(r1),r24
    6070:	d4 01 d0 28 	l.sw 0x28(r1),r26
    6074:	d4 01 e0 2c 	l.sw 0x2c(r1),r28
    6078:	d4 01 f0 30 	l.sw 0x30(r1),r30
    607c:	aa c4 00 00 	l.ori r22,r4,0x0
    6080:	ab c3 00 00 	l.ori r30,r3,0x0
    6084:	a9 44 00 00 	l.ori r10,r4,0x0
    6088:	aa 85 00 00 	l.ori r20,r5,0x0
    608c:	aa 06 00 00 	l.ori r16,r6,0x0
    6090:	bc 24 00 00 	l.sfnei r4,0x0
    6094:	10 00 00 03 	l.bf 60a0 <__wcsrtombs_r+0x60>
    6098:	a9 c7 00 00 	l.ori r14,r7,0x0
    609c:	9e 00 ff ff 	l.addi r16,r0,0xffffffff
    60a0:	9e 40 00 00 	l.addi r18,r0,0x0
    60a4:	e4 b0 90 00 	l.sfleu r16,r18
    60a8:	10 00 00 30 	l.bf 6168 <__wcsrtombs_r+0x128>
    60ac:	85 94 00 00 	l.lwz r12,0x0(r20)
    60b0:	9f 42 ff f4 	l.addi r26,r2,0xfffffff4
    60b4:	87 8e 00 00 	l.lwz r28,0x0(r14)
    60b8:	a8 7e 00 00 	l.ori r3,r30,0x0
    60bc:	a8 9a 00 00 	l.ori r4,r26,0x0
    60c0:	87 0e 00 04 	l.lwz r24,0x4(r14)
    60c4:	a8 ce 00 00 	l.ori r6,r14,0x0
    60c8:	07 ff ff 9d 	l.jal 5f3c <__wcrtomb_r>
    60cc:	84 ac 00 00 	l.lwz r5,0x0(r12)
    60d0:	bc 2b ff ff 	l.sfnei r11,0xffffffff
    60d4:	0c 00 00 27 	l.bnf 6170 <__wcsrtombs_r+0x130>
    60d8:	e0 70 58 02 	l.sub r3,r16,r11
    60dc:	e4 83 90 00 	l.sfltu r3,r18
    60e0:	10 00 00 03 	l.bf 60ec <__wcsrtombs_r+0xac>
    60e4:	9c 80 00 00 	l.addi r4,r0,0x0
    60e8:	9c 80 00 01 	l.addi r4,r0,0x1
    60ec:	e4 6b 80 00 	l.sfgeu r11,r16
    60f0:	10 00 00 03 	l.bf 60fc <__wcsrtombs_r+0xbc>
    60f4:	9c 60 00 00 	l.addi r3,r0,0x0
    60f8:	9c 60 00 01 	l.addi r3,r0,0x1
    60fc:	e0 64 18 03 	l.and r3,r4,r3
    6100:	bc 03 00 00 	l.sfeqi r3,0x0
    6104:	10 00 00 21 	l.bf 6188 <__wcsrtombs_r+0x148>
    6108:	bc 16 00 00 	l.sfeqi r22,0x0
    610c:	10 00 00 10 	l.bf 614c <__wcsrtombs_r+0x10c>
    6110:	e2 52 58 00 	l.add r18,r18,r11
    6114:	9c 80 00 00 	l.addi r4,r0,0x0
    6118:	e5 ab 20 00 	l.sfles r11,r4
    611c:	10 00 00 09 	l.bf 6140 <__wcsrtombs_r+0x100>
    6120:	15 00 00 00 	l.nop 0x0
    6124:	e0 7a 20 00 	l.add r3,r26,r4
    6128:	8c 63 00 00 	l.lbz r3,0x0(r3)
    612c:	9c 84 00 01 	l.addi r4,r4,0x1
    6130:	d8 0a 18 00 	l.sb 0x0(r10),r3
    6134:	e5 64 58 00 	l.sfges r4,r11
    6138:	0f ff ff fb 	l.bnf 6124 <__wcsrtombs_r+0xe4>
    613c:	9d 4a 00 01 	l.addi r10,r10,0x1
    6140:	84 74 00 00 	l.lwz r3,0x0(r20)
    6144:	9c 63 00 04 	l.addi r3,r3,0x4
    6148:	d4 14 18 00 	l.sw 0x0(r20),r3
    614c:	84 6c 00 00 	l.lwz r3,0x0(r12)
    6150:	bc 23 00 00 	l.sfnei r3,0x0
    6154:	0c 00 00 10 	l.bnf 6194 <__wcsrtombs_r+0x154>
    6158:	9d 8c 00 04 	l.addi r12,r12,0x4
    615c:	e4 72 80 00 	l.sfgeu r18,r16
    6160:	0f ff ff d5 	l.bnf 60b4 <__wcsrtombs_r+0x74>
    6164:	15 00 00 00 	l.nop 0x0
    6168:	00 00 00 12 	l.j 61b0 <__wcsrtombs_r+0x170>
    616c:	a9 72 00 00 	l.ori r11,r18,0x0
    6170:	9c 60 00 8a 	l.addi r3,r0,0x8a
    6174:	9d 60 ff ff 	l.addi r11,r0,0xffffffff
    6178:	d4 1e 18 00 	l.sw 0x0(r30),r3
    617c:	9c 60 00 00 	l.addi r3,r0,0x0
    6180:	00 00 00 0c 	l.j 61b0 <__wcsrtombs_r+0x170>
    6184:	d4 0e 18 00 	l.sw 0x0(r14),r3
    6188:	d4 0e c0 04 	l.sw 0x4(r14),r24
    618c:	03 ff ff f7 	l.j 6168 <__wcsrtombs_r+0x128>
    6190:	d4 0e e0 00 	l.sw 0x0(r14),r28
    6194:	bc 16 00 00 	l.sfeqi r22,0x0
    6198:	10 00 00 04 	l.bf 61a8 <__wcsrtombs_r+0x168>
    619c:	9c 60 00 00 	l.addi r3,r0,0x0
    61a0:	d4 14 18 00 	l.sw 0x0(r20),r3
    61a4:	9c 60 00 00 	l.addi r3,r0,0x0
    61a8:	9d 72 ff ff 	l.addi r11,r18,0xffffffff
    61ac:	d4 0e 18 00 	l.sw 0x0(r14),r3
    61b0:	85 21 00 00 	l.lwz r9,0x0(r1)
    61b4:	84 41 00 04 	l.lwz r2,0x4(r1)
    61b8:	85 41 00 08 	l.lwz r10,0x8(r1)
    61bc:	85 81 00 0c 	l.lwz r12,0xc(r1)
    61c0:	85 c1 00 10 	l.lwz r14,0x10(r1)
    61c4:	86 01 00 14 	l.lwz r16,0x14(r1)
    61c8:	86 41 00 18 	l.lwz r18,0x18(r1)
    61cc:	86 81 00 1c 	l.lwz r20,0x1c(r1)
    61d0:	86 c1 00 20 	l.lwz r22,0x20(r1)
    61d4:	87 01 00 24 	l.lwz r24,0x24(r1)
    61d8:	87 41 00 28 	l.lwz r26,0x28(r1)
    61dc:	87 81 00 2c 	l.lwz r28,0x2c(r1)
    61e0:	87 c1 00 30 	l.lwz r30,0x30(r1)
    61e4:	44 00 48 00 	l.jr r9
    61e8:	9c 21 00 40 	l.addi r1,r1,0x40

000061ec <_wcsrtombs>:
    61ec:	9c 21 ff f8 	l.addi r1,r1,0xfffffff8
    61f0:	d4 01 10 04 	l.sw 0x4(r1),r2
    61f4:	9c 41 00 08 	l.addi r2,r1,0x8
    61f8:	d4 01 48 00 	l.sw 0x0(r1),r9
    61fc:	a9 63 00 00 	l.ori r11,r3,0x0
    6200:	a9 04 00 00 	l.ori r8,r4,0x0
    6204:	18 60 00 00 	l.movhi r3,0x0
    6208:	a8 63 e6 bc 	l.ori r3,r3,0xe6bc
    620c:	a9 25 00 00 	l.ori r9,r5,0x0
    6210:	a8 e6 00 00 	l.ori r7,r6,0x0
    6214:	84 63 00 00 	l.lwz r3,0x0(r3)
    6218:	a8 8b 00 00 	l.ori r4,r11,0x0
    621c:	a8 c9 00 00 	l.ori r6,r9,0x0
    6220:	07 ff ff 88 	l.jal 6040 <__wcsrtombs_r>
    6224:	a8 a8 00 00 	l.ori r5,r8,0x0
    6228:	85 21 00 00 	l.lwz r9,0x0(r1)
    622c:	84 41 00 04 	l.lwz r2,0x4(r1)
    6230:	44 00 48 00 	l.jr r9
    6234:	9c 21 00 08 	l.addi r1,r1,0x8

00006238 <_memchr>:
    6238:	9c 21 ff f8 	l.addi r1,r1,0xfffffff8
    623c:	d4 01 10 04 	l.sw 0x4(r1),r2
    6240:	9c 41 00 08 	l.addi r2,r1,0x8
    6244:	d4 01 48 00 	l.sw 0x0(r1),r9
    6248:	bc a5 00 03 	l.sfleui r5,0x3
    624c:	10 00 00 06 	l.bf 6264 <_memchr+0x2c>
    6250:	a4 84 00 ff 	l.andi r4,r4,0xff
    6254:	a4 c3 00 03 	l.andi r6,r3,0x3
    6258:	bc 26 00 00 	l.sfnei r6,0x0
    625c:	0c 00 00 0e 	l.bnf 6294 <_memchr+0x5c>
    6260:	9d 00 00 00 	l.addi r8,r0,0x0
    6264:	00 00 00 07 	l.j 6280 <_memchr+0x48>
    6268:	9c a5 ff ff 	l.addi r5,r5,0xffffffff
    626c:	8c c3 00 00 	l.lbz r6,0x0(r3)
    6270:	e4 26 20 00 	l.sfne r6,r4
    6274:	0c 00 00 2d 	l.bnf 6328 <_memchr+0xf0>
    6278:	9c a5 ff ff 	l.addi r5,r5,0xffffffff
    627c:	9c 63 00 01 	l.addi r3,r3,0x1
    6280:	bc 05 ff ff 	l.sfeqi r5,0xffffffff
    6284:	0f ff ff fa 	l.bnf 626c <_memchr+0x34>
    6288:	15 00 00 00 	l.nop 0x0
    628c:	00 00 00 27 	l.j 6328 <_memchr+0xf0>
    6290:	9c 60 00 00 	l.addi r3,r0,0x0
    6294:	a9 23 00 00 	l.ori r9,r3,0x0
    6298:	a8 c8 00 00 	l.ori r6,r8,0x0
    629c:	b8 68 00 08 	l.slli r3,r8,0x8
    62a0:	9c c6 00 01 	l.addi r6,r6,0x1
    62a4:	bc 46 00 03 	l.sfgtui r6,0x3
    62a8:	0f ff ff fd 	l.bnf 629c <_memchr+0x64>
    62ac:	e1 03 20 00 	l.add r8,r3,r4
    62b0:	bc a5 00 03 	l.sfleui r5,0x3
    62b4:	13 ff ff ec 	l.bf 6264 <_memchr+0x2c>
    62b8:	a8 69 00 00 	l.ori r3,r9,0x0
    62bc:	84 69 00 00 	l.lwz r3,0x0(r9)
    62c0:	18 e0 fe fe 	l.movhi r7,0xfefe
    62c4:	a8 e7 fe ff 	l.ori r7,r7,0xfeff
    62c8:	e0 63 40 05 	l.xor r3,r3,r8
    62cc:	ac c3 ff ff 	l.xori r6,r3,0xffffffff
    62d0:	e0 63 38 00 	l.add r3,r3,r7
    62d4:	e0 63 30 03 	l.and r3,r3,r6
    62d8:	18 c0 80 80 	l.movhi r6,0x8080
    62dc:	a8 c6 80 80 	l.ori r6,r6,0x8080
    62e0:	e0 63 30 03 	l.and r3,r3,r6
    62e4:	bc 03 00 00 	l.sfeqi r3,0x0
    62e8:	10 00 00 0a 	l.bf 6310 <_memchr+0xd8>
    62ec:	a8 69 00 00 	l.ori r3,r9,0x0
    62f0:	9c e0 00 00 	l.addi r7,r0,0x0
    62f4:	8c c3 00 00 	l.lbz r6,0x0(r3)
    62f8:	e4 26 20 00 	l.sfne r6,r4
    62fc:	0c 00 00 0b 	l.bnf 6328 <_memchr+0xf0>
    6300:	9c e7 00 01 	l.addi r7,r7,0x1
    6304:	bc 47 00 03 	l.sfgtui r7,0x3
    6308:	0f ff ff fb 	l.bnf 62f4 <_memchr+0xbc>
    630c:	9c 63 00 01 	l.addi r3,r3,0x1
    6310:	9c a5 ff fc 	l.addi r5,r5,0xfffffffc
    6314:	bc a5 00 03 	l.sfleui r5,0x3
    6318:	0f ff ff e9 	l.bnf 62bc <_memchr+0x84>
    631c:	9d 29 00 04 	l.addi r9,r9,0x4
    6320:	03 ff ff d1 	l.j 6264 <_memchr+0x2c>
    6324:	a8 69 00 00 	l.ori r3,r9,0x0
    6328:	a9 63 00 00 	l.ori r11,r3,0x0
    632c:	85 21 00 00 	l.lwz r9,0x0(r1)
    6330:	84 41 00 04 	l.lwz r2,0x4(r1)
    6334:	44 00 48 00 	l.jr r9
    6338:	9c 21 00 08 	l.addi r1,r1,0x8

0000633c <_quorem>:
    633c:	9c 21 ff cc 	l.addi r1,r1,0xffffffcc
    6340:	d4 01 10 04 	l.sw 0x4(r1),r2
    6344:	9c 41 00 34 	l.addi r2,r1,0x34
    6348:	d4 01 48 00 	l.sw 0x0(r1),r9
    634c:	d4 01 50 08 	l.sw 0x8(r1),r10
    6350:	d4 01 60 0c 	l.sw 0xc(r1),r12
    6354:	d4 01 70 10 	l.sw 0x10(r1),r14
    6358:	d4 01 80 14 	l.sw 0x14(r1),r16
    635c:	d4 01 90 18 	l.sw 0x18(r1),r18
    6360:	d4 01 a0 1c 	l.sw 0x1c(r1),r20
    6364:	d4 01 b0 20 	l.sw 0x20(r1),r22
    6368:	d4 01 c0 24 	l.sw 0x24(r1),r24
    636c:	d4 01 d0 28 	l.sw 0x28(r1),r26
    6370:	d4 01 e0 2c 	l.sw 0x2c(r1),r28
    6374:	d4 01 f0 30 	l.sw 0x30(r1),r30
    6378:	ab 43 00 00 	l.ori r26,r3,0x0
    637c:	86 04 00 10 	l.lwz r16,0x10(r4)
    6380:	84 63 00 10 	l.lwz r3,0x10(r3)
    6384:	e5 63 80 00 	l.sfges r3,r16
    6388:	10 00 00 04 	l.bf 6398 <_quorem+0x5c>
    638c:	aa c4 00 00 	l.ori r22,r4,0x0
    6390:	00 00 00 77 	l.j 656c <_quorem+0x230>
    6394:	9d 60 00 00 	l.addi r11,r0,0x0
    6398:	9e 10 ff ff 	l.addi r16,r16,0xffffffff
    639c:	9d 84 00 14 	l.addi r12,r4,0x14
    63a0:	b8 70 00 02 	l.slli r3,r16,0x2
    63a4:	9f 1a 00 14 	l.addi r24,r26,0x14
    63a8:	ab cc 00 00 	l.ori r30,r12,0x0
    63ac:	e1 c3 c0 00 	l.add r14,r3,r24
    63b0:	e2 83 60 00 	l.add r20,r3,r12
    63b4:	87 8e 00 00 	l.lwz r28,0x0(r14)
    63b8:	a9 58 00 00 	l.ori r10,r24,0x0
    63bc:	84 94 00 00 	l.lwz r4,0x0(r20)
    63c0:	a8 7c 00 00 	l.ori r3,r28,0x0
    63c4:	04 00 11 c7 	l.jal aae0 <___udivsi3>
    63c8:	9c 84 00 01 	l.addi r4,r4,0x1
    63cc:	bc 0b 00 00 	l.sfeqi r11,0x0
    63d0:	0c 00 00 3a 	l.bnf 64b8 <_quorem+0x17c>
    63d4:	aa 4b 00 00 	l.ori r18,r11,0x0
    63d8:	a8 96 00 00 	l.ori r4,r22,0x0
    63dc:	04 00 0e 70 	l.jal 9d9c <___mcmp>
    63e0:	a8 7a 00 00 	l.ori r3,r26,0x0
    63e4:	bd 8b 00 00 	l.sfltsi r11,0x0
    63e8:	10 00 00 61 	l.bf 656c <_quorem+0x230>
    63ec:	a9 72 00 00 	l.ori r11,r18,0x0
    63f0:	9d 00 00 00 	l.addi r8,r0,0x0
    63f4:	9e 52 00 01 	l.addi r18,r18,0x1
    63f8:	a9 9e 00 00 	l.ori r12,r30,0x0
    63fc:	a9 68 00 00 	l.ori r11,r8,0x0
    6400:	a9 58 00 00 	l.ori r10,r24,0x0
    6404:	84 8c 00 00 	l.lwz r4,0x0(r12)
    6408:	a4 64 ff ff 	l.andi r3,r4,0xffff
    640c:	b8 c4 00 50 	l.srli r6,r4,0x10
    6410:	e0 63 58 00 	l.add r3,r3,r11
    6414:	84 ea 00 00 	l.lwz r7,0x0(r10)
    6418:	b8 83 00 50 	l.srli r4,r3,0x10
    641c:	a4 a3 ff ff 	l.andi r5,r3,0xffff
    6420:	9d 8c 00 04 	l.addi r12,r12,0x4
    6424:	a4 67 ff ff 	l.andi r3,r7,0xffff
    6428:	e0 86 20 00 	l.add r4,r6,r4
    642c:	e0 63 28 02 	l.sub r3,r3,r5
    6430:	b8 e7 00 50 	l.srli r7,r7,0x10
    6434:	e0 63 40 00 	l.add r3,r3,r8
    6438:	a4 a4 ff ff 	l.andi r5,r4,0xffff
    643c:	b9 03 00 90 	l.srai r8,r3,0x10
    6440:	dc 0a 18 02 	l.sh 0x2(r10),r3
    6444:	e0 a7 28 02 	l.sub r5,r7,r5
    6448:	b9 64 00 50 	l.srli r11,r4,0x10
    644c:	e0 65 40 00 	l.add r3,r5,r8
    6450:	e4 4c a0 00 	l.sfgtu r12,r20
    6454:	dc 0a 18 00 	l.sh 0x0(r10),r3
    6458:	b9 03 00 90 	l.srai r8,r3,0x10
    645c:	0f ff ff ea 	l.bnf 6404 <_quorem+0xc8>
    6460:	9d 4a 00 04 	l.addi r10,r10,0x4
    6464:	b8 70 00 02 	l.slli r3,r16,0x2
    6468:	e1 c3 c0 00 	l.add r14,r3,r24
    646c:	84 6e 00 00 	l.lwz r3,0x0(r14)
    6470:	bc 23 00 00 	l.sfnei r3,0x0
    6474:	10 00 00 0f 	l.bf 64b0 <_quorem+0x174>
    6478:	15 00 00 00 	l.nop 0x0
    647c:	9d ce ff fc 	l.addi r14,r14,0xfffffffc
    6480:	e4 ae c0 00 	l.sfleu r14,r24
    6484:	10 00 00 0a 	l.bf 64ac <_quorem+0x170>
    6488:	15 00 00 00 	l.nop 0x0
    648c:	84 6e 00 00 	l.lwz r3,0x0(r14)
    6490:	bc 23 00 00 	l.sfnei r3,0x0
    6494:	10 00 00 06 	l.bf 64ac <_quorem+0x170>
    6498:	15 00 00 00 	l.nop 0x0
    649c:	9d ce ff fc 	l.addi r14,r14,0xfffffffc
    64a0:	e4 ae c0 00 	l.sfleu r14,r24
    64a4:	0f ff ff fa 	l.bnf 648c <_quorem+0x150>
    64a8:	9e 10 ff ff 	l.addi r16,r16,0xffffffff
    64ac:	d4 1a 80 10 	l.sw 0x10(r26),r16
    64b0:	00 00 00 2f 	l.j 656c <_quorem+0x230>
    64b4:	a9 72 00 00 	l.ori r11,r18,0x0
    64b8:	9d 00 00 00 	l.addi r8,r0,0x0
    64bc:	a9 68 00 00 	l.ori r11,r8,0x0
    64c0:	84 8c 00 00 	l.lwz r4,0x0(r12)
    64c4:	b8 a4 00 50 	l.srli r5,r4,0x10
    64c8:	a4 64 ff ff 	l.andi r3,r4,0xffff
    64cc:	9d 8c 00 04 	l.addi r12,r12,0x4
    64d0:	e0 83 93 06 	l.mul r4,r3,r18
    64d4:	e4 4c a0 00 	l.sfgtu r12,r20
    64d8:	e0 e5 93 06 	l.mul r7,r5,r18
    64dc:	84 6a 00 00 	l.lwz r3,0x0(r10)
    64e0:	b9 23 00 50 	l.srli r9,r3,0x10
    64e4:	a4 c3 ff ff 	l.andi r6,r3,0xffff
    64e8:	e0 64 58 00 	l.add r3,r4,r11
    64ec:	a4 83 ff ff 	l.andi r4,r3,0xffff
    64f0:	b8 a3 00 50 	l.srli r5,r3,0x10
    64f4:	e0 66 20 02 	l.sub r3,r6,r4
    64f8:	e0 63 40 00 	l.add r3,r3,r8
    64fc:	e0 87 28 00 	l.add r4,r7,r5
    6500:	b9 03 00 90 	l.srai r8,r3,0x10
    6504:	dc 0a 18 02 	l.sh 0x2(r10),r3
    6508:	b9 64 00 50 	l.srli r11,r4,0x10
    650c:	a4 64 ff ff 	l.andi r3,r4,0xffff
    6510:	e0 69 18 02 	l.sub r3,r9,r3
    6514:	e0 63 40 00 	l.add r3,r3,r8
    6518:	dc 0a 18 00 	l.sh 0x0(r10),r3
    651c:	b9 03 00 90 	l.srai r8,r3,0x10
    6520:	0f ff ff e8 	l.bnf 64c0 <_quorem+0x184>
    6524:	9d 4a 00 04 	l.addi r10,r10,0x4
    6528:	bc 3c 00 00 	l.sfnei r28,0x0
    652c:	13 ff ff ab 	l.bf 63d8 <_quorem+0x9c>
    6530:	15 00 00 00 	l.nop 0x0
    6534:	9d ce ff fc 	l.addi r14,r14,0xfffffffc
    6538:	e4 ae c0 00 	l.sfleu r14,r24
    653c:	10 00 00 0a 	l.bf 6564 <_quorem+0x228>
    6540:	15 00 00 00 	l.nop 0x0
    6544:	84 6e 00 00 	l.lwz r3,0x0(r14)
    6548:	bc 23 00 00 	l.sfnei r3,0x0
    654c:	10 00 00 06 	l.bf 6564 <_quorem+0x228>
    6550:	15 00 00 00 	l.nop 0x0
    6554:	9d ce ff fc 	l.addi r14,r14,0xfffffffc
    6558:	e4 ae c0 00 	l.sfleu r14,r24
    655c:	0f ff ff fa 	l.bnf 6544 <_quorem+0x208>
    6560:	9e 10 ff ff 	l.addi r16,r16,0xffffffff
    6564:	03 ff ff 9d 	l.j 63d8 <_quorem+0x9c>
    6568:	d4 1a 80 10 	l.sw 0x10(r26),r16
    656c:	85 21 00 00 	l.lwz r9,0x0(r1)
    6570:	84 41 00 04 	l.lwz r2,0x4(r1)
    6574:	85 41 00 08 	l.lwz r10,0x8(r1)
    6578:	85 81 00 0c 	l.lwz r12,0xc(r1)
    657c:	85 c1 00 10 	l.lwz r14,0x10(r1)
    6580:	86 01 00 14 	l.lwz r16,0x14(r1)
    6584:	86 41 00 18 	l.lwz r18,0x18(r1)
    6588:	86 81 00 1c 	l.lwz r20,0x1c(r1)
    658c:	86 c1 00 20 	l.lwz r22,0x20(r1)
    6590:	87 01 00 24 	l.lwz r24,0x24(r1)
    6594:	87 41 00 28 	l.lwz r26,0x28(r1)
    6598:	87 81 00 2c 	l.lwz r28,0x2c(r1)
    659c:	87 c1 00 30 	l.lwz r30,0x30(r1)
    65a0:	44 00 48 00 	l.jr r9
    65a4:	9c 21 00 34 	l.addi r1,r1,0x34

000065a8 <__dtoa_r>:
    65a8:	9c 21 ff 0c 	l.addi r1,r1,0xffffff0c
    65ac:	d4 01 10 04 	l.sw 0x4(r1),r2
    65b0:	9c 41 00 f4 	l.addi r2,r1,0xf4
    65b4:	d4 01 48 00 	l.sw 0x0(r1),r9
    65b8:	d4 01 50 08 	l.sw 0x8(r1),r10
    65bc:	d4 01 60 0c 	l.sw 0xc(r1),r12
    65c0:	d4 01 70 10 	l.sw 0x10(r1),r14
    65c4:	d4 01 80 14 	l.sw 0x14(r1),r16
    65c8:	d4 01 90 18 	l.sw 0x18(r1),r18
    65cc:	d4 01 a0 1c 	l.sw 0x1c(r1),r20
    65d0:	d4 01 b0 20 	l.sw 0x20(r1),r22
    65d4:	d4 01 c0 24 	l.sw 0x24(r1),r24
    65d8:	d4 01 d0 28 	l.sw 0x28(r1),r26
    65dc:	d4 01 e0 2c 	l.sw 0x2c(r1),r28
    65e0:	d4 01 f0 30 	l.sw 0x30(r1),r30
    65e4:	ab 47 00 00 	l.ori r26,r7,0x0
    65e8:	9c 80 00 00 	l.addi r4,r0,0x0
    65ec:	84 e3 00 40 	l.lwz r7,0x40(r3)
    65f0:	aa 83 00 00 	l.ori r20,r3,0x0
    65f4:	d7 e2 2f 98 	l.sw 0xffffff98(r2),r5
    65f8:	d7 e2 37 9c 	l.sw 0xffffff9c(r2),r6
    65fc:	85 42 00 04 	l.lwz r10,0x4(r2)
    6600:	e4 07 20 00 	l.sfeq r7,r4
    6604:	d7 e2 47 c4 	l.sw 0xffffffc4(r2),r8
    6608:	0c 00 00 50 	l.bnf 6748 <__dtoa_r+0x1a0>
    660c:	d7 e2 27 80 	l.sw 0xffffff80(r2),r4
    6610:	84 e2 ff 98 	l.lwz r7,0xffffff98(r2)
    6614:	bd 67 00 00 	l.sfgesi r7,0x0
    6618:	10 00 00 24 	l.bf 66a8 <__dtoa_r+0x100>
