
../sandbox/runProdCons/applications/application2.OR1K.elf:     file format elf32-or32

Disassembly of section .text:

00000000 <_start-0x100>:
	...

00000100 <_start>:
     100:	9c 40 00 00 	l.addi r2,r0,0x0
     104:	9c 60 00 00 	l.addi r3,r0,0x0
     108:	9c 80 00 00 	l.addi r4,r0,0x0
     10c:	9c a0 00 00 	l.addi r5,r0,0x0
     110:	9c c0 00 00 	l.addi r6,r0,0x0
     114:	9c e0 00 00 	l.addi r7,r0,0x0
     118:	9d 00 00 00 	l.addi r8,r0,0x0
     11c:	9d 20 00 00 	l.addi r9,r0,0x0
     120:	9d 40 00 00 	l.addi r10,r0,0x0
     124:	9d 60 00 00 	l.addi r11,r0,0x0
     128:	9d 80 00 00 	l.addi r12,r0,0x0
     12c:	9d a0 00 00 	l.addi r13,r0,0x0
     130:	9d c0 00 00 	l.addi r14,r0,0x0
     134:	9d e0 00 00 	l.addi r15,r0,0x0
     138:	9e 00 00 00 	l.addi r16,r0,0x0
     13c:	9e 20 00 00 	l.addi r17,r0,0x0
     140:	9e 40 00 00 	l.addi r18,r0,0x0
     144:	9e 60 00 00 	l.addi r19,r0,0x0
     148:	9e 80 00 00 	l.addi r20,r0,0x0
     14c:	9e a0 00 00 	l.addi r21,r0,0x0
     150:	9e c0 00 00 	l.addi r22,r0,0x0
     154:	9e e0 00 00 	l.addi r23,r0,0x0
     158:	9f 00 00 00 	l.addi r24,r0,0x0
     15c:	9f 20 00 00 	l.addi r25,r0,0x0
     160:	9f 40 00 00 	l.addi r26,r0,0x0
     164:	9f 60 00 00 	l.addi r27,r0,0x0
     168:	9f 80 00 00 	l.addi r28,r0,0x0
     16c:	9f a0 00 00 	l.addi r29,r0,0x0
     170:	9f c0 00 00 	l.addi r30,r0,0x0
     174:	9f e0 00 00 	l.addi r31,r0,0x0
     178:	18 20 ff ff 	l.movhi r1,0xffff
     17c:	a8 21 ff fc 	l.ori r1,r1,0xfffc
     180:	18 40 00 00 	l.movhi r2,0x0
     184:	a8 42 2c d8 	l.ori r2,r2,0x2cd8
     188:	44 00 10 00 	l.jr r2
     18c:	15 00 00 00 	l.nop 0x0
	...

00000200 <_buserr_vector>:
     200:	9c 21 ff 88 	l.addi r1,r1,0xffffff88
     204:	d4 01 48 1c 	l.sw 0x1c(r1),r9
     208:	d4 01 50 20 	l.sw 0x20(r1),r10
     20c:	19 20 00 00 	l.movhi r9,0x0
     210:	a9 29 0e 24 	l.ori r9,r9,0xe24
     214:	19 40 00 01 	l.movhi r10,0x1
     218:	a9 4a 06 98 	l.ori r10,r10,0x698
     21c:	44 00 48 00 	l.jr r9
     220:	15 00 00 00 	l.nop 0x0

00000224 <_buserr_vector_end>:
	...

00000300 <_dpfault_vector>:
     300:	9c 21 ff 88 	l.addi r1,r1,0xffffff88
     304:	d4 01 48 1c 	l.sw 0x1c(r1),r9
     308:	d4 01 50 20 	l.sw 0x20(r1),r10
     30c:	19 20 00 00 	l.movhi r9,0x0
     310:	a9 29 0e 24 	l.ori r9,r9,0xe24
     314:	19 40 00 01 	l.movhi r10,0x1
     318:	a9 4a 06 98 	l.ori r10,r10,0x698
     31c:	44 00 48 00 	l.jr r9
     320:	15 00 00 00 	l.nop 0x0

00000324 <_dpfault_vector_end>:
	...

00000400 <_ipfault_vector>:
     400:	9c 21 ff 88 	l.addi r1,r1,0xffffff88
     404:	d4 01 48 1c 	l.sw 0x1c(r1),r9
     408:	d4 01 50 20 	l.sw 0x20(r1),r10
     40c:	19 20 00 00 	l.movhi r9,0x0
     410:	a9 29 0e 24 	l.ori r9,r9,0xe24
     414:	19 40 00 01 	l.movhi r10,0x1
     418:	a9 4a 06 98 	l.ori r10,r10,0x698
     41c:	44 00 48 00 	l.jr r9
     420:	15 00 00 00 	l.nop 0x0

00000424 <_ipfault_vector_end>:
	...

00000500 <_lpint_vector>:
     500:	9c 21 ff 88 	l.addi r1,r1,0xffffff88
     504:	d4 01 48 1c 	l.sw 0x1c(r1),r9
     508:	d4 01 50 20 	l.sw 0x20(r1),r10
     50c:	19 20 00 00 	l.movhi r9,0x0
     510:	a9 29 0e 24 	l.ori r9,r9,0xe24
     514:	19 40 00 01 	l.movhi r10,0x1
     518:	a9 4a 06 98 	l.ori r10,r10,0x698
     51c:	44 00 48 00 	l.jr r9
     520:	15 00 00 00 	l.nop 0x0

00000524 <_lpint_vector_end>:
	...

00000600 <_align_vector>:
     600:	9c 21 ff 88 	l.addi r1,r1,0xffffff88
     604:	d4 01 48 1c 	l.sw 0x1c(r1),r9
     608:	d4 01 50 20 	l.sw 0x20(r1),r10
     60c:	19 20 00 00 	l.movhi r9,0x0
     610:	a9 29 0e 24 	l.ori r9,r9,0xe24
     614:	19 40 00 01 	l.movhi r10,0x1
     618:	a9 4a 06 98 	l.ori r10,r10,0x698
     61c:	44 00 48 00 	l.jr r9
     620:	15 00 00 00 	l.nop 0x0

00000624 <_align_vector_end>:
	...

00000700 <_illinsn_vector>:
     700:	9c 21 ff 88 	l.addi r1,r1,0xffffff88
     704:	d4 01 48 1c 	l.sw 0x1c(r1),r9
     708:	d4 01 50 20 	l.sw 0x20(r1),r10
     70c:	19 20 00 00 	l.movhi r9,0x0
     710:	a9 29 0e 24 	l.ori r9,r9,0xe24
     714:	19 40 00 01 	l.movhi r10,0x1
     718:	a9 4a 06 98 	l.ori r10,r10,0x698
     71c:	44 00 48 00 	l.jr r9
     720:	15 00 00 00 	l.nop 0x0

00000724 <_illinsn_vector_end>:
	...

00000800 <_hpint_vector>:
     800:	9c 21 ff 88 	l.addi r1,r1,0xffffff88
     804:	d4 01 48 1c 	l.sw 0x1c(r1),r9
     808:	d4 01 50 20 	l.sw 0x20(r1),r10
     80c:	19 20 00 00 	l.movhi r9,0x0
     810:	a9 29 0e 24 	l.ori r9,r9,0xe24
     814:	19 40 00 01 	l.movhi r10,0x1
     818:	a9 4a 06 a4 	l.ori r10,r10,0x6a4
     81c:	44 00 48 00 	l.jr r9
     820:	15 00 00 00 	l.nop 0x0

00000824 <_hpint_vector_end>:
	...

00000900 <_dtlbmiss_vector>:
     900:	9c 21 ff 88 	l.addi r1,r1,0xffffff88
     904:	d4 01 48 1c 	l.sw 0x1c(r1),r9
     908:	d4 01 50 20 	l.sw 0x20(r1),r10
     90c:	19 20 00 00 	l.movhi r9,0x0
     910:	a9 29 0e 24 	l.ori r9,r9,0xe24
     914:	19 40 00 01 	l.movhi r10,0x1
     918:	a9 4a 06 98 	l.ori r10,r10,0x698
     91c:	44 00 48 00 	l.jr r9
     920:	15 00 00 00 	l.nop 0x0

00000924 <_dtlbmiss_vector_end>:
	...

00000a00 <_itlbmiss_vector>:
     a00:	9c 21 ff 88 	l.addi r1,r1,0xffffff88
     a04:	d4 01 48 1c 	l.sw 0x1c(r1),r9
     a08:	d4 01 50 20 	l.sw 0x20(r1),r10
     a0c:	19 20 00 00 	l.movhi r9,0x0
     a10:	a9 29 0e 24 	l.ori r9,r9,0xe24
     a14:	19 40 00 01 	l.movhi r10,0x1
     a18:	a9 4a 06 98 	l.ori r10,r10,0x698
     a1c:	44 00 48 00 	l.jr r9
     a20:	15 00 00 00 	l.nop 0x0

00000a24 <_itlbmiss_vector_end>:
	...

00000b00 <_range_vector>:
     b00:	9c 21 ff 88 	l.addi r1,r1,0xffffff88
     b04:	d4 01 48 1c 	l.sw 0x1c(r1),r9
     b08:	d4 01 50 20 	l.sw 0x20(r1),r10
     b0c:	19 20 00 00 	l.movhi r9,0x0
     b10:	a9 29 0e 24 	l.ori r9,r9,0xe24
     b14:	19 40 00 01 	l.movhi r10,0x1
     b18:	a9 4a 06 98 	l.ori r10,r10,0x698
     b1c:	44 00 48 00 	l.jr r9
     b20:	15 00 00 00 	l.nop 0x0

00000b24 <_range_vector_end>:
	...

00000c00 <_syscall_vector>:
     c00:	9c 21 ff 88 	l.addi r1,r1,0xffffff88
     c04:	d4 01 48 1c 	l.sw 0x1c(r1),r9
     c08:	d4 01 50 20 	l.sw 0x20(r1),r10
     c0c:	19 20 00 00 	l.movhi r9,0x0
     c10:	a9 29 0e 24 	l.ori r9,r9,0xe24
     c14:	19 40 00 01 	l.movhi r10,0x1
     c18:	a9 4a 06 98 	l.ori r10,r10,0x698
     c1c:	44 00 48 00 	l.jr r9
     c20:	15 00 00 00 	l.nop 0x0

00000c24 <_syscall_vector_end>:
	...

00000d00 <_break_vector>:
     d00:	9c 21 ff 88 	l.addi r1,r1,0xffffff88
     d04:	d4 01 48 1c 	l.sw 0x1c(r1),r9
     d08:	d4 01 50 20 	l.sw 0x20(r1),r10
     d0c:	19 20 00 00 	l.movhi r9,0x0
     d10:	a9 29 0e 24 	l.ori r9,r9,0xe24
     d14:	19 40 00 01 	l.movhi r10,0x1
     d18:	a9 4a 06 98 	l.ori r10,r10,0x698
     d1c:	44 00 48 00 	l.jr r9
     d20:	15 00 00 00 	l.nop 0x0

00000d24 <_break_vector_end>:
	...

00000e00 <_trap_vector>:
     e00:	9c 21 ff 88 	l.addi r1,r1,0xffffff88
     e04:	d4 01 48 1c 	l.sw 0x1c(r1),r9
     e08:	d4 01 50 20 	l.sw 0x20(r1),r10
     e0c:	19 20 00 00 	l.movhi r9,0x0
     e10:	a9 29 0e 24 	l.ori r9,r9,0xe24
     e14:	19 40 00 01 	l.movhi r10,0x1
     e18:	a9 4a 06 98 	l.ori r10,r10,0x698
     e1c:	44 00 48 00 	l.jr r9
     e20:	15 00 00 00 	l.nop 0x0

00000e24 <_trap_vector_end>:
     e24:	d4 01 10 00 	l.sw 0x0(r1),r2
     e28:	d4 01 18 04 	l.sw 0x4(r1),r3
     e2c:	d4 01 20 08 	l.sw 0x8(r1),r4
     e30:	d4 01 28 0c 	l.sw 0xc(r1),r5
     e34:	d4 01 30 10 	l.sw 0x10(r1),r6
     e38:	d4 01 38 14 	l.sw 0x14(r1),r7
     e3c:	d4 01 40 18 	l.sw 0x18(r1),r8
     e40:	d4 01 58 24 	l.sw 0x24(r1),r11
     e44:	d4 01 60 28 	l.sw 0x28(r1),r12
     e48:	d4 01 68 2c 	l.sw 0x2c(r1),r13
     e4c:	d4 01 70 30 	l.sw 0x30(r1),r14
     e50:	d4 01 78 34 	l.sw 0x34(r1),r15
     e54:	d4 01 80 38 	l.sw 0x38(r1),r16
     e58:	d4 01 88 3c 	l.sw 0x3c(r1),r17
     e5c:	d4 01 90 40 	l.sw 0x40(r1),r18
     e60:	d4 01 98 44 	l.sw 0x44(r1),r19
     e64:	d4 01 a0 48 	l.sw 0x48(r1),r20
     e68:	d4 01 a8 4c 	l.sw 0x4c(r1),r21
     e6c:	d4 01 b0 50 	l.sw 0x50(r1),r22
     e70:	d4 01 b8 54 	l.sw 0x54(r1),r23
     e74:	d4 01 c0 58 	l.sw 0x58(r1),r24
     e78:	d4 01 c8 5c 	l.sw 0x5c(r1),r25
     e7c:	d4 01 d0 60 	l.sw 0x60(r1),r26
     e80:	d4 01 d8 64 	l.sw 0x64(r1),r27
     e84:	d4 01 e0 68 	l.sw 0x68(r1),r28
     e88:	d4 01 e8 6c 	l.sw 0x6c(r1),r29
     e8c:	d4 01 f0 70 	l.sw 0x70(r1),r30
     e90:	d4 01 f8 74 	l.sw 0x74(r1),r31
     e94:	19 20 00 00 	l.movhi r9,0x0
     e98:	a9 29 0e a8 	l.ori r9,r9,0xea8
     e9c:	85 4a 00 00 	l.lwz r10,0x0(r10)
     ea0:	44 00 50 00 	l.jr r10
     ea4:	15 00 00 00 	l.nop 0x0

00000ea8 <end_except>:
     ea8:	84 41 00 00 	l.lwz r2,0x0(r1)
     eac:	84 61 00 04 	l.lwz r3,0x4(r1)
     eb0:	84 81 00 08 	l.lwz r4,0x8(r1)
     eb4:	84 a1 00 0c 	l.lwz r5,0xc(r1)
     eb8:	84 c1 00 10 	l.lwz r6,0x10(r1)
     ebc:	84 e1 00 14 	l.lwz r7,0x14(r1)
     ec0:	85 01 00 18 	l.lwz r8,0x18(r1)
     ec4:	85 21 00 1c 	l.lwz r9,0x1c(r1)
     ec8:	85 41 00 20 	l.lwz r10,0x20(r1)
     ecc:	85 61 00 24 	l.lwz r11,0x24(r1)
     ed0:	85 81 00 28 	l.lwz r12,0x28(r1)
     ed4:	85 a1 00 2c 	l.lwz r13,0x2c(r1)
     ed8:	85 c1 00 30 	l.lwz r14,0x30(r1)
     edc:	85 e1 00 34 	l.lwz r15,0x34(r1)
     ee0:	86 01 00 38 	l.lwz r16,0x38(r1)
     ee4:	86 21 00 3c 	l.lwz r17,0x3c(r1)
     ee8:	86 41 00 40 	l.lwz r18,0x40(r1)
     eec:	86 61 00 44 	l.lwz r19,0x44(r1)
     ef0:	86 81 00 48 	l.lwz r20,0x48(r1)
     ef4:	86 a1 00 4c 	l.lwz r21,0x4c(r1)
     ef8:	86 c1 00 50 	l.lwz r22,0x50(r1)
     efc:	86 e1 00 54 	l.lwz r23,0x54(r1)
     f00:	87 01 00 58 	l.lwz r24,0x58(r1)
     f04:	87 21 00 5c 	l.lwz r25,0x5c(r1)
     f08:	87 41 00 60 	l.lwz r26,0x60(r1)
     f0c:	87 61 00 64 	l.lwz r27,0x64(r1)
     f10:	87 81 00 68 	l.lwz r28,0x68(r1)
     f14:	87 a1 00 6c 	l.lwz r29,0x6c(r1)
     f18:	87 c1 00 70 	l.lwz r30,0x70(r1)
     f1c:	87 e1 00 74 	l.lwz r31,0x74(r1)
     f20:	9c 21 00 78 	l.addi r1,r1,0x78
     f24:	24 00 00 00 	l.rfe 
     f28:	15 00 00 00 	l.nop 0x0

00000f2c <_ResetExecutedInstructions>:
     f2c:	9c 21 ff fc 	l.addi r1,r1,0xfffffffc
     f30:	d4 01 10 00 	l.sw 0x0(r1),r2
     f34:	9c 41 00 04 	l.addi r2,r1,0x4
     f38:	18 60 00 01 	l.movhi r3,0x1
     f3c:	a8 63 06 64 	l.ori r3,r3,0x664
     f40:	84 83 00 00 	l.lwz r4,0x0(r3)
     f44:	18 60 00 01 	l.movhi r3,0x1
     f48:	a8 63 06 60 	l.ori r3,r3,0x660
     f4c:	84 a3 00 00 	l.lwz r5,0x0(r3)
     f50:	9c 60 00 00 	l.addi r3,r0,0x0
     f54:	d4 04 18 00 	l.sw 0x0(r4),r3
     f58:	18 60 00 01 	l.movhi r3,0x1
     f5c:	a8 63 06 5c 	l.ori r3,r3,0x65c
     f60:	84 83 00 00 	l.lwz r4,0x0(r3)
     f64:	9c 60 00 00 	l.addi r3,r0,0x0
     f68:	d4 05 18 00 	l.sw 0x0(r5),r3
     f6c:	18 60 00 01 	l.movhi r3,0x1
     f70:	a8 63 06 58 	l.ori r3,r3,0x658
     f74:	84 a3 00 00 	l.lwz r5,0x0(r3)
     f78:	9c 60 00 00 	l.addi r3,r0,0x0
     f7c:	d4 04 18 00 	l.sw 0x0(r4),r3
     f80:	18 60 00 01 	l.movhi r3,0x1
     f84:	a8 63 06 54 	l.ori r3,r3,0x654
     f88:	84 83 00 00 	l.lwz r4,0x0(r3)
     f8c:	9c 60 00 00 	l.addi r3,r0,0x0
     f90:	d4 05 18 00 	l.sw 0x0(r5),r3
     f94:	18 60 00 01 	l.movhi r3,0x1
     f98:	a8 63 06 50 	l.ori r3,r3,0x650
     f9c:	84 a3 00 00 	l.lwz r5,0x0(r3)
     fa0:	9c 60 00 00 	l.addi r3,r0,0x0
     fa4:	d4 04 18 00 	l.sw 0x0(r4),r3
     fa8:	18 60 00 01 	l.movhi r3,0x1
     fac:	a8 63 06 4c 	l.ori r3,r3,0x64c
     fb0:	84 83 00 00 	l.lwz r4,0x0(r3)
     fb4:	9c 60 00 00 	l.addi r3,r0,0x0
     fb8:	d4 05 18 00 	l.sw 0x0(r5),r3
     fbc:	18 60 00 01 	l.movhi r3,0x1
     fc0:	a8 63 06 48 	l.ori r3,r3,0x648
     fc4:	84 a3 00 00 	l.lwz r5,0x0(r3)
     fc8:	9c 60 00 00 	l.addi r3,r0,0x0
     fcc:	d4 04 18 00 	l.sw 0x0(r4),r3
     fd0:	18 60 00 01 	l.movhi r3,0x1
     fd4:	a8 63 06 44 	l.ori r3,r3,0x644
     fd8:	9c 80 00 00 	l.addi r4,r0,0x0
     fdc:	84 c3 00 00 	l.lwz r6,0x0(r3)
     fe0:	d4 05 20 00 	l.sw 0x0(r5),r4
     fe4:	18 60 00 01 	l.movhi r3,0x1
     fe8:	a8 63 06 40 	l.ori r3,r3,0x640
     fec:	84 83 00 00 	l.lwz r4,0x0(r3)
     ff0:	9c 60 00 00 	l.addi r3,r0,0x0
     ff4:	d4 06 18 00 	l.sw 0x0(r6),r3
     ff8:	18 60 00 01 	l.movhi r3,0x1
     ffc:	a8 63 06 3c 	l.ori r3,r3,0x63c
    1000:	84 a3 00 00 	l.lwz r5,0x0(r3)
    1004:	9c 60 00 00 	l.addi r3,r0,0x0
    1008:	d4 04 18 00 	l.sw 0x0(r4),r3
    100c:	18 60 00 01 	l.movhi r3,0x1
    1010:	a8 63 06 38 	l.ori r3,r3,0x638
    1014:	9c 80 00 00 	l.addi r4,r0,0x0
    1018:	84 63 00 00 	l.lwz r3,0x0(r3)
    101c:	d4 05 20 00 	l.sw 0x0(r5),r4
    1020:	d4 03 20 00 	l.sw 0x0(r3),r4
    1024:	84 41 00 00 	l.lwz r2,0x0(r1)
    1028:	44 00 48 00 	l.jr r9
    102c:	9c 21 00 04 	l.addi r1,r1,0x4

00001030 <_read_class_inst>:
    1030:	9c 21 ff f8 	l.addi r1,r1,0xfffffff8
    1034:	d4 01 10 04 	l.sw 0x4(r1),r2
    1038:	9c 41 00 08 	l.addi r2,r1,0x8
    103c:	d4 01 48 00 	l.sw 0x0(r1),r9
    1040:	18 60 00 01 	l.movhi r3,0x1
    1044:	a8 63 06 5c 	l.ori r3,r3,0x65c
    1048:	84 83 00 00 	l.lwz r4,0x0(r3)
    104c:	18 60 00 01 	l.movhi r3,0x1
    1050:	a8 63 06 40 	l.ori r3,r3,0x640
    1054:	84 84 00 00 	l.lwz r4,0x0(r4)
    1058:	84 a3 00 00 	l.lwz r5,0x0(r3)
    105c:	18 60 00 01 	l.movhi r3,0x1
    1060:	a8 63 17 84 	l.ori r3,r3,0x1784
    1064:	d4 03 20 00 	l.sw 0x0(r3),r4
    1068:	18 60 00 01 	l.movhi r3,0x1
    106c:	a8 63 06 60 	l.ori r3,r3,0x660
    1070:	84 a5 00 00 	l.lwz r5,0x0(r5)
    1074:	84 83 00 00 	l.lwz r4,0x0(r3)
    1078:	18 60 00 01 	l.movhi r3,0x1
    107c:	a8 63 17 7c 	l.ori r3,r3,0x177c
    1080:	d4 03 28 00 	l.sw 0x0(r3),r5
    1084:	18 60 00 01 	l.movhi r3,0x1
    1088:	a8 63 06 58 	l.ori r3,r3,0x658
    108c:	84 84 00 00 	l.lwz r4,0x0(r4)
    1090:	84 a3 00 00 	l.lwz r5,0x0(r3)
    1094:	18 60 00 01 	l.movhi r3,0x1
    1098:	a8 63 48 88 	l.ori r3,r3,0x4888
    109c:	d4 03 20 00 	l.sw 0x0(r3),r4
    10a0:	18 60 00 01 	l.movhi r3,0x1
    10a4:	a8 63 06 54 	l.ori r3,r3,0x654
    10a8:	84 a5 00 00 	l.lwz r5,0x0(r5)
    10ac:	84 83 00 00 	l.lwz r4,0x0(r3)
    10b0:	18 60 00 01 	l.movhi r3,0x1
    10b4:	a8 63 17 78 	l.ori r3,r3,0x1778
    10b8:	d4 03 28 00 	l.sw 0x0(r3),r5
    10bc:	18 60 00 01 	l.movhi r3,0x1
    10c0:	a8 63 06 50 	l.ori r3,r3,0x650
    10c4:	84 84 00 00 	l.lwz r4,0x0(r4)
    10c8:	84 a3 00 00 	l.lwz r5,0x0(r3)
    10cc:	18 60 00 01 	l.movhi r3,0x1
    10d0:	a8 63 17 74 	l.ori r3,r3,0x1774
    10d4:	d4 03 20 00 	l.sw 0x0(r3),r4
    10d8:	18 60 00 01 	l.movhi r3,0x1
    10dc:	a8 63 06 4c 	l.ori r3,r3,0x64c
    10e0:	84 a5 00 00 	l.lwz r5,0x0(r5)
    10e4:	84 83 00 00 	l.lwz r4,0x0(r3)
    10e8:	18 60 00 01 	l.movhi r3,0x1
    10ec:	a8 63 17 70 	l.ori r3,r3,0x1770
    10f0:	d4 03 28 00 	l.sw 0x0(r3),r5
    10f4:	18 60 00 01 	l.movhi r3,0x1
    10f8:	a8 63 06 48 	l.ori r3,r3,0x648
    10fc:	84 84 00 00 	l.lwz r4,0x0(r4)
    1100:	84 a3 00 00 	l.lwz r5,0x0(r3)
    1104:	18 60 00 01 	l.movhi r3,0x1
    1108:	a8 63 17 90 	l.ori r3,r3,0x1790
    110c:	d4 03 20 00 	l.sw 0x0(r3),r4
    1110:	18 60 00 01 	l.movhi r3,0x1
    1114:	a8 63 06 44 	l.ori r3,r3,0x644
    1118:	84 a5 00 00 	l.lwz r5,0x0(r5)
    111c:	84 83 00 00 	l.lwz r4,0x0(r3)
    1120:	18 60 00 01 	l.movhi r3,0x1
    1124:	a8 63 0f 24 	l.ori r3,r3,0xf24
    1128:	d4 03 28 00 	l.sw 0x0(r3),r5
    112c:	18 60 00 01 	l.movhi r3,0x1
    1130:	a8 63 06 3c 	l.ori r3,r3,0x63c
    1134:	84 84 00 00 	l.lwz r4,0x0(r4)
    1138:	84 a3 00 00 	l.lwz r5,0x0(r3)
    113c:	18 60 00 01 	l.movhi r3,0x1
    1140:	a8 63 0f 20 	l.ori r3,r3,0xf20
    1144:	d4 03 20 00 	l.sw 0x0(r3),r4
    1148:	18 60 00 01 	l.movhi r3,0x1
    114c:	a8 63 06 38 	l.ori r3,r3,0x638
    1150:	84 a5 00 00 	l.lwz r5,0x0(r5)
    1154:	84 83 00 00 	l.lwz r4,0x0(r3)
    1158:	18 60 00 01 	l.movhi r3,0x1
    115c:	a8 63 48 a0 	l.ori r3,r3,0x48a0
    1160:	d4 03 28 00 	l.sw 0x0(r3),r5
    1164:	84 84 00 00 	l.lwz r4,0x0(r4)
    1168:	18 60 00 01 	l.movhi r3,0x1
    116c:	a8 63 40 44 	l.ori r3,r3,0x4044
    1170:	07 ff ff 6f 	l.jal f2c <_ResetExecutedInstructions>
    1174:	d4 03 20 00 	l.sw 0x0(r3),r4
    1178:	85 21 00 00 	l.lwz r9,0x0(r1)
    117c:	84 41 00 04 	l.lwz r2,0x4(r1)
    1180:	44 00 48 00 	l.jr r9
    1184:	9c 21 00 08 	l.addi r1,r1,0x8

00001188 <_estimateNoCActivity>:
    1188:	9c 21 ff f0 	l.addi r1,r1,0xfffffff0
    118c:	d4 01 10 04 	l.sw 0x4(r1),r2
    1190:	9c 41 00 10 	l.addi r2,r1,0x10
    1194:	d4 01 48 00 	l.sw 0x0(r1),r9
    1198:	d4 01 50 08 	l.sw 0x8(r1),r10
    119c:	d4 01 60 0c 	l.sw 0xc(r1),r12
    11a0:	18 60 00 01 	l.movhi r3,0x1
    11a4:	a8 63 06 30 	l.ori r3,r3,0x630
    11a8:	1b e0 00 01 	l.movhi r31,0x1
    11ac:	ab ff 06 08 	l.ori r31,r31,0x608
    11b0:	85 e3 00 00 	l.lwz r15,0x0(r3)
    11b4:	1b 60 00 01 	l.movhi r27,0x1
    11b8:	ab 7b 05 f8 	l.ori r27,r27,0x5f8
    11bc:	1b 20 00 01 	l.movhi r25,0x1
    11c0:	ab 39 05 d8 	l.ori r25,r25,0x5d8
    11c4:	84 6f 00 00 	l.lwz r3,0x0(r15)
    11c8:	1a a0 00 01 	l.movhi r21,0x1
    11cc:	aa b5 05 c8 	l.ori r21,r21,0x5c8
    11d0:	1a 60 00 01 	l.movhi r19,0x1
    11d4:	aa 73 05 e8 	l.ori r19,r19,0x5e8
    11d8:	84 9f 00 00 	l.lwz r4,0x0(r31)
    11dc:	19 80 00 01 	l.movhi r12,0x1
    11e0:	a9 8c 06 0c 	l.ori r12,r12,0x60c
    11e4:	19 40 00 01 	l.movhi r10,0x1
    11e8:	a9 4a 05 fc 	l.ori r10,r10,0x5fc
    11ec:	e0 a3 20 02 	l.sub r5,r3,r4
    11f0:	1b a0 00 01 	l.movhi r29,0x1
    11f4:	ab bd 05 dc 	l.ori r29,r29,0x5dc
    11f8:	18 60 00 01 	l.movhi r3,0x1
    11fc:	a8 63 06 28 	l.ori r3,r3,0x628
    1200:	84 9b 00 00 	l.lwz r4,0x0(r27)
    1204:	1a e0 00 01 	l.movhi r23,0x1
    1208:	aa f7 05 cc 	l.ori r23,r23,0x5cc
    120c:	1a 20 00 01 	l.movhi r17,0x1
    1210:	aa 31 05 ec 	l.ori r17,r17,0x5ec
    1214:	85 23 00 00 	l.lwz r9,0x0(r3)
    1218:	18 60 00 01 	l.movhi r3,0x1
    121c:	a8 63 06 04 	l.ori r3,r3,0x604
    1220:	d4 03 28 00 	l.sw 0x0(r3),r5
    1224:	84 69 00 00 	l.lwz r3,0x0(r9)
    1228:	e0 83 20 02 	l.sub r4,r3,r4
    122c:	18 60 00 01 	l.movhi r3,0x1
    1230:	a8 63 06 18 	l.ori r3,r3,0x618
    1234:	e0 a5 20 00 	l.add r5,r5,r4
    1238:	85 03 00 00 	l.lwz r8,0x0(r3)
    123c:	18 60 00 01 	l.movhi r3,0x1
    1240:	a8 63 05 f4 	l.ori r3,r3,0x5f4
    1244:	d4 03 20 00 	l.sw 0x0(r3),r4
    1248:	84 99 00 00 	l.lwz r4,0x0(r25)
    124c:	84 68 00 00 	l.lwz r3,0x0(r8)
    1250:	e0 83 20 02 	l.sub r4,r3,r4
    1254:	18 60 00 01 	l.movhi r3,0x1
    1258:	a8 63 06 10 	l.ori r3,r3,0x610
    125c:	e0 a5 20 00 	l.add r5,r5,r4
    1260:	84 e3 00 00 	l.lwz r7,0x0(r3)
    1264:	18 60 00 01 	l.movhi r3,0x1
    1268:	a8 63 05 d4 	l.ori r3,r3,0x5d4
    126c:	d4 03 20 00 	l.sw 0x0(r3),r4
    1270:	84 95 00 00 	l.lwz r4,0x0(r21)
    1274:	84 67 00 00 	l.lwz r3,0x0(r7)
    1278:	e0 83 20 02 	l.sub r4,r3,r4
    127c:	18 60 00 01 	l.movhi r3,0x1
    1280:	a8 63 06 20 	l.ori r3,r3,0x620
    1284:	e0 a5 20 00 	l.add r5,r5,r4
    1288:	84 c3 00 00 	l.lwz r6,0x0(r3)
    128c:	18 60 00 01 	l.movhi r3,0x1
    1290:	a8 63 05 c4 	l.ori r3,r3,0x5c4
    1294:	d4 03 20 00 	l.sw 0x0(r3),r4
    1298:	84 93 00 00 	l.lwz r4,0x0(r19)
    129c:	84 66 00 00 	l.lwz r3,0x0(r6)
    12a0:	e0 83 20 02 	l.sub r4,r3,r4
    12a4:	18 60 00 01 	l.movhi r3,0x1
    12a8:	a8 63 06 34 	l.ori r3,r3,0x634
    12ac:	e1 65 20 00 	l.add r11,r5,r4
    12b0:	85 a3 00 00 	l.lwz r13,0x0(r3)
    12b4:	18 60 00 01 	l.movhi r3,0x1
    12b8:	a8 63 05 e4 	l.ori r3,r3,0x5e4
    12bc:	d4 03 20 00 	l.sw 0x0(r3),r4
    12c0:	18 60 00 01 	l.movhi r3,0x1
    12c4:	a8 63 05 bc 	l.ori r3,r3,0x5bc
    12c8:	84 8c 00 00 	l.lwz r4,0x0(r12)
    12cc:	d4 03 58 00 	l.sw 0x0(r3),r11
    12d0:	85 ef 00 00 	l.lwz r15,0x0(r15)
    12d4:	b8 6b 00 02 	l.slli r3,r11,0x2
    12d8:	d4 1f 78 00 	l.sw 0x0(r31),r15
    12dc:	e1 63 58 00 	l.add r11,r3,r11
    12e0:	85 29 00 00 	l.lwz r9,0x0(r9)
    12e4:	d4 1b 48 00 	l.sw 0x0(r27),r9
    12e8:	85 08 00 00 	l.lwz r8,0x0(r8)
    12ec:	d4 19 40 00 	l.sw 0x0(r25),r8
    12f0:	84 e7 00 00 	l.lwz r7,0x0(r7)
    12f4:	d4 15 38 00 	l.sw 0x0(r21),r7
    12f8:	84 c6 00 00 	l.lwz r6,0x0(r6)
    12fc:	d4 13 30 00 	l.sw 0x0(r19),r6
    1300:	84 6d 00 00 	l.lwz r3,0x0(r13)
    1304:	e0 a3 20 02 	l.sub r5,r3,r4
    1308:	18 60 00 01 	l.movhi r3,0x1
    130c:	a8 63 06 00 	l.ori r3,r3,0x600
    1310:	d4 03 28 00 	l.sw 0x0(r3),r5
    1314:	18 60 00 01 	l.movhi r3,0x1
    1318:	a8 63 06 2c 	l.ori r3,r3,0x62c
    131c:	84 8a 00 00 	l.lwz r4,0x0(r10)
    1320:	85 23 00 00 	l.lwz r9,0x0(r3)
    1324:	84 69 00 00 	l.lwz r3,0x0(r9)
    1328:	e0 83 20 02 	l.sub r4,r3,r4
    132c:	18 60 00 01 	l.movhi r3,0x1
    1330:	a8 63 06 1c 	l.ori r3,r3,0x61c
    1334:	e0 a5 20 00 	l.add r5,r5,r4
    1338:	85 03 00 00 	l.lwz r8,0x0(r3)
    133c:	18 60 00 01 	l.movhi r3,0x1
    1340:	a8 63 05 f0 	l.ori r3,r3,0x5f0
    1344:	d4 03 20 00 	l.sw 0x0(r3),r4
    1348:	84 9d 00 00 	l.lwz r4,0x0(r29)
    134c:	84 68 00 00 	l.lwz r3,0x0(r8)
    1350:	e0 83 20 02 	l.sub r4,r3,r4
    1354:	18 60 00 01 	l.movhi r3,0x1
    1358:	a8 63 06 14 	l.ori r3,r3,0x614
    135c:	e0 a5 20 00 	l.add r5,r5,r4
    1360:	84 e3 00 00 	l.lwz r7,0x0(r3)
    1364:	18 60 00 01 	l.movhi r3,0x1
    1368:	a8 63 05 d0 	l.ori r3,r3,0x5d0
    136c:	d4 03 20 00 	l.sw 0x0(r3),r4
    1370:	84 97 00 00 	l.lwz r4,0x0(r23)
    1374:	84 67 00 00 	l.lwz r3,0x0(r7)
    1378:	e0 83 20 02 	l.sub r4,r3,r4
    137c:	18 60 00 01 	l.movhi r3,0x1
    1380:	a8 63 06 24 	l.ori r3,r3,0x624
    1384:	e0 a5 20 00 	l.add r5,r5,r4
    1388:	84 c3 00 00 	l.lwz r6,0x0(r3)
    138c:	18 60 00 01 	l.movhi r3,0x1
    1390:	a8 63 05 c0 	l.ori r3,r3,0x5c0
    1394:	d4 03 20 00 	l.sw 0x0(r3),r4
    1398:	84 91 00 00 	l.lwz r4,0x0(r17)
    139c:	84 66 00 00 	l.lwz r3,0x0(r6)
    13a0:	e0 83 20 02 	l.sub r4,r3,r4
    13a4:	18 60 00 01 	l.movhi r3,0x1
    13a8:	a8 63 05 e0 	l.ori r3,r3,0x5e0
    13ac:	e0 a5 20 00 	l.add r5,r5,r4
    13b0:	d4 03 20 00 	l.sw 0x0(r3),r4
    13b4:	e1 6b 28 00 	l.add r11,r11,r5
    13b8:	18 60 00 01 	l.movhi r3,0x1
    13bc:	a8 63 05 b8 	l.ori r3,r3,0x5b8
    13c0:	d4 03 28 00 	l.sw 0x0(r3),r5
    13c4:	85 ad 00 00 	l.lwz r13,0x0(r13)
    13c8:	d4 0c 68 00 	l.sw 0x0(r12),r13
    13cc:	85 29 00 00 	l.lwz r9,0x0(r9)
    13d0:	d4 0a 48 00 	l.sw 0x0(r10),r9
    13d4:	85 08 00 00 	l.lwz r8,0x0(r8)
    13d8:	d4 1d 40 00 	l.sw 0x0(r29),r8
    13dc:	84 e7 00 00 	l.lwz r7,0x0(r7)
    13e0:	d4 17 38 00 	l.sw 0x0(r23),r7
    13e4:	84 c6 00 00 	l.lwz r6,0x0(r6)
    13e8:	d4 11 30 00 	l.sw 0x0(r17),r6
    13ec:	85 21 00 00 	l.lwz r9,0x0(r1)
    13f0:	84 41 00 04 	l.lwz r2,0x4(r1)
    13f4:	85 41 00 08 	l.lwz r10,0x8(r1)
    13f8:	85 81 00 0c 	l.lwz r12,0xc(r1)
    13fc:	44 00 48 00 	l.jr r9
    1400:	9c 21 00 10 	l.addi r1,r1,0x10

00001404 <_getXpos>:
    1404:	9c 21 ff fc 	l.addi r1,r1,0xfffffffc
    1408:	d4 01 10 00 	l.sw 0x0(r1),r2
    140c:	9c 41 00 04 	l.addi r2,r1,0x4
    1410:	a4 63 ff 00 	l.andi r3,r3,0xff00
    1414:	b9 63 00 48 	l.srli r11,r3,0x8
    1418:	84 41 00 00 	l.lwz r2,0x0(r1)
    141c:	44 00 48 00 	l.jr r9
    1420:	9c 21 00 04 	l.addi r1,r1,0x4

00001424 <_getYpos>:
    1424:	9c 21 ff fc 	l.addi r1,r1,0xfffffffc
    1428:	d4 01 10 00 	l.sw 0x0(r1),r2
    142c:	9c 41 00 04 	l.addi r2,r1,0x4
    1430:	a5 63 00 ff 	l.andi r11,r3,0xff
    1434:	84 41 00 00 	l.lwz r2,0x0(r1)
    1438:	44 00 48 00 	l.jr r9
    143c:	9c 21 00 04 	l.addi r1,r1,0x4

00001440 <_getNumberOfPorts>:
    1440:	9c 21 ff f0 	l.addi r1,r1,0xfffffff0
    1444:	d4 01 10 04 	l.sw 0x4(r1),r2
    1448:	9c 41 00 10 	l.addi r2,r1,0x10
    144c:	d4 01 48 00 	l.sw 0x0(r1),r9
    1450:	d4 01 50 08 	l.sw 0x8(r1),r10
    1454:	d4 01 60 0c 	l.sw 0xc(r1),r12
    1458:	07 ff ff eb 	l.jal 1404 <_getXpos>
    145c:	a9 43 00 00 	l.ori r10,r3,0x0
    1460:	a9 8b 00 00 	l.ori r12,r11,0x0
    1464:	07 ff ff f0 	l.jal 1424 <_getYpos>
    1468:	a8 6a 00 00 	l.ori r3,r10,0x0
    146c:	bc 4c 00 01 	l.sfgtui r12,0x1
    1470:	10 00 00 03 	l.bf 147c <_getNumberOfPorts+0x3c>
    1474:	9c 80 00 00 	l.addi r4,r0,0x0
    1478:	9c 80 00 01 	l.addi r4,r0,0x1
    147c:	bc 4b 00 01 	l.sfgtui r11,0x1
    1480:	10 00 00 03 	l.bf 148c <_getNumberOfPorts+0x4c>
    1484:	9c 60 00 00 	l.addi r3,r0,0x0
    1488:	9c 60 00 01 	l.addi r3,r0,0x1
    148c:	e0 64 18 03 	l.and r3,r4,r3
    1490:	bc 03 00 00 	l.sfeqi r3,0x0
    1494:	0c 00 00 13 	l.bnf 14e0 <_getNumberOfPorts+0xa0>
    1498:	bc 4c 00 01 	l.sfgtui r12,0x1
    149c:	0c 00 00 0f 	l.bnf 14d8 <_getNumberOfPorts+0x98>
    14a0:	9c 80 00 00 	l.addi r4,r0,0x0
    14a4:	9c 60 00 00 	l.addi r3,r0,0x0
    14a8:	e4 2b 18 00 	l.sfne r11,r3
    14ac:	10 00 00 04 	l.bf 14bc <_getNumberOfPorts+0x7c>
    14b0:	e0 64 18 04 	l.or r3,r4,r3
    14b4:	9c 60 00 01 	l.addi r3,r0,0x1
    14b8:	e0 64 18 04 	l.or r3,r4,r3
    14bc:	bc 23 00 00 	l.sfnei r3,0x0
    14c0:	10 00 00 04 	l.bf 14d0 <_getNumberOfPorts+0x90>
    14c4:	bc 0b 00 01 	l.sfeqi r11,0x1
    14c8:	0c 00 00 08 	l.bnf 14e8 <_getNumberOfPorts+0xa8>
    14cc:	15 00 00 00 	l.nop 0x0
    14d0:	00 00 00 07 	l.j 14ec <_getNumberOfPorts+0xac>
    14d4:	9d 60 00 04 	l.addi r11,r0,0x4
    14d8:	03 ff ff f3 	l.j 14a4 <_getNumberOfPorts+0x64>
    14dc:	9c 80 00 01 	l.addi r4,r0,0x1
    14e0:	00 00 00 03 	l.j 14ec <_getNumberOfPorts+0xac>
    14e4:	9d 60 00 03 	l.addi r11,r0,0x3
    14e8:	9d 60 00 05 	l.addi r11,r0,0x5
    14ec:	85 21 00 00 	l.lwz r9,0x0(r1)
    14f0:	84 41 00 04 	l.lwz r2,0x4(r1)
    14f4:	85 41 00 08 	l.lwz r10,0x8(r1)
    14f8:	85 81 00 0c 	l.lwz r12,0xc(r1)
    14fc:	44 00 48 00 	l.jr r9
    1500:	9c 21 00 10 	l.addi r1,r1,0x10

00001504 <_prints>:
    1504:	9c 21 ff fc 	l.addi r1,r1,0xfffffffc
    1508:	d4 01 10 00 	l.sw 0x0(r1),r2
    150c:	9c 41 00 04 	l.addi r2,r1,0x4
    1510:	18 80 00 01 	l.movhi r4,0x1
    1514:	a8 84 06 8c 	l.ori r4,r4,0x68c
    1518:	9c c0 00 00 	l.addi r6,r0,0x0
    151c:	84 e4 00 00 	l.lwz r7,0x0(r4)
    1520:	a8 83 00 00 	l.ori r4,r3,0x0
    1524:	90 84 00 00 	l.lbs r4,0x0(r4)
    1528:	9c c6 00 01 	l.addi r6,r6,0x1
    152c:	d4 07 20 00 	l.sw 0x0(r7),r4
    1530:	e0 83 30 00 	l.add r4,r3,r6
    1534:	90 a4 ff ff 	l.lbs r5,0xffffffff(r4)
    1538:	bc 05 00 00 	l.sfeqi r5,0x0
    153c:	0f ff ff fa 	l.bnf 1524 <_prints+0x20>
    1540:	15 00 00 00 	l.nop 0x0
    1544:	84 41 00 00 	l.lwz r2,0x0(r1)
    1548:	44 00 48 00 	l.jr r9
    154c:	9c 21 00 04 	l.addi r1,r1,0x4

00001550 <_printi>:
    1550:	9c 21 ff fc 	l.addi r1,r1,0xfffffffc
    1554:	d4 01 10 00 	l.sw 0x0(r1),r2
    1558:	9c 41 00 04 	l.addi r2,r1,0x4
    155c:	18 80 00 01 	l.movhi r4,0x1
    1560:	a8 84 06 88 	l.ori r4,r4,0x688
    1564:	84 84 00 00 	l.lwz r4,0x0(r4)
    1568:	d4 04 18 00 	l.sw 0x0(r4),r3
    156c:	84 41 00 00 	l.lwz r2,0x0(r1)
    1570:	44 00 48 00 	l.jr r9
    1574:	9c 21 00 04 	l.addi r1,r1,0x4

00001578 <_makeAddress>:
    1578:	9c 21 ff fc 	l.addi r1,r1,0xfffffffc
    157c:	d4 01 10 00 	l.sw 0x0(r1),r2
    1580:	9c 41 00 04 	l.addi r2,r1,0x4
    1584:	b8 63 00 08 	l.slli r3,r3,0x8
    1588:	e1 63 20 04 	l.or r11,r3,r4
    158c:	84 41 00 00 	l.lwz r2,0x0(r1)
    1590:	44 00 48 00 	l.jr r9
    1594:	9c 21 00 04 	l.addi r1,r1,0x4

00001598 <_energyEstimation>:
    1598:	9c 21 ff a0 	l.addi r1,r1,0xffffffa0
    159c:	d4 01 10 04 	l.sw 0x4(r1),r2
    15a0:	9c 41 00 60 	l.addi r2,r1,0x60
    15a4:	d4 01 48 00 	l.sw 0x0(r1),r9
    15a8:	d4 01 50 08 	l.sw 0x8(r1),r10
    15ac:	d4 01 60 0c 	l.sw 0xc(r1),r12
    15b0:	d4 01 70 10 	l.sw 0x10(r1),r14
    15b4:	d4 01 80 14 	l.sw 0x14(r1),r16
    15b8:	d4 01 90 18 	l.sw 0x18(r1),r18
    15bc:	d4 01 a0 1c 	l.sw 0x1c(r1),r20
    15c0:	d4 01 b0 20 	l.sw 0x20(r1),r22
    15c4:	d4 01 c0 24 	l.sw 0x24(r1),r24
    15c8:	d4 01 d0 28 	l.sw 0x28(r1),r26
    15cc:	d4 01 e0 2c 	l.sw 0x2c(r1),r28
    15d0:	d4 01 f0 30 	l.sw 0x30(r1),r30
    15d4:	04 00 08 43 	l.jal 36e0 <_clock>
    15d8:	9f 00 00 0b 	l.addi r24,r0,0xb
    15dc:	a8 6b 00 00 	l.ori r3,r11,0x0
    15e0:	18 80 00 01 	l.movhi r4,0x1
    15e4:	a8 84 05 b4 	l.ori r4,r4,0x5b4
    15e8:	1b 40 00 01 	l.movhi r26,0x1
    15ec:	ab 5a 17 84 	l.ori r26,r26,0x1784
    15f0:	85 64 00 00 	l.lwz r11,0x0(r4)
    15f4:	1b 80 00 01 	l.movhi r28,0x1
    15f8:	ab 9c 48 88 	l.ori r28,r28,0x4888
    15fc:	1b c0 00 01 	l.movhi r30,0x1
    1600:	ab de 17 78 	l.ori r30,r30,0x1778
    1604:	e2 c3 58 02 	l.sub r22,r3,r11
    1608:	07 ff fe 8a 	l.jal 1030 <_read_class_inst>
    160c:	d4 04 18 00 	l.sw 0x0(r4),r3
    1610:	18 60 00 01 	l.movhi r3,0x1
    1614:	a8 63 17 7c 	l.ori r3,r3,0x177c
    1618:	84 9a 00 00 	l.lwz r4,0x0(r26)
    161c:	18 c0 00 01 	l.movhi r6,0x1
    1620:	a8 c6 17 74 	l.ori r6,r6,0x1774
    1624:	84 a3 00 00 	l.lwz r5,0x0(r3)
    1628:	b9 e4 00 46 	l.srli r15,r4,0x6
    162c:	84 fc 00 00 	l.lwz r7,0x0(r28)
    1630:	e0 64 28 00 	l.add r3,r4,r5
    1634:	b9 a5 00 46 	l.srli r13,r5,0x6
    1638:	85 1e 00 00 	l.lwz r8,0x0(r30)
    163c:	e0 63 38 00 	l.add r3,r3,r7
    1640:	18 80 00 01 	l.movhi r4,0x1
    1644:	a8 84 17 70 	l.ori r4,r4,0x1770
    1648:	85 26 00 00 	l.lwz r9,0x0(r6)
    164c:	e0 63 40 00 	l.add r3,r3,r8
    1650:	18 a0 00 01 	l.movhi r5,0x1
    1654:	a8 a5 17 90 	l.ori r5,r5,0x1790
    1658:	85 c4 00 00 	l.lwz r14,0x0(r4)
    165c:	b9 87 00 46 	l.srli r12,r7,0x6
    1660:	e0 63 48 00 	l.add r3,r3,r9
    1664:	84 c5 00 00 	l.lwz r6,0x0(r5)
    1668:	18 80 00 01 	l.movhi r4,0x1
    166c:	a8 84 0f 24 	l.ori r4,r4,0xf24
    1670:	b9 68 00 46 	l.srli r11,r8,0x6
    1674:	b9 49 00 46 	l.srli r10,r9,0x6
    1678:	e0 63 70 00 	l.add r3,r3,r14
    167c:	84 e4 00 00 	l.lwz r7,0x0(r4)
    1680:	18 a0 00 01 	l.movhi r5,0x1
    1684:	a8 a5 0f 20 	l.ori r5,r5,0xf20
    1688:	e0 63 30 00 	l.add r3,r3,r6
    168c:	85 05 00 00 	l.lwz r8,0x0(r5)
    1690:	19 20 00 01 	l.movhi r9,0x1
    1694:	a9 29 48 a0 	l.ori r9,r9,0x48a0
    1698:	e0 63 38 00 	l.add r3,r3,r7
    169c:	84 89 00 00 	l.lwz r4,0x0(r9)
    16a0:	e0 63 40 00 	l.add r3,r3,r8
    16a4:	b8 ae 00 46 	l.srli r5,r14,0x6
    16a8:	b9 24 00 46 	l.srli r9,r4,0x6
    16ac:	b8 c6 00 46 	l.srli r6,r6,0x6
    16b0:	b8 e7 00 46 	l.srli r7,r7,0x6
    16b4:	b9 08 00 46 	l.srli r8,r8,0x6
    16b8:	e0 63 20 00 	l.add r3,r3,r4
    16bc:	d7 e2 7f d4 	l.sw 0xffffffd4(r2),r15
    16c0:	d7 e2 6f d8 	l.sw 0xffffffd8(r2),r13
    16c4:	d7 e2 67 dc 	l.sw 0xffffffdc(r2),r12
    16c8:	d7 e2 57 e4 	l.sw 0xffffffe4(r2),r10
    16cc:	d7 e2 2f e8 	l.sw 0xffffffe8(r2),r5
    16d0:	d7 e2 37 ec 	l.sw 0xffffffec(r2),r6
    16d4:	d7 e2 3f f0 	l.sw 0xfffffff0(r2),r7
    16d8:	d7 e2 47 f4 	l.sw 0xfffffff4(r2),r8
    16dc:	d7 e2 4f f8 	l.sw 0xfffffff8(r2),r9
    16e0:	d7 e2 1f fc 	l.sw 0xfffffffc(r2),r3
    16e4:	07 ff fe a9 	l.jal 1188 <_estimateNoCActivity>
    16e8:	d7 e2 5f e0 	l.sw 0xffffffe0(r2),r11
    16ec:	18 80 00 01 	l.movhi r4,0x1
    16f0:	a8 84 05 b0 	l.ori r4,r4,0x5b0
    16f4:	18 c0 00 00 	l.movhi r6,0x0
    16f8:	a8 c6 fd 14 	l.ori r6,r6,0xfd14
    16fc:	84 64 00 00 	l.lwz r3,0x0(r4)
    1700:	18 e0 00 00 	l.movhi r7,0x0
    1704:	a8 e7 fd 50 	l.ori r7,r7,0xfd50
    1708:	19 00 00 00 	l.movhi r8,0x0
    170c:	a9 08 fd 74 	l.ori r8,r8,0xfd74
    1710:	b8 63 00 02 	l.slli r3,r3,0x2
    1714:	19 20 00 00 	l.movhi r9,0x0
    1718:	a9 29 fd 20 	l.ori r9,r9,0xfd20
    171c:	aa 0b 00 00 	l.ori r16,r11,0x0
    1720:	e0 a3 30 00 	l.add r5,r3,r6
    1724:	e2 96 58 02 	l.sub r20,r22,r11
    1728:	e0 c3 38 00 	l.add r6,r3,r7
    172c:	9c 80 00 0a 	l.addi r4,r0,0xa
    1730:	e0 e3 40 00 	l.add r7,r3,r8
    1734:	85 e6 00 00 	l.lwz r15,0x0(r6)
    1738:	e1 03 48 00 	l.add r8,r3,r9
    173c:	ba 10 00 46 	l.srli r16,r16,0x6
    1740:	85 25 00 00 	l.lwz r9,0x0(r5)
    1744:	ba 94 00 46 	l.srli r20,r20,0x6
    1748:	18 a0 00 00 	l.movhi r5,0x0
    174c:	a8 a5 fd 44 	l.ori r5,r5,0xfd44
    1750:	86 67 00 00 	l.lwz r19,0x0(r7)
    1754:	e1 63 28 00 	l.add r11,r3,r5
    1758:	18 a0 00 00 	l.movhi r5,0x0
    175c:	a8 a5 fd 5c 	l.ori r5,r5,0xfd5c
    1760:	18 e0 00 00 	l.movhi r7,0x0
    1764:	a8 e7 fd 38 	l.ori r7,r7,0xfd38
    1768:	e1 83 28 00 	l.add r12,r3,r5
    176c:	e2 23 38 00 	l.add r17,r3,r7
    1770:	18 a0 00 00 	l.movhi r5,0x0
    1774:	a8 a5 fd 2c 	l.ori r5,r5,0xfd2c
    1778:	86 a8 00 00 	l.lwz r21,0x0(r8)
    177c:	e0 c3 28 00 	l.add r6,r3,r5
    1780:	18 a0 00 00 	l.movhi r5,0x0
    1784:	a8 a5 fd 68 	l.ori r5,r5,0xfd68
    1788:	84 e6 00 00 	l.lwz r7,0x0(r6)
    178c:	e1 c3 28 00 	l.add r14,r3,r5
    1790:	84 62 ff e8 	l.lwz r3,0xffffffe8(r2)
    1794:	84 a2 ff ec 	l.lwz r5,0xffffffec(r2)
    1798:	e1 a3 28 00 	l.add r13,r3,r5
    179c:	85 8c 00 00 	l.lwz r12,0x0(r12)
    17a0:	84 62 ff e0 	l.lwz r3,0xffffffe0(r2)
    17a4:	e1 49 1b 06 	l.mul r10,r9,r3
    17a8:	85 0b 00 00 	l.lwz r8,0x0(r11)
    17ac:	85 6e 00 00 	l.lwz r11,0x0(r14)
    17b0:	84 62 ff e4 	l.lwz r3,0xffffffe4(r2)
    17b4:	e1 08 6b 06 	l.mul r8,r8,r13
    17b8:	85 31 00 00 	l.lwz r9,0x0(r17)
    17bc:	e0 af 1b 06 	l.mul r5,r15,r3
    17c0:	84 62 ff d4 	l.lwz r3,0xffffffd4(r2)
    17c4:	e0 aa 28 00 	l.add r5,r10,r5
    17c8:	e0 d3 1b 06 	l.mul r6,r19,r3
    17cc:	84 62 ff dc 	l.lwz r3,0xffffffdc(r2)
    17d0:	e0 75 1b 06 	l.mul r3,r21,r3
    17d4:	e0 66 18 00 	l.add r3,r6,r3
    17d8:	e0 c5 18 00 	l.add r6,r5,r3
    17dc:	84 62 ff f0 	l.lwz r3,0xfffffff0(r2)
    17e0:	e0 ac 1b 06 	l.mul r5,r12,r3
    17e4:	84 62 ff f4 	l.lwz r3,0xfffffff4(r2)
    17e8:	e0 e7 1b 06 	l.mul r7,r7,r3
    17ec:	e0 68 28 00 	l.add r3,r8,r5
    17f0:	e0 c3 30 00 	l.add r6,r3,r6
    17f4:	84 62 ff d8 	l.lwz r3,0xffffffd8(r2)
    17f8:	e0 ab 1b 06 	l.mul r5,r11,r3
    17fc:	84 62 ff f8 	l.lwz r3,0xfffffff8(r2)
    1800:	e0 a7 28 00 	l.add r5,r7,r5
    1804:	e1 69 1b 06 	l.mul r11,r9,r3
    1808:	e0 65 30 00 	l.add r3,r5,r6
    180c:	e2 43 58 00 	l.add r18,r3,r11
    1810:	04 00 07 75 	l.jal 35e4 <___udivsi3>
    1814:	e0 72 c3 06 	l.mul r3,r18,r24
    1818:	18 60 00 00 	l.movhi r3,0x0
    181c:	a8 63 fd a4 	l.ori r3,r3,0xfda4
    1820:	07 ff ff 39 	l.jal 1504 <_prints>
    1824:	aa 4b 00 00 	l.ori r18,r11,0x0
    1828:	07 ff ff 4a 	l.jal 1550 <_printi>
    182c:	84 7a 00 00 	l.lwz r3,0x0(r26)
    1830:	18 60 00 00 	l.movhi r3,0x0
    1834:	a8 63 fd af 	l.ori r3,r3,0xfdaf
    1838:	07 ff ff 33 	l.jal 1504 <_prints>
    183c:	15 00 00 00 	l.nop 0x0
    1840:	07 ff ff 44 	l.jal 1550 <_printi>
    1844:	84 7c 00 00 	l.lwz r3,0x0(r28)
    1848:	18 60 00 00 	l.movhi r3,0x0
    184c:	a8 63 fd af 	l.ori r3,r3,0xfdaf
    1850:	07 ff ff 2d 	l.jal 1504 <_prints>
    1854:	15 00 00 00 	l.nop 0x0
    1858:	07 ff ff 3e 	l.jal 1550 <_printi>
    185c:	84 7e 00 00 	l.lwz r3,0x0(r30)
    1860:	18 60 00 00 	l.movhi r3,0x0
    1864:	a8 63 fd af 	l.ori r3,r3,0xfdaf
    1868:	07 ff ff 27 	l.jal 1504 <_prints>
    186c:	15 00 00 00 	l.nop 0x0
    1870:	19 00 00 01 	l.movhi r8,0x1
    1874:	a9 08 17 74 	l.ori r8,r8,0x1774
    1878:	07 ff ff 36 	l.jal 1550 <_printi>
    187c:	84 68 00 00 	l.lwz r3,0x0(r8)
    1880:	18 60 00 00 	l.movhi r3,0x0
    1884:	a8 63 fd af 	l.ori r3,r3,0xfdaf
    1888:	07 ff ff 1f 	l.jal 1504 <_prints>
    188c:	15 00 00 00 	l.nop 0x0
    1890:	19 20 00 01 	l.movhi r9,0x1
    1894:	a9 29 17 70 	l.ori r9,r9,0x1770
    1898:	84 69 00 00 	l.lwz r3,0x0(r9)
    189c:	07 ff ff 2d 	l.jal 1550 <_printi>
    18a0:	15 00 00 00 	l.nop 0x0
    18a4:	18 60 00 00 	l.movhi r3,0x0
    18a8:	a8 63 fd af 	l.ori r3,r3,0xfdaf
    18ac:	07 ff ff 16 	l.jal 1504 <_prints>
    18b0:	15 00 00 00 	l.nop 0x0
    18b4:	18 80 00 01 	l.movhi r4,0x1
    18b8:	a8 84 17 90 	l.ori r4,r4,0x1790
    18bc:	07 ff ff 25 	l.jal 1550 <_printi>
    18c0:	84 64 00 00 	l.lwz r3,0x0(r4)
    18c4:	18 60 00 00 	l.movhi r3,0x0
    18c8:	a8 63 fd af 	l.ori r3,r3,0xfdaf
    18cc:	07 ff ff 0e 	l.jal 1504 <_prints>
    18d0:	15 00 00 00 	l.nop 0x0
    18d4:	18 a0 00 01 	l.movhi r5,0x1
    18d8:	a8 a5 0f 24 	l.ori r5,r5,0xf24
    18dc:	07 ff ff 1d 	l.jal 1550 <_printi>
    18e0:	84 65 00 00 	l.lwz r3,0x0(r5)
    18e4:	18 60 00 00 	l.movhi r3,0x0
    18e8:	a8 63 fd af 	l.ori r3,r3,0xfdaf
    18ec:	07 ff ff 06 	l.jal 1504 <_prints>
    18f0:	15 00 00 00 	l.nop 0x0
    18f4:	18 c0 00 01 	l.movhi r6,0x1
    18f8:	a8 c6 0f 20 	l.ori r6,r6,0xf20
    18fc:	07 ff ff 15 	l.jal 1550 <_printi>
    1900:	84 66 00 00 	l.lwz r3,0x0(r6)
    1904:	18 60 00 00 	l.movhi r3,0x0
    1908:	a8 63 fd af 	l.ori r3,r3,0xfdaf
    190c:	07 ff fe fe 	l.jal 1504 <_prints>
    1910:	15 00 00 00 	l.nop 0x0
    1914:	18 e0 00 01 	l.movhi r7,0x1
    1918:	a8 e7 17 7c 	l.ori r7,r7,0x177c
    191c:	07 ff ff 0d 	l.jal 1550 <_printi>
    1920:	84 67 00 00 	l.lwz r3,0x0(r7)
    1924:	18 60 00 00 	l.movhi r3,0x0
    1928:	a8 63 fd af 	l.ori r3,r3,0xfdaf
    192c:	07 ff fe f6 	l.jal 1504 <_prints>
    1930:	15 00 00 00 	l.nop 0x0
    1934:	19 00 00 01 	l.movhi r8,0x1
    1938:	a9 08 48 a0 	l.ori r8,r8,0x48a0
    193c:	07 ff ff 05 	l.jal 1550 <_printi>
    1940:	84 68 00 00 	l.lwz r3,0x0(r8)
    1944:	18 60 00 00 	l.movhi r3,0x0
    1948:	a8 63 fd af 	l.ori r3,r3,0xfdaf
    194c:	07 ff fe ee 	l.jal 1504 <_prints>
    1950:	15 00 00 00 	l.nop 0x0
    1954:	18 60 00 01 	l.movhi r3,0x1
    1958:	a8 63 05 bc 	l.ori r3,r3,0x5bc
    195c:	07 ff fe fd 	l.jal 1550 <_printi>
    1960:	84 63 00 00 	l.lwz r3,0x0(r3)
    1964:	18 60 00 00 	l.movhi r3,0x0
    1968:	a8 63 fd af 	l.ori r3,r3,0xfdaf
    196c:	07 ff fe e6 	l.jal 1504 <_prints>
    1970:	15 00 00 00 	l.nop 0x0
    1974:	18 60 00 01 	l.movhi r3,0x1
    1978:	a8 63 05 b8 	l.ori r3,r3,0x5b8
    197c:	07 ff fe f5 	l.jal 1550 <_printi>
    1980:	84 63 00 00 	l.lwz r3,0x0(r3)
    1984:	18 60 00 00 	l.movhi r3,0x0
    1988:	a8 63 fd af 	l.ori r3,r3,0xfdaf
    198c:	07 ff fe de 	l.jal 1504 <_prints>
    1990:	15 00 00 00 	l.nop 0x0
    1994:	07 ff fe ef 	l.jal 1550 <_printi>
    1998:	a8 70 00 00 	l.ori r3,r16,0x0
    199c:	18 60 00 00 	l.movhi r3,0x0
    19a0:	a8 63 fd af 	l.ori r3,r3,0xfdaf
    19a4:	07 ff fe d8 	l.jal 1504 <_prints>
    19a8:	15 00 00 00 	l.nop 0x0
    19ac:	07 ff fe e9 	l.jal 1550 <_printi>
    19b0:	a8 74 00 00 	l.ori r3,r20,0x0
    19b4:	18 60 00 00 	l.movhi r3,0x0
    19b8:	a8 63 fd b1 	l.ori r3,r3,0xfdb1
    19bc:	07 ff fe d2 	l.jal 1504 <_prints>
    19c0:	15 00 00 00 	l.nop 0x0
    19c4:	19 20 00 01 	l.movhi r9,0x1
    19c8:	a9 29 05 b0 	l.ori r9,r9,0x5b0
    19cc:	18 a0 00 00 	l.movhi r5,0x0
    19d0:	a8 a5 fd 08 	l.ori r5,r5,0xfd08
    19d4:	84 69 00 00 	l.lwz r3,0x0(r9)
    19d8:	18 e0 00 00 	l.movhi r7,0x0
    19dc:	a8 e7 fc fc 	l.ori r7,r7,0xfcfc
    19e0:	b9 16 00 46 	l.srli r8,r22,0x6
    19e4:	b9 83 00 02 	l.slli r12,r3,0x2
    19e8:	e0 8c 28 00 	l.add r4,r12,r5
    19ec:	e0 cc 38 00 	l.add r6,r12,r7
    19f0:	84 a4 00 00 	l.lwz r5,0x0(r4)
    19f4:	84 e6 00 00 	l.lwz r7,0x0(r6)
    19f8:	84 82 ff e8 	l.lwz r4,0xffffffe8(r2)
    19fc:	e0 c5 23 06 	l.mul r6,r5,r4
    1a00:	18 80 00 01 	l.movhi r4,0x1
    1a04:	a8 84 05 a8 	l.ori r4,r4,0x5a8
    1a08:	84 a4 00 00 	l.lwz r5,0x0(r4)
    1a0c:	84 82 ff ec 	l.lwz r4,0xffffffec(r2)
    1a10:	bc 05 00 00 	l.sfeqi r5,0x0
    1a14:	e0 87 23 06 	l.mul r4,r7,r4
    1a18:	10 00 00 1d 	l.bf 1a8c <_energyEstimation+0x4f4>
    1a1c:	e2 06 20 00 	l.add r16,r6,r4
    1a20:	e0 63 28 00 	l.add r3,r3,r5
    1a24:	19 00 00 00 	l.movhi r8,0x0
    1a28:	a9 08 fd 98 	l.ori r8,r8,0xfd98
    1a2c:	b8 a3 00 02 	l.slli r5,r3,0x2
    1a30:	9c 80 00 0a 	l.addi r4,r0,0xa
    1a34:	18 60 00 01 	l.movhi r3,0x1
    1a38:	a8 63 05 a4 	l.ori r3,r3,0x5a4
    1a3c:	e0 a5 40 00 	l.add r5,r5,r8
    1a40:	85 c3 00 00 	l.lwz r14,0x0(r3)
    1a44:	84 65 00 00 	l.lwz r3,0x0(r5)
    1a48:	b9 0e 00 46 	l.srli r8,r14,0x6
    1a4c:	e0 63 43 06 	l.mul r3,r3,r8
    1a50:	04 00 06 e5 	l.jal 35e4 <___udivsi3>
    1a54:	e0 63 c3 06 	l.mul r3,r3,r24
    1a58:	e0 76 70 02 	l.sub r3,r22,r14
    1a5c:	19 20 00 00 	l.movhi r9,0x0
    1a60:	a9 29 fd 98 	l.ori r9,r9,0xfd98
    1a64:	b9 03 00 46 	l.srli r8,r3,0x6
    1a68:	e0 8c 48 00 	l.add r4,r12,r9
    1a6c:	a9 4b 00 00 	l.ori r10,r11,0x0
    1a70:	84 64 00 00 	l.lwz r3,0x0(r4)
    1a74:	e0 63 43 06 	l.mul r3,r3,r8
    1a78:	9c 80 00 0a 	l.addi r4,r0,0xa
    1a7c:	04 00 06 da 	l.jal 35e4 <___udivsi3>
    1a80:	e0 63 c3 06 	l.mul r3,r3,r24
    1a84:	00 00 00 0b 	l.j 1ab0 <_energyEstimation+0x518>
    1a88:	e1 4a 58 00 	l.add r10,r10,r11
    1a8c:	18 60 00 00 	l.movhi r3,0x0
    1a90:	a8 63 fd 98 	l.ori r3,r3,0xfd98
    1a94:	9c 80 00 0a 	l.addi r4,r0,0xa
    1a98:	e0 ac 18 00 	l.add r5,r12,r3
    1a9c:	84 65 00 00 	l.lwz r3,0x0(r5)
    1aa0:	e0 63 43 06 	l.mul r3,r3,r8
    1aa4:	04 00 06 d0 	l.jal 35e4 <___udivsi3>
    1aa8:	e0 63 c3 06 	l.mul r3,r3,r24
    1aac:	a9 4b 00 00 	l.ori r10,r11,0x0
    1ab0:	84 82 ff fc 	l.lwz r4,0xfffffffc(r2)
    1ab4:	19 80 00 01 	l.movhi r12,0x1
    1ab8:	a9 8c 48 70 	l.ori r12,r12,0x4870
    1abc:	9c 60 00 00 	l.addi r3,r0,0x0
    1ac0:	e1 6a 90 00 	l.add r11,r10,r18
    1ac4:	d4 0c 20 10 	l.sw 0x10(r12),r4
    1ac8:	d4 0c 50 0c 	l.sw 0xc(r12),r10
    1acc:	d4 0c 18 04 	l.sw 0x4(r12),r3
    1ad0:	a8 83 00 00 	l.ori r4,r3,0x0
    1ad4:	d4 0c 58 00 	l.sw 0x0(r12),r11
    1ad8:	d4 0c 80 08 	l.sw 0x8(r12),r16
    1adc:	19 40 00 01 	l.movhi r10,0x1
    1ae0:	a9 4a 0f 40 	l.ori r10,r10,0xf40
    1ae4:	07 ff fe a5 	l.jal 1578 <_makeAddress>
    1ae8:	d4 0c b0 14 	l.sw 0x14(r12),r22
    1aec:	9c a0 00 09 	l.addi r5,r0,0x9
    1af0:	d4 0a 58 00 	l.sw 0x0(r10),r11
    1af4:	d4 0a 28 04 	l.sw 0x4(r10),r5
    1af8:	04 00 06 fa 	l.jal 36e0 <_clock>
    1afc:	15 00 00 00 	l.nop 0x0
    1b00:	18 60 00 01 	l.movhi r3,0x1
    1b04:	a8 63 40 40 	l.ori r3,r3,0x4040
    1b08:	84 ac 00 00 	l.lwz r5,0x0(r12)
    1b0c:	9c c0 00 40 	l.addi r6,r0,0x40
    1b10:	84 63 00 00 	l.lwz r3,0x0(r3)
    1b14:	e1 6b 18 02 	l.sub r11,r11,r3
    1b18:	84 8c 00 08 	l.lwz r4,0x8(r12)
    1b1c:	84 6c 00 04 	l.lwz r3,0x4(r12)
    1b20:	d4 0a 58 08 	l.sw 0x8(r10),r11
    1b24:	e0 65 18 00 	l.add r3,r5,r3
    1b28:	84 ec 00 14 	l.lwz r7,0x14(r12)
    1b2c:	e0 83 20 00 	l.add r4,r3,r4
    1b30:	d4 0a 30 0c 	l.sw 0xc(r10),r6
    1b34:	18 60 00 01 	l.movhi r3,0x1
    1b38:	a8 63 06 94 	l.ori r3,r3,0x694
    1b3c:	d4 0a 38 10 	l.sw 0x10(r10),r7
    1b40:	85 8c 00 0c 	l.lwz r12,0xc(r12)
    1b44:	d4 0a 20 14 	l.sw 0x14(r10),r4
    1b48:	84 a3 00 00 	l.lwz r5,0x0(r3)
    1b4c:	d4 0a 60 18 	l.sw 0x18(r10),r12
    1b50:	18 60 00 01 	l.movhi r3,0x1
    1b54:	a8 63 17 88 	l.ori r3,r3,0x1788
    1b58:	84 a5 00 00 	l.lwz r5,0x0(r5)
    1b5c:	d4 03 58 00 	l.sw 0x0(r3),r11
    1b60:	d4 0a 28 1c 	l.sw 0x1c(r10),r5
    1b64:	85 21 00 00 	l.lwz r9,0x0(r1)
    1b68:	84 41 00 04 	l.lwz r2,0x4(r1)
    1b6c:	85 41 00 08 	l.lwz r10,0x8(r1)
    1b70:	85 81 00 0c 	l.lwz r12,0xc(r1)
    1b74:	85 c1 00 10 	l.lwz r14,0x10(r1)
    1b78:	86 01 00 14 	l.lwz r16,0x14(r1)
    1b7c:	86 41 00 18 	l.lwz r18,0x18(r1)
    1b80:	86 81 00 1c 	l.lwz r20,0x1c(r1)
    1b84:	86 c1 00 20 	l.lwz r22,0x20(r1)
    1b88:	87 01 00 24 	l.lwz r24,0x24(r1)
    1b8c:	87 41 00 28 	l.lwz r26,0x28(r1)
    1b90:	87 81 00 2c 	l.lwz r28,0x2c(r1)
    1b94:	87 c1 00 30 	l.lwz r30,0x30(r1)
    1b98:	44 00 48 00 	l.jr r9
    1b9c:	9c 21 00 60 	l.addi r1,r1,0x60

00001ba0 <_ReportExecutedInstructions>:
    1ba0:	9c 21 ff b8 	l.addi r1,r1,0xffffffb8
    1ba4:	d4 01 10 0c 	l.sw 0xc(r1),r2
    1ba8:	9c 41 00 48 	l.addi r2,r1,0x48
    1bac:	d4 01 48 08 	l.sw 0x8(r1),r9
    1bb0:	d4 01 50 10 	l.sw 0x10(r1),r10
    1bb4:	18 60 00 00 	l.movhi r3,0x0
    1bb8:	a8 63 fd b3 	l.ori r3,r3,0xfdb3
    1bbc:	9d 42 ff cc 	l.addi r10,r2,0xffffffcc
    1bc0:	d4 01 18 00 	l.sw 0x0(r1),r3
    1bc4:	18 60 00 01 	l.movhi r3,0x1
    1bc8:	a8 63 06 94 	l.ori r3,r3,0x694
    1bcc:	84 63 00 00 	l.lwz r3,0x0(r3)
    1bd0:	84 63 00 00 	l.lwz r3,0x0(r3)
    1bd4:	d4 01 18 04 	l.sw 0x4(r1),r3
    1bd8:	04 00 06 f4 	l.jal 37a8 <_sprintf>
    1bdc:	a8 6a 00 00 	l.ori r3,r10,0x0
    1be0:	18 80 00 00 	l.movhi r4,0x0
    1be4:	a8 84 fd d1 	l.ori r4,r4,0xfdd1
    1be8:	04 00 07 57 	l.jal 3944 <_fopen>
    1bec:	a8 6a 00 00 	l.ori r3,r10,0x0
    1bf0:	bc 0b 00 00 	l.sfeqi r11,0x0
    1bf4:	10 00 00 9a 	l.bf 1e5c <_ReportExecutedInstructions+0x2bc>
    1bf8:	a9 4b 00 00 	l.ori r10,r11,0x0
    1bfc:	18 60 00 00 	l.movhi r3,0x0
    1c00:	a8 63 fd d4 	l.ori r3,r3,0xfdd4
    1c04:	9c 80 00 01 	l.addi r4,r0,0x1
    1c08:	9c a0 00 3b 	l.addi r5,r0,0x3b
    1c0c:	04 00 07 5d 	l.jal 3980 <_fwrite>
    1c10:	a8 cb 00 00 	l.ori r6,r11,0x0
    1c14:	18 60 00 00 	l.movhi r3,0x0
    1c18:	a8 63 fe 10 	l.ori r3,r3,0xfe10
    1c1c:	9c 80 00 01 	l.addi r4,r0,0x1
    1c20:	9c a0 00 3b 	l.addi r5,r0,0x3b
    1c24:	04 00 07 57 	l.jal 3980 <_fwrite>
    1c28:	a8 ca 00 00 	l.ori r6,r10,0x0
    1c2c:	9c a0 00 3b 	l.addi r5,r0,0x3b
    1c30:	a8 ca 00 00 	l.ori r6,r10,0x0
    1c34:	18 60 00 00 	l.movhi r3,0x0
    1c38:	a8 63 fd d4 	l.ori r3,r3,0xfdd4
    1c3c:	04 00 07 51 	l.jal 3980 <_fwrite>
    1c40:	9c 80 00 01 	l.addi r4,r0,0x1
    1c44:	18 60 00 00 	l.movhi r3,0x0
    1c48:	a8 63 fe 4c 	l.ori r3,r3,0xfe4c
    1c4c:	d4 01 18 00 	l.sw 0x0(r1),r3
    1c50:	18 60 00 01 	l.movhi r3,0x1
    1c54:	a8 63 06 64 	l.ori r3,r3,0x664
    1c58:	84 83 00 00 	l.lwz r4,0x0(r3)
    1c5c:	84 84 00 00 	l.lwz r4,0x0(r4)
    1c60:	a8 6a 00 00 	l.ori r3,r10,0x0
    1c64:	04 00 07 6b 	l.jal 3a10 <_fprintf>
    1c68:	d4 01 20 04 	l.sw 0x4(r1),r4
    1c6c:	18 60 00 00 	l.movhi r3,0x0
    1c70:	a8 63 fe 70 	l.ori r3,r3,0xfe70
    1c74:	d4 01 18 00 	l.sw 0x0(r1),r3
    1c78:	18 60 00 01 	l.movhi r3,0x1
    1c7c:	a8 63 06 60 	l.ori r3,r3,0x660
    1c80:	84 83 00 00 	l.lwz r4,0x0(r3)
    1c84:	84 84 00 00 	l.lwz r4,0x0(r4)
    1c88:	a8 6a 00 00 	l.ori r3,r10,0x0
    1c8c:	04 00 07 61 	l.jal 3a10 <_fprintf>
    1c90:	d4 01 20 04 	l.sw 0x4(r1),r4
    1c94:	18 60 00 00 	l.movhi r3,0x0
    1c98:	a8 63 fe 7f 	l.ori r3,r3,0xfe7f
    1c9c:	d4 01 18 00 	l.sw 0x0(r1),r3
    1ca0:	18 60 00 01 	l.movhi r3,0x1
    1ca4:	a8 63 06 5c 	l.ori r3,r3,0x65c
    1ca8:	84 83 00 00 	l.lwz r4,0x0(r3)
    1cac:	84 84 00 00 	l.lwz r4,0x0(r4)
    1cb0:	a8 6a 00 00 	l.ori r3,r10,0x0
    1cb4:	04 00 07 57 	l.jal 3a10 <_fprintf>
    1cb8:	d4 01 20 04 	l.sw 0x4(r1),r4
    1cbc:	18 60 00 00 	l.movhi r3,0x0
    1cc0:	a8 63 fe 93 	l.ori r3,r3,0xfe93
    1cc4:	d4 01 18 00 	l.sw 0x0(r1),r3
    1cc8:	18 60 00 01 	l.movhi r3,0x1
    1ccc:	a8 63 06 58 	l.ori r3,r3,0x658
    1cd0:	84 83 00 00 	l.lwz r4,0x0(r3)
    1cd4:	84 84 00 00 	l.lwz r4,0x0(r4)
    1cd8:	a8 6a 00 00 	l.ori r3,r10,0x0
    1cdc:	04 00 07 4d 	l.jal 3a10 <_fprintf>
    1ce0:	d4 01 20 04 	l.sw 0x4(r1),r4
    1ce4:	18 60 00 00 	l.movhi r3,0x0
    1ce8:	a8 63 fe a0 	l.ori r3,r3,0xfea0
    1cec:	d4 01 18 00 	l.sw 0x0(r1),r3
    1cf0:	18 60 00 01 	l.movhi r3,0x1
    1cf4:	a8 63 06 54 	l.ori r3,r3,0x654
    1cf8:	84 83 00 00 	l.lwz r4,0x0(r3)
    1cfc:	84 84 00 00 	l.lwz r4,0x0(r4)
    1d00:	a8 6a 00 00 	l.ori r3,r10,0x0
    1d04:	04 00 07 43 	l.jal 3a10 <_fprintf>
    1d08:	d4 01 20 04 	l.sw 0x4(r1),r4
    1d0c:	18 60 00 00 	l.movhi r3,0x0
    1d10:	a8 63 fe ad 	l.ori r3,r3,0xfead
    1d14:	d4 01 18 00 	l.sw 0x0(r1),r3
    1d18:	18 60 00 01 	l.movhi r3,0x1
    1d1c:	a8 63 06 50 	l.ori r3,r3,0x650
    1d20:	84 83 00 00 	l.lwz r4,0x0(r3)
    1d24:	84 84 00 00 	l.lwz r4,0x0(r4)
    1d28:	a8 6a 00 00 	l.ori r3,r10,0x0
    1d2c:	04 00 07 39 	l.jal 3a10 <_fprintf>
    1d30:	d4 01 20 04 	l.sw 0x4(r1),r4
    1d34:	18 60 00 00 	l.movhi r3,0x0
    1d38:	a8 63 fe ba 	l.ori r3,r3,0xfeba
    1d3c:	d4 01 18 00 	l.sw 0x0(r1),r3
    1d40:	18 60 00 01 	l.movhi r3,0x1
    1d44:	a8 63 06 4c 	l.ori r3,r3,0x64c
    1d48:	84 83 00 00 	l.lwz r4,0x0(r3)
    1d4c:	84 84 00 00 	l.lwz r4,0x0(r4)
    1d50:	a8 6a 00 00 	l.ori r3,r10,0x0
    1d54:	04 00 07 2f 	l.jal 3a10 <_fprintf>
    1d58:	d4 01 20 04 	l.sw 0x4(r1),r4
    1d5c:	18 60 00 00 	l.movhi r3,0x0
    1d60:	a8 63 fe c8 	l.ori r3,r3,0xfec8
    1d64:	d4 01 18 00 	l.sw 0x0(r1),r3
    1d68:	18 60 00 01 	l.movhi r3,0x1
    1d6c:	a8 63 06 48 	l.ori r3,r3,0x648
    1d70:	84 83 00 00 	l.lwz r4,0x0(r3)
    1d74:	84 84 00 00 	l.lwz r4,0x0(r4)
    1d78:	a8 6a 00 00 	l.ori r3,r10,0x0
    1d7c:	04 00 07 25 	l.jal 3a10 <_fprintf>
    1d80:	d4 01 20 04 	l.sw 0x4(r1),r4
    1d84:	18 60 00 00 	l.movhi r3,0x0
    1d88:	a8 63 fe d6 	l.ori r3,r3,0xfed6
    1d8c:	d4 01 18 00 	l.sw 0x0(r1),r3
    1d90:	18 60 00 01 	l.movhi r3,0x1
    1d94:	a8 63 06 44 	l.ori r3,r3,0x644
    1d98:	84 83 00 00 	l.lwz r4,0x0(r3)
    1d9c:	84 84 00 00 	l.lwz r4,0x0(r4)
    1da0:	a8 6a 00 00 	l.ori r3,r10,0x0
    1da4:	04 00 07 1b 	l.jal 3a10 <_fprintf>
    1da8:	d4 01 20 04 	l.sw 0x4(r1),r4
    1dac:	18 60 00 00 	l.movhi r3,0x0
    1db0:	a8 63 fe e2 	l.ori r3,r3,0xfee2
    1db4:	d4 01 18 00 	l.sw 0x0(r1),r3
    1db8:	18 60 00 01 	l.movhi r3,0x1
    1dbc:	a8 63 06 40 	l.ori r3,r3,0x640
    1dc0:	84 83 00 00 	l.lwz r4,0x0(r3)
    1dc4:	84 84 00 00 	l.lwz r4,0x0(r4)
    1dc8:	a8 6a 00 00 	l.ori r3,r10,0x0
    1dcc:	04 00 07 11 	l.jal 3a10 <_fprintf>
    1dd0:	d4 01 20 04 	l.sw 0x4(r1),r4
    1dd4:	18 60 00 00 	l.movhi r3,0x0
    1dd8:	a8 63 fe f1 	l.ori r3,r3,0xfef1
    1ddc:	d4 01 18 00 	l.sw 0x0(r1),r3
    1de0:	18 60 00 01 	l.movhi r3,0x1
    1de4:	a8 63 06 3c 	l.ori r3,r3,0x63c
    1de8:	84 83 00 00 	l.lwz r4,0x0(r3)
    1dec:	84 84 00 00 	l.lwz r4,0x0(r4)
    1df0:	a8 6a 00 00 	l.ori r3,r10,0x0
    1df4:	04 00 07 07 	l.jal 3a10 <_fprintf>
    1df8:	d4 01 20 04 	l.sw 0x4(r1),r4
    1dfc:	18 60 00 00 	l.movhi r3,0x0
    1e00:	a8 63 ff 15 	l.ori r3,r3,0xff15
    1e04:	d4 01 18 00 	l.sw 0x0(r1),r3
    1e08:	18 60 00 01 	l.movhi r3,0x1
    1e0c:	a8 63 06 38 	l.ori r3,r3,0x638
    1e10:	84 83 00 00 	l.lwz r4,0x0(r3)
    1e14:	84 84 00 00 	l.lwz r4,0x0(r4)
    1e18:	a8 6a 00 00 	l.ori r3,r10,0x0
    1e1c:	04 00 06 fd 	l.jal 3a10 <_fprintf>
    1e20:	d4 01 20 04 	l.sw 0x4(r1),r4
    1e24:	18 60 00 00 	l.movhi r3,0x0
    1e28:	a8 63 fd d4 	l.ori r3,r3,0xfdd4
    1e2c:	9c 80 00 01 	l.addi r4,r0,0x1
    1e30:	9c a0 00 3b 	l.addi r5,r0,0x3b
    1e34:	04 00 06 d3 	l.jal 3980 <_fwrite>
    1e38:	a8 ca 00 00 	l.ori r6,r10,0x0
    1e3c:	18 60 00 00 	l.movhi r3,0x0
    1e40:	a8 63 fd d4 	l.ori r3,r3,0xfdd4
    1e44:	9c 80 00 01 	l.addi r4,r0,0x1
    1e48:	9c a0 00 3b 	l.addi r5,r0,0x3b
    1e4c:	04 00 06 cd 	l.jal 3980 <_fwrite>
    1e50:	a8 ca 00 00 	l.ori r6,r10,0x0
    1e54:	04 00 07 64 	l.jal 3be4 <_fclose>
    1e58:	a8 6a 00 00 	l.ori r3,r10,0x0
    1e5c:	85 21 00 08 	l.lwz r9,0x8(r1)
    1e60:	84 41 00 0c 	l.lwz r2,0xc(r1)
    1e64:	85 41 00 10 	l.lwz r10,0x10(r1)
    1e68:	44 00 48 00 	l.jr r9
    1e6c:	9c 21 00 48 	l.addi r1,r1,0x48

00001e70 <_interruptHandler_timer>:
    1e70:	9c 21 ff f0 	l.addi r1,r1,0xfffffff0
    1e74:	d4 01 10 04 	l.sw 0x4(r1),r2
    1e78:	9c 41 00 10 	l.addi r2,r1,0x10
    1e7c:	d4 01 48 00 	l.sw 0x0(r1),r9
    1e80:	d4 01 50 08 	l.sw 0x8(r1),r10
    1e84:	d4 01 60 0c 	l.sw 0xc(r1),r12
    1e88:	19 80 00 01 	l.movhi r12,0x1
    1e8c:	a9 8c 05 a0 	l.ori r12,r12,0x5a0
    1e90:	84 6c 00 00 	l.lwz r3,0x0(r12)
    1e94:	85 43 00 00 	l.lwz r10,0x0(r3)
    1e98:	07 ff fd c0 	l.jal 1598 <_energyEstimation>
    1e9c:	15 00 00 00 	l.nop 0x0
    1ea0:	18 60 00 01 	l.movhi r3,0x1
    1ea4:	a8 63 06 90 	l.ori r3,r3,0x690
    1ea8:	9c a0 ff ff 	l.addi r5,r0,0xffffffff
    1eac:	84 63 00 00 	l.lwz r3,0x0(r3)
    1eb0:	84 8c 00 00 	l.lwz r4,0x0(r12)
    1eb4:	d4 03 28 00 	l.sw 0x0(r3),r5
    1eb8:	d4 04 50 00 	l.sw 0x0(r4),r10
    1ebc:	85 21 00 00 	l.lwz r9,0x0(r1)
    1ec0:	84 41 00 04 	l.lwz r2,0x4(r1)
    1ec4:	85 41 00 08 	l.lwz r10,0x8(r1)
    1ec8:	85 81 00 0c 	l.lwz r12,0xc(r1)
    1ecc:	44 00 48 00 	l.jr r9
    1ed0:	9c 21 00 10 	l.addi r1,r1,0x10

00001ed4 <_getID>:
    1ed4:	9c 21 ff f0 	l.addi r1,r1,0xfffffff0
    1ed8:	d4 01 10 04 	l.sw 0x4(r1),r2
    1edc:	9c 41 00 10 	l.addi r2,r1,0x10
    1ee0:	d4 01 48 00 	l.sw 0x0(r1),r9
    1ee4:	d4 01 50 08 	l.sw 0x8(r1),r10
    1ee8:	d4 01 60 0c 	l.sw 0xc(r1),r12
    1eec:	07 ff fd 46 	l.jal 1404 <_getXpos>
    1ef0:	a9 43 00 00 	l.ori r10,r3,0x0
    1ef4:	a9 8b 00 00 	l.ori r12,r11,0x0
    1ef8:	07 ff fd 4b 	l.jal 1424 <_getYpos>
    1efc:	a8 6a 00 00 	l.ori r3,r10,0x0
    1f00:	b9 6b 00 01 	l.slli r11,r11,0x1
    1f04:	e1 6b 60 00 	l.add r11,r11,r12
    1f08:	85 21 00 00 	l.lwz r9,0x0(r1)
    1f0c:	84 41 00 04 	l.lwz r2,0x4(r1)
    1f10:	85 41 00 08 	l.lwz r10,0x8(r1)
    1f14:	85 81 00 0c 	l.lwz r12,0xc(r1)
    1f18:	44 00 48 00 	l.jr r9
    1f1c:	9c 21 00 10 	l.addi r1,r1,0x10

00001f20 <_addSendAfterTX>:
    1f20:	9c 21 ff fc 	l.addi r1,r1,0xfffffffc
    1f24:	d4 01 10 00 	l.sw 0x0(r1),r2
    1f28:	9c 41 00 04 	l.addi r2,r1,0x4
    1f2c:	9c a0 00 00 	l.addi r5,r0,0x0
    1f30:	18 c0 00 01 	l.movhi r6,0x1
    1f34:	a8 c6 17 60 	l.ori r6,r6,0x1760
    1f38:	84 86 00 00 	l.lwz r4,0x0(r6)
    1f3c:	bc 24 ff ff 	l.sfnei r4,0xffffffff
    1f40:	0c 00 00 07 	l.bnf 1f5c <_addSendAfterTX+0x3c>
    1f44:	9c a5 00 01 	l.addi r5,r5,0x1
    1f48:	bd 45 00 03 	l.sfgtsi r5,0x3
    1f4c:	0f ff ff fb 	l.bnf 1f38 <_addSendAfterTX+0x18>
    1f50:	9c c6 00 04 	l.addi r6,r6,0x4
    1f54:	00 00 00 03 	l.j 1f60 <_addSendAfterTX+0x40>
    1f58:	15 00 00 00 	l.nop 0x0
    1f5c:	d4 06 18 00 	l.sw 0x0(r6),r3
    1f60:	84 41 00 00 	l.lwz r2,0x0(r1)
    1f64:	44 00 48 00 	l.jr r9
    1f68:	9c 21 00 04 	l.addi r1,r1,0x4

00001f6c <_popSendAfterTX>:
    1f6c:	9c 21 ff fc 	l.addi r1,r1,0xfffffffc
    1f70:	d4 01 10 00 	l.sw 0x0(r1),r2
    1f74:	9c 41 00 04 	l.addi r2,r1,0x4
    1f78:	18 80 00 01 	l.movhi r4,0x1
    1f7c:	a8 84 17 60 	l.ori r4,r4,0x1760
    1f80:	9c 60 00 00 	l.addi r3,r0,0x0
    1f84:	bc 23 00 03 	l.sfnei r3,0x3
    1f88:	0c 00 00 03 	l.bnf 1f94 <_popSendAfterTX+0x28>
    1f8c:	9c a0 ff ff 	l.addi r5,r0,0xffffffff
    1f90:	84 a4 00 04 	l.lwz r5,0x4(r4)
    1f94:	d4 04 28 00 	l.sw 0x0(r4),r5
    1f98:	9c 63 00 01 	l.addi r3,r3,0x1
    1f9c:	bd 43 00 03 	l.sfgtsi r3,0x3
    1fa0:	0f ff ff f9 	l.bnf 1f84 <_popSendAfterTX+0x18>
    1fa4:	9c 84 00 04 	l.addi r4,r4,0x4
    1fa8:	84 41 00 00 	l.lwz r2,0x0(r1)
    1fac:	44 00 48 00 	l.jr r9
    1fb0:	9c 21 00 04 	l.addi r1,r1,0x4

00001fb4 <_bufferPop>:
    1fb4:	9c 21 ff fc 	l.addi r1,r1,0xfffffffc
    1fb8:	d4 01 10 00 	l.sw 0x0(r1),r2
    1fbc:	9c 41 00 04 	l.addi r2,r1,0x4
    1fc0:	b8 63 00 02 	l.slli r3,r3,0x2
    1fc4:	18 a0 00 01 	l.movhi r5,0x1
    1fc8:	a8 a5 17 a0 	l.ori r5,r5,0x17a0
    1fcc:	18 c0 00 01 	l.movhi r6,0x1
    1fd0:	a8 c6 0f 30 	l.ori r6,r6,0xf30
    1fd4:	e0 83 28 00 	l.add r4,r3,r5
    1fd8:	e0 63 30 00 	l.add r3,r3,r6
    1fdc:	84 a4 00 00 	l.lwz r5,0x0(r4)
    1fe0:	9c c0 00 00 	l.addi r6,r0,0x0
    1fe4:	d4 03 30 00 	l.sw 0x0(r3),r6
    1fe8:	9c 65 00 01 	l.addi r3,r5,0x1
    1fec:	d4 04 18 00 	l.sw 0x0(r4),r3
    1ff0:	84 41 00 00 	l.lwz r2,0x0(r1)
    1ff4:	44 00 48 00 	l.jr r9
    1ff8:	9c 21 00 04 	l.addi r1,r1,0x4

00001ffc <_OVP_init>:
    1ffc:	9c 21 ff e8 	l.addi r1,r1,0xffffffe8
    2000:	d4 01 10 0c 	l.sw 0xc(r1),r2
    2004:	9c 41 00 18 	l.addi r2,r1,0x18
    2008:	d4 01 48 08 	l.sw 0x8(r1),r9
    200c:	d4 01 50 10 	l.sw 0x10(r1),r10
    2010:	d4 01 60 14 	l.sw 0x14(r1),r12
    2014:	04 00 03 44 	l.jal 2d24 <_int_init>
    2018:	15 00 00 00 	l.nop 0x0
    201c:	9c 60 00 00 	l.addi r3,r0,0x0
    2020:	18 80 00 00 	l.movhi r4,0x0
    2024:	a8 84 1e 70 	l.ori r4,r4,0x1e70
    2028:	04 00 03 7e 	l.jal 2e20 <_int_add>
    202c:	a8 a3 00 00 	l.ori r5,r3,0x0
    2030:	9c 60 00 01 	l.addi r3,r0,0x1
    2034:	18 80 00 00 	l.movhi r4,0x0
    2038:	a8 84 27 30 	l.ori r4,r4,0x2730
    203c:	04 00 03 79 	l.jal 2e20 <_int_add>
    2040:	9c a0 00 00 	l.addi r5,r0,0x0
    2044:	18 80 00 00 	l.movhi r4,0x0
    2048:	a8 84 29 44 	l.ori r4,r4,0x2944
    204c:	9c a0 00 00 	l.addi r5,r0,0x0
    2050:	04 00 03 74 	l.jal 2e20 <_int_add>
    2054:	9c 60 00 02 	l.addi r3,r0,0x2
    2058:	04 00 04 04 	l.jal 3068 <_int_enable>
    205c:	9c 60 00 00 	l.addi r3,r0,0x0
    2060:	04 00 04 02 	l.jal 3068 <_int_enable>
    2064:	9c 60 00 01 	l.addi r3,r0,0x1
    2068:	04 00 04 00 	l.jal 3068 <_int_enable>
    206c:	9c 60 00 02 	l.addi r3,r0,0x2
    2070:	9c 80 00 11 	l.addi r4,r0,0x11
    2074:	b4 64 00 00 	l.mfspr r3,r4,0x0
    2078:	a8 63 00 04 	l.ori r3,r3,0x4
    207c:	c0 04 18 00 	l.mtspr r4,r3,0x0
    2080:	19 80 00 01 	l.movhi r12,0x1
    2084:	a9 8c 06 94 	l.ori r12,r12,0x694
    2088:	04 00 04 cc 	l.jal 33b8 <_impProcessorId>
    208c:	85 4c 00 00 	l.lwz r10,0x0(r12)
    2090:	84 6c 00 00 	l.lwz r3,0x0(r12)
    2094:	18 80 00 00 	l.movhi r4,0x0
    2098:	a8 84 ff 29 	l.ori r4,r4,0xff29
    209c:	d4 0a 58 00 	l.sw 0x0(r10),r11
    20a0:	d4 01 20 00 	l.sw 0x0(r1),r4
    20a4:	84 63 00 00 	l.lwz r3,0x0(r3)
    20a8:	04 00 06 e8 	l.jal 3c48 <_printf>
    20ac:	d4 01 18 04 	l.sw 0x4(r1),r3
    20b0:	18 60 00 01 	l.movhi r3,0x1
    20b4:	a8 63 06 7c 	l.ori r3,r3,0x67c
    20b8:	18 c0 00 01 	l.movhi r6,0x1
    20bc:	a8 c6 17 b0 	l.ori r6,r6,0x17b0
    20c0:	84 63 00 00 	l.lwz r3,0x0(r3)
    20c4:	18 80 00 01 	l.movhi r4,0x1
    20c8:	a8 84 06 6c 	l.ori r4,r4,0x66c
    20cc:	9c a0 00 00 	l.addi r5,r0,0x0
    20d0:	d4 03 30 00 	l.sw 0x0(r3),r6
    20d4:	d4 03 20 00 	l.sw 0x0(r3),r4
    20d8:	b8 65 00 02 	l.slli r3,r5,0x2
    20dc:	18 c0 00 01 	l.movhi r6,0x1
    20e0:	a8 c6 17 60 	l.ori r6,r6,0x1760
    20e4:	e0 83 30 00 	l.add r4,r3,r6
    20e8:	9c a5 00 01 	l.addi r5,r5,0x1
    20ec:	18 c0 00 01 	l.movhi r6,0x1
    20f0:	a8 c6 0f 30 	l.ori r6,r6,0xf30
    20f4:	bd 45 00 03 	l.sfgtsi r5,0x3
    20f8:	e0 63 30 00 	l.add r3,r3,r6
    20fc:	9c c0 ff ff 	l.addi r6,r0,0xffffffff
    2100:	d4 04 30 00 	l.sw 0x0(r4),r6
    2104:	9c 80 00 00 	l.addi r4,r0,0x0
    2108:	0f ff ff f4 	l.bnf 20d8 <_OVP_init+0xdc>
    210c:	d4 03 20 00 	l.sw 0x0(r3),r4
    2110:	a8 a4 00 00 	l.ori r5,r4,0x0
    2114:	18 60 00 01 	l.movhi r3,0x1
    2118:	a8 63 48 90 	l.ori r3,r3,0x4890
    211c:	9c c0 00 00 	l.addi r6,r0,0x0
    2120:	9c a5 00 01 	l.addi r5,r5,0x1
    2124:	d4 03 30 00 	l.sw 0x0(r3),r6
    2128:	bd 45 00 03 	l.sfgtsi r5,0x3
    212c:	0f ff ff fc 	l.bnf 211c <_OVP_init+0x120>
    2130:	9c 63 00 04 	l.addi r3,r3,0x4
    2134:	85 4c 00 00 	l.lwz r10,0x0(r12)
    2138:	84 6a 00 00 	l.lwz r3,0x0(r10)
    213c:	07 ff fc b2 	l.jal 1404 <_getXpos>
    2140:	15 00 00 00 	l.nop 0x0
    2144:	18 60 00 01 	l.movhi r3,0x1
    2148:	a8 63 06 8c 	l.ori r3,r3,0x68c
    214c:	85 83 00 00 	l.lwz r12,0x0(r3)
    2150:	d4 0c 58 00 	l.sw 0x0(r12),r11
    2154:	84 6a 00 00 	l.lwz r3,0x0(r10)
    2158:	07 ff fc b3 	l.jal 1424 <_getYpos>
    215c:	15 00 00 00 	l.nop 0x0
    2160:	18 60 00 01 	l.movhi r3,0x1
    2164:	a8 63 06 90 	l.ori r3,r3,0x690
    2168:	d4 0c 58 00 	l.sw 0x0(r12),r11
    216c:	84 83 00 00 	l.lwz r4,0x0(r3)
    2170:	9c c0 00 00 	l.addi r6,r0,0x0
    2174:	18 60 00 01 	l.movhi r3,0x1
    2178:	a8 63 06 84 	l.ori r3,r3,0x684
    217c:	84 a3 00 00 	l.lwz r5,0x0(r3)
    2180:	9c 60 03 e8 	l.addi r3,r0,0x3e8
    2184:	d4 04 18 00 	l.sw 0x0(r4),r3
    2188:	18 60 00 01 	l.movhi r3,0x1
    218c:	a8 63 06 80 	l.ori r3,r3,0x680
    2190:	d4 05 30 00 	l.sw 0x0(r5),r6
    2194:	84 83 00 00 	l.lwz r4,0x0(r3)
    2198:	84 64 00 00 	l.lwz r3,0x0(r4)
    219c:	bc 03 00 04 	l.sfeqi r3,0x4
    21a0:	0f ff ff fe 	l.bnf 2198 <_OVP_init+0x19c>
    21a4:	15 00 00 00 	l.nop 0x0
    21a8:	04 00 05 4e 	l.jal 36e0 <_clock>
    21ac:	15 00 00 00 	l.nop 0x0
    21b0:	18 60 00 01 	l.movhi r3,0x1
    21b4:	a8 63 40 40 	l.ori r3,r3,0x4040
    21b8:	d4 03 58 00 	l.sw 0x0(r3),r11
    21bc:	18 60 00 01 	l.movhi r3,0x1
    21c0:	a8 63 05 b4 	l.ori r3,r3,0x5b4
    21c4:	07 ff fb 5a 	l.jal f2c <_ResetExecutedInstructions>
    21c8:	d4 03 58 00 	l.sw 0x0(r3),r11
    21cc:	85 21 00 08 	l.lwz r9,0x8(r1)
    21d0:	84 41 00 0c 	l.lwz r2,0xc(r1)
    21d4:	85 41 00 10 	l.lwz r10,0x10(r1)
    21d8:	85 81 00 14 	l.lwz r12,0x14(r1)
    21dc:	44 00 48 00 	l.jr r9
    21e0:	9c 21 00 18 	l.addi r1,r1,0x18

000021e4 <_ReceiveRaw>:
    21e4:	9c 21 ff f4 	l.addi r1,r1,0xfffffff4
    21e8:	d4 01 10 04 	l.sw 0x4(r1),r2
    21ec:	9c 41 00 0c 	l.addi r2,r1,0xc
    21f0:	d4 01 48 00 	l.sw 0x0(r1),r9
    21f4:	d4 01 50 08 	l.sw 0x8(r1),r10
    21f8:	18 80 00 01 	l.movhi r4,0x1
    21fc:	a8 84 17 8c 	l.ori r4,r4,0x178c
    2200:	19 40 00 01 	l.movhi r10,0x1
    2204:	a9 4a 17 80 	l.ori r10,r10,0x1780
    2208:	d4 04 18 00 	l.sw 0x0(r4),r3
    220c:	9c a0 00 01 	l.addi r5,r0,0x1
    2210:	9c 60 00 00 	l.addi r3,r0,0x0
    2214:	18 80 00 01 	l.movhi r4,0x1
    2218:	a8 84 06 68 	l.ori r4,r4,0x668
    221c:	d4 0a 18 00 	l.sw 0x0(r10),r3
    2220:	d4 04 28 00 	l.sw 0x0(r4),r5
    2224:	04 00 03 91 	l.jal 3068 <_int_enable>
    2228:	9c 60 00 02 	l.addi r3,r0,0x2
    222c:	18 80 00 01 	l.movhi r4,0x1
    2230:	a8 84 05 a0 	l.ori r4,r4,0x5a0
    2234:	9c a0 00 01 	l.addi r5,r0,0x1
    2238:	84 64 00 00 	l.lwz r3,0x0(r4)
    223c:	d4 03 28 00 	l.sw 0x0(r3),r5
    2240:	84 6a 00 00 	l.lwz r3,0x0(r10)
    2244:	bc 23 00 00 	l.sfnei r3,0x0
    2248:	0f ff ff fe 	l.bnf 2240 <_ReceiveRaw+0x5c>
    224c:	15 00 00 00 	l.nop 0x0
    2250:	84 64 00 00 	l.lwz r3,0x0(r4)
    2254:	9c 80 00 00 	l.addi r4,r0,0x0
    2258:	d4 03 20 00 	l.sw 0x0(r3),r4
    225c:	85 21 00 00 	l.lwz r9,0x0(r1)
    2260:	84 41 00 04 	l.lwz r2,0x4(r1)
    2264:	85 41 00 08 	l.lwz r10,0x8(r1)
    2268:	44 00 48 00 	l.jr r9
    226c:	9c 21 00 0c 	l.addi r1,r1,0xc

00002270 <_getAddress>:
    2270:	9c 21 ff f8 	l.addi r1,r1,0xfffffff8
    2274:	d4 01 10 04 	l.sw 0x4(r1),r2
    2278:	9c 41 00 08 	l.addi r2,r1,0x8
    227c:	d4 01 48 00 	l.sw 0x0(r1),r9
    2280:	b8 83 00 41 	l.srli r4,r3,0x1
    2284:	07 ff fc bd 	l.jal 1578 <_makeAddress>
    2288:	a4 63 00 01 	l.andi r3,r3,0x1
    228c:	85 21 00 00 	l.lwz r9,0x0(r1)
    2290:	84 41 00 04 	l.lwz r2,0x4(r1)
    2294:	44 00 48 00 	l.jr r9
    2298:	9c 21 00 08 	l.addi r1,r1,0x8

0000229c <_getEmptyIndex>:
    229c:	9c 21 ff fc 	l.addi r1,r1,0xfffffffc
    22a0:	d4 01 10 00 	l.sw 0x0(r1),r2
    22a4:	9c 41 00 04 	l.addi r2,r1,0x4
    22a8:	9d 60 ff ff 	l.addi r11,r0,0xffffffff
    22ac:	9c 80 00 00 	l.addi r4,r0,0x0
    22b0:	a8 cb 00 00 	l.ori r6,r11,0x0
    22b4:	b8 64 00 02 	l.slli r3,r4,0x2
    22b8:	18 e0 00 01 	l.movhi r7,0x1
    22bc:	a8 e7 17 a0 	l.ori r7,r7,0x17a0
    22c0:	e0 a3 38 00 	l.add r5,r3,r7
    22c4:	18 e0 00 01 	l.movhi r7,0x1
    22c8:	a8 e7 0f 30 	l.ori r7,r7,0xf30
    22cc:	e0 63 38 00 	l.add r3,r3,r7
    22d0:	84 63 00 00 	l.lwz r3,0x0(r3)
    22d4:	bc 23 00 00 	l.sfnei r3,0x0
    22d8:	10 00 00 08 	l.bf 22f8 <_getEmptyIndex+0x5c>
    22dc:	15 00 00 00 	l.nop 0x0
    22e0:	84 65 00 00 	l.lwz r3,0x0(r5)
    22e4:	e4 43 30 00 	l.sfgtu r3,r6
    22e8:	10 00 00 04 	l.bf 22f8 <_getEmptyIndex+0x5c>
    22ec:	15 00 00 00 	l.nop 0x0
    22f0:	a8 c3 00 00 	l.ori r6,r3,0x0
    22f4:	a9 64 00 00 	l.ori r11,r4,0x0
    22f8:	9c 84 00 01 	l.addi r4,r4,0x1
    22fc:	bd 44 00 03 	l.sfgtsi r4,0x3
    2300:	0f ff ff ee 	l.bnf 22b8 <_getEmptyIndex+0x1c>
    2304:	b8 64 00 02 	l.slli r3,r4,0x2
    2308:	84 41 00 00 	l.lwz r2,0x0(r1)
    230c:	44 00 48 00 	l.jr r9
    2310:	9c 21 00 04 	l.addi r1,r1,0x4

00002314 <_bufferPush>:
    2314:	9c 21 ff fc 	l.addi r1,r1,0xfffffffc
    2318:	d4 01 10 00 	l.sw 0x0(r1),r2
    231c:	9c 41 00 04 	l.addi r2,r1,0x4
    2320:	b8 63 00 02 	l.slli r3,r3,0x2
    2324:	18 80 00 01 	l.movhi r4,0x1
    2328:	a8 84 0f 30 	l.ori r4,r4,0xf30
    232c:	e0 63 20 00 	l.add r3,r3,r4
    2330:	9c 80 00 01 	l.addi r4,r0,0x1
    2334:	d4 03 20 00 	l.sw 0x0(r3),r4
    2338:	84 41 00 00 	l.lwz r2,0x0(r1)
    233c:	44 00 48 00 	l.jr r9
    2340:	9c 21 00 04 	l.addi r1,r1,0x4

00002344 <_checkPendingReq>:
    2344:	9c 21 ff fc 	l.addi r1,r1,0xfffffffc
    2348:	d4 01 10 00 	l.sw 0x0(r1),r2
    234c:	9c 41 00 04 	l.addi r2,r1,0x4
    2350:	b8 63 00 02 	l.slli r3,r3,0x2
    2354:	18 80 00 01 	l.movhi r4,0x1
    2358:	a8 84 48 90 	l.ori r4,r4,0x4890
    235c:	9d 60 00 01 	l.addi r11,r0,0x1
    2360:	e0 63 20 00 	l.add r3,r3,r4
    2364:	84 63 00 00 	l.lwz r3,0x0(r3)
    2368:	bc 23 00 20 	l.sfnei r3,0x20
    236c:	0c 00 00 03 	l.bnf 2378 <_checkPendingReq+0x34>
    2370:	15 00 00 00 	l.nop 0x0
    2374:	9d 60 00 00 	l.addi r11,r0,0x0
    2378:	84 41 00 00 	l.lwz r2,0x0(r1)
    237c:	44 00 48 00 	l.jr r9
    2380:	9c 21 00 04 	l.addi r1,r1,0x4

00002384 <_SendRaw>:
    2384:	9c 21 ff fc 	l.addi r1,r1,0xfffffffc
    2388:	d4 01 10 00 	l.sw 0x0(r1),r2
    238c:	9c 41 00 04 	l.addi r2,r1,0x4
    2390:	18 80 00 01 	l.movhi r4,0x1
    2394:	a8 84 06 7c 	l.ori r4,r4,0x67c
    2398:	84 a4 00 00 	l.lwz r5,0x0(r4)
    239c:	18 80 00 01 	l.movhi r4,0x1
    23a0:	a8 84 06 78 	l.ori r4,r4,0x678
    23a4:	d4 05 18 00 	l.sw 0x0(r5),r3
    23a8:	84 84 00 00 	l.lwz r4,0x0(r4)
    23ac:	9c 60 22 22 	l.addi r3,r0,0x2222
    23b0:	d4 04 18 00 	l.sw 0x0(r4),r3
    23b4:	84 41 00 00 	l.lwz r2,0x0(r1)
    23b8:	44 00 48 00 	l.jr r9
    23bc:	9c 21 00 04 	l.addi r1,r1,0x4

000023c0 <_SendSlot>:
    23c0:	9c 21 ff ec 	l.addi r1,r1,0xffffffec
    23c4:	d4 01 10 04 	l.sw 0x4(r1),r2
    23c8:	9c 41 00 14 	l.addi r2,r1,0x14
    23cc:	d4 01 48 00 	l.sw 0x0(r1),r9
    23d0:	d4 01 50 08 	l.sw 0x8(r1),r10
    23d4:	d4 01 60 0c 	l.sw 0xc(r1),r12
    23d8:	d4 01 70 10 	l.sw 0x10(r1),r14
    23dc:	19 c0 00 01 	l.movhi r14,0x1
    23e0:	a9 ce 06 78 	l.ori r14,r14,0x678
    23e4:	a9 83 00 00 	l.ori r12,r3,0x0
    23e8:	84 ae 00 00 	l.lwz r5,0x0(r14)
    23ec:	a9 44 00 00 	l.ori r10,r4,0x0
    23f0:	84 65 00 00 	l.lwz r3,0x0(r5)
    23f4:	bc 03 00 ff 	l.sfeqi r3,0xff
    23f8:	10 00 00 1a 	l.bf 2460 <_SendSlot+0xa0>
    23fc:	15 00 00 00 	l.nop 0x0
    2400:	18 c0 00 01 	l.movhi r6,0x1
    2404:	a8 c6 05 a0 	l.ori r6,r6,0x5a0
    2408:	84 86 00 00 	l.lwz r4,0x0(r6)
    240c:	9c 60 00 01 	l.addi r3,r0,0x1
    2410:	d4 04 18 00 	l.sw 0x0(r4),r3
    2414:	84 65 00 00 	l.lwz r3,0x0(r5)
    2418:	bc 03 00 ff 	l.sfeqi r3,0xff
    241c:	0f ff ff fc 	l.bnf 240c <_SendSlot+0x4c>
    2420:	15 00 00 00 	l.nop 0x0
    2424:	84 86 00 00 	l.lwz r4,0x0(r6)
    2428:	9c a0 00 00 	l.addi r5,r0,0x0
    242c:	9c 60 00 01 	l.addi r3,r0,0x1
    2430:	d4 04 28 00 	l.sw 0x0(r4),r5
    2434:	04 00 02 d6 	l.jal 2f8c <_int_disable>
    2438:	15 00 00 00 	l.nop 0x0
    243c:	04 00 02 d4 	l.jal 2f8c <_int_disable>
    2440:	9c 60 00 00 	l.addi r3,r0,0x0
    2444:	84 8e 00 00 	l.lwz r4,0x0(r14)
    2448:	84 64 00 00 	l.lwz r3,0x0(r4)
    244c:	bc 03 00 ff 	l.sfeqi r3,0xff
    2450:	0f ff ff fe 	l.bnf 2448 <_SendSlot+0x88>
    2454:	a8 6c 00 00 	l.ori r3,r12,0x0
    2458:	00 00 00 06 	l.j 2470 <_SendSlot+0xb0>
    245c:	15 00 00 00 	l.nop 0x0
    2460:	18 c0 00 01 	l.movhi r6,0x1
    2464:	a8 c6 05 a0 	l.ori r6,r6,0x5a0
    2468:	03 ff ff f0 	l.j 2428 <_SendSlot+0x68>
    246c:	84 86 00 00 	l.lwz r4,0x0(r6)
    2470:	18 80 00 01 	l.movhi r4,0x1
    2474:	a8 84 06 70 	l.ori r4,r4,0x670
    2478:	d4 04 50 00 	l.sw 0x0(r4),r10
    247c:	07 ff ff c2 	l.jal 2384 <_SendRaw>
    2480:	15 00 00 00 	l.nop 0x0
    2484:	04 00 02 f9 	l.jal 3068 <_int_enable>
    2488:	9c 60 00 00 	l.addi r3,r0,0x0
    248c:	04 00 02 f7 	l.jal 3068 <_int_enable>
    2490:	9c 60 00 01 	l.addi r3,r0,0x1
    2494:	85 21 00 00 	l.lwz r9,0x0(r1)
    2498:	84 41 00 04 	l.lwz r2,0x4(r1)
    249c:	85 41 00 08 	l.lwz r10,0x8(r1)
    24a0:	85 81 00 0c 	l.lwz r12,0xc(r1)
    24a4:	85 c1 00 10 	l.lwz r14,0x10(r1)
    24a8:	44 00 48 00 	l.jr r9
    24ac:	9c 21 00 14 	l.addi r1,r1,0x14

000024b0 <_SendMessage>:
    24b0:	9c 21 ff e4 	l.addi r1,r1,0xffffffe4
    24b4:	d4 01 10 04 	l.sw 0x4(r1),r2
    24b8:	9c 41 00 1c 	l.addi r2,r1,0x1c
    24bc:	d4 01 48 00 	l.sw 0x0(r1),r9
    24c0:	d4 01 50 08 	l.sw 0x8(r1),r10
    24c4:	d4 01 60 0c 	l.sw 0xc(r1),r12
    24c8:	d4 01 70 10 	l.sw 0x10(r1),r14
    24cc:	d4 01 80 14 	l.sw 0x14(r1),r16
    24d0:	d4 01 90 18 	l.sw 0x18(r1),r18
    24d4:	19 80 00 01 	l.movhi r12,0x1
    24d8:	a9 8c 05 a0 	l.ori r12,r12,0x5a0
    24dc:	a9 c3 00 00 	l.ori r14,r3,0x0
    24e0:	aa 44 00 00 	l.ori r18,r4,0x0
    24e4:	84 6c 00 00 	l.lwz r3,0x0(r12)
    24e8:	9c 80 00 01 	l.addi r4,r0,0x1
    24ec:	d4 03 20 00 	l.sw 0x0(r3),r4
    24f0:	07 ff ff 6b 	l.jal 229c <_getEmptyIndex>
    24f4:	15 00 00 00 	l.nop 0x0
    24f8:	bc 2b ff ff 	l.sfnei r11,0xffffffff
    24fc:	0f ff ff fd 	l.bnf 24f0 <_SendMessage+0x40>
    2500:	a9 4b 00 00 	l.ori r10,r11,0x0
    2504:	9c 60 08 1c 	l.addi r3,r0,0x81c
    2508:	84 8c 00 00 	l.lwz r4,0x0(r12)
    250c:	e2 0b 1b 06 	l.mul r16,r11,r3
    2510:	9c c0 00 00 	l.addi r6,r0,0x0
    2514:	d4 04 30 00 	l.sw 0x0(r4),r6
    2518:	18 60 00 01 	l.movhi r3,0x1
    251c:	a8 63 1f d0 	l.ori r3,r3,0x1fd0
    2520:	e1 90 18 00 	l.add r12,r16,r3
    2524:	d4 0c 90 00 	l.sw 0x0(r12),r18
    2528:	84 6e 08 00 	l.lwz r3,0x800(r14)
    252c:	9c 63 00 05 	l.addi r3,r3,0x5
    2530:	04 00 04 6c 	l.jal 36e0 <_clock>
    2534:	d4 0c 18 04 	l.sw 0x4(r12),r3
    2538:	18 60 00 01 	l.movhi r3,0x1
    253c:	a8 63 40 40 	l.ori r3,r3,0x4040
    2540:	9c 80 00 30 	l.addi r4,r0,0x30
    2544:	84 63 00 00 	l.lwz r3,0x0(r3)
    2548:	9c a0 00 00 	l.addi r5,r0,0x0
    254c:	e1 6b 18 02 	l.sub r11,r11,r3
    2550:	d4 0c 20 0c 	l.sw 0xc(r12),r4
    2554:	18 60 00 01 	l.movhi r3,0x1
    2558:	a8 63 17 88 	l.ori r3,r3,0x1788
    255c:	d4 0c 58 08 	l.sw 0x8(r12),r11
    2560:	d4 03 58 00 	l.sw 0x0(r3),r11
    2564:	84 6e 08 00 	l.lwz r3,0x800(r14)
    2568:	e4 a3 28 00 	l.sfleu r3,r5
    256c:	10 00 00 0d 	l.bf 25a0 <_SendMessage+0xf0>
    2570:	a8 6e 00 00 	l.ori r3,r14,0x0
    2574:	18 c0 00 01 	l.movhi r6,0x1
    2578:	a8 c6 1f e0 	l.ori r6,r6,0x1fe0
    257c:	e0 90 30 00 	l.add r4,r16,r6
    2580:	84 c3 00 00 	l.lwz r6,0x0(r3)
    2584:	9c a5 00 01 	l.addi r5,r5,0x1
    2588:	d4 04 30 00 	l.sw 0x0(r4),r6
    258c:	9c 63 00 04 	l.addi r3,r3,0x4
    2590:	84 ce 08 00 	l.lwz r6,0x800(r14)
    2594:	e4 65 30 00 	l.sfgeu r5,r6
    2598:	0f ff ff fa 	l.bnf 2580 <_SendMessage+0xd0>
    259c:	9c 84 00 04 	l.addi r4,r4,0x4
    25a0:	07 ff ff 5d 	l.jal 2314 <_bufferPush>
    25a4:	a8 6a 00 00 	l.ori r3,r10,0x0
    25a8:	07 ff fe 4b 	l.jal 1ed4 <_getID>
    25ac:	a8 72 00 00 	l.ori r3,r18,0x0
    25b0:	a9 8b 00 00 	l.ori r12,r11,0x0
    25b4:	07 ff ff 64 	l.jal 2344 <_checkPendingReq>
    25b8:	a8 6b 00 00 	l.ori r3,r11,0x0
    25bc:	bc 0b 00 00 	l.sfeqi r11,0x0
    25c0:	10 00 00 0e 	l.bf 25f8 <_SendMessage+0x148>
    25c4:	9c 60 08 1c 	l.addi r3,r0,0x81c
    25c8:	b9 6c 00 02 	l.slli r11,r12,0x2
    25cc:	e0 aa 1b 06 	l.mul r5,r10,r3
    25d0:	18 c0 00 01 	l.movhi r6,0x1
    25d4:	a8 c6 48 90 	l.ori r6,r6,0x4890
    25d8:	a8 8a 00 00 	l.ori r4,r10,0x0
    25dc:	e0 6b 30 00 	l.add r3,r11,r6
    25e0:	9c c0 00 00 	l.addi r6,r0,0x0
    25e4:	d4 03 30 00 	l.sw 0x0(r3),r6
    25e8:	18 c0 00 01 	l.movhi r6,0x1
    25ec:	a8 c6 1f d0 	l.ori r6,r6,0x1fd0
    25f0:	07 ff ff 74 	l.jal 23c0 <_SendSlot>
    25f4:	e0 65 30 00 	l.add r3,r5,r6
    25f8:	85 21 00 00 	l.lwz r9,0x0(r1)
    25fc:	84 41 00 04 	l.lwz r2,0x4(r1)
    2600:	85 41 00 08 	l.lwz r10,0x8(r1)
    2604:	85 81 00 0c 	l.lwz r12,0xc(r1)
    2608:	85 c1 00 10 	l.lwz r14,0x10(r1)
    260c:	86 01 00 14 	l.lwz r16,0x14(r1)
    2610:	86 41 00 18 	l.lwz r18,0x18(r1)
    2614:	44 00 48 00 	l.jr r9
    2618:	9c 21 00 1c 	l.addi r1,r1,0x1c

0000261c <_requestMsg>:
    261c:	9c 21 ff f4 	l.addi r1,r1,0xfffffff4
    2620:	d4 01 10 04 	l.sw 0x4(r1),r2
    2624:	9c 41 00 0c 	l.addi r2,r1,0xc
    2628:	d4 01 48 00 	l.sw 0x0(r1),r9
    262c:	d4 01 50 08 	l.sw 0x8(r1),r10
    2630:	19 40 00 01 	l.movhi r10,0x1
    2634:	a9 4a 40 50 	l.ori r10,r10,0x4050
    2638:	d4 0a 18 00 	l.sw 0x0(r10),r3
    263c:	9c 60 00 06 	l.addi r3,r0,0x6
    2640:	d4 0a 18 04 	l.sw 0x4(r10),r3
    2644:	04 00 04 27 	l.jal 36e0 <_clock>
    2648:	15 00 00 00 	l.nop 0x0
    264c:	18 60 00 01 	l.movhi r3,0x1
    2650:	a8 63 40 40 	l.ori r3,r3,0x4040
    2654:	9c 80 ff fe 	l.addi r4,r0,0xfffffffe
    2658:	84 a3 00 00 	l.lwz r5,0x0(r3)
    265c:	e1 6b 28 02 	l.sub r11,r11,r5
    2660:	a8 6a 00 00 	l.ori r3,r10,0x0
    2664:	18 a0 00 01 	l.movhi r5,0x1
    2668:	a8 a5 06 94 	l.ori r5,r5,0x694
    266c:	d4 0a 58 08 	l.sw 0x8(r10),r11
    2670:	84 c5 00 00 	l.lwz r6,0x0(r5)
    2674:	18 a0 00 01 	l.movhi r5,0x1
    2678:	a8 a5 17 88 	l.ori r5,r5,0x1788
    267c:	d4 05 58 00 	l.sw 0x0(r5),r11
    2680:	9c a0 00 20 	l.addi r5,r0,0x20
    2684:	d4 0a 28 0c 	l.sw 0xc(r10),r5
    2688:	84 c6 00 00 	l.lwz r6,0x0(r6)
    268c:	d4 0a 30 10 	l.sw 0x10(r10),r6
    2690:	07 ff ff 4c 	l.jal 23c0 <_SendSlot>
    2694:	15 00 00 00 	l.nop 0x0
    2698:	85 21 00 00 	l.lwz r9,0x0(r1)
    269c:	84 41 00 04 	l.lwz r2,0x4(r1)
    26a0:	85 41 00 08 	l.lwz r10,0x8(r1)
    26a4:	44 00 48 00 	l.jr r9
    26a8:	9c 21 00 0c 	l.addi r1,r1,0xc

000026ac <_ReceiveMessage>:
    26ac:	9c 21 ff f4 	l.addi r1,r1,0xfffffff4
    26b0:	d4 01 10 04 	l.sw 0x4(r1),r2
    26b4:	9c 41 00 0c 	l.addi r2,r1,0xc
    26b8:	d4 01 48 00 	l.sw 0x0(r1),r9
    26bc:	d4 01 50 08 	l.sw 0x8(r1),r10
    26c0:	18 a0 00 01 	l.movhi r5,0x1
    26c4:	a8 a5 17 8c 	l.ori r5,r5,0x178c
    26c8:	19 40 00 01 	l.movhi r10,0x1
    26cc:	a9 4a 17 80 	l.ori r10,r10,0x1780
    26d0:	d4 05 18 00 	l.sw 0x0(r5),r3
    26d4:	9c 60 00 00 	l.addi r3,r0,0x0
    26d8:	d4 0a 18 00 	l.sw 0x0(r10),r3
    26dc:	07 ff ff d0 	l.jal 261c <_requestMsg>
    26e0:	a8 64 00 00 	l.ori r3,r4,0x0
    26e4:	04 00 02 61 	l.jal 3068 <_int_enable>
    26e8:	9c 60 00 02 	l.addi r3,r0,0x2
    26ec:	18 80 00 01 	l.movhi r4,0x1
    26f0:	a8 84 05 a0 	l.ori r4,r4,0x5a0
    26f4:	9c a0 00 01 	l.addi r5,r0,0x1
    26f8:	84 64 00 00 	l.lwz r3,0x0(r4)
    26fc:	d4 03 28 00 	l.sw 0x0(r3),r5
    2700:	84 6a 00 00 	l.lwz r3,0x0(r10)
    2704:	bc 23 00 00 	l.sfnei r3,0x0
    2708:	0f ff ff fe 	l.bnf 2700 <_ReceiveMessage+0x54>
    270c:	15 00 00 00 	l.nop 0x0
    2710:	84 64 00 00 	l.lwz r3,0x0(r4)
    2714:	9c 80 00 00 	l.addi r4,r0,0x0
    2718:	d4 03 20 00 	l.sw 0x0(r3),r4
    271c:	85 21 00 00 	l.lwz r9,0x0(r1)
    2720:	84 41 00 04 	l.lwz r2,0x4(r1)
    2724:	85 41 00 08 	l.lwz r10,0x8(r1)
    2728:	44 00 48 00 	l.jr r9
    272c:	9c 21 00 0c 	l.addi r1,r1,0xc

00002730 <_interruptHandler_NI_TX>:
    2730:	9c 21 ff e4 	l.addi r1,r1,0xffffffe4
    2734:	d4 01 10 10 	l.sw 0x10(r1),r2
    2738:	9c 41 00 1c 	l.addi r2,r1,0x1c
    273c:	d4 01 48 0c 	l.sw 0xc(r1),r9
    2740:	d4 01 50 14 	l.sw 0x14(r1),r10
    2744:	d4 01 60 18 	l.sw 0x18(r1),r12
    2748:	19 80 00 01 	l.movhi r12,0x1
    274c:	a9 8c 06 70 	l.ori r12,r12,0x670
    2750:	84 6c 00 00 	l.lwz r3,0x0(r12)
    2754:	bc 43 00 03 	l.sfgtui r3,0x3
    2758:	0c 00 00 28 	l.bnf 27f8 <_interruptHandler_NI_TX+0xc8>
    275c:	15 00 00 00 	l.nop 0x0
    2760:	84 6c 00 00 	l.lwz r3,0x0(r12)
    2764:	bc 23 ff fe 	l.sfnei r3,0xfffffffe
    2768:	10 00 00 16 	l.bf 27c0 <_interruptHandler_NI_TX+0x90>
    276c:	9c 80 ff ff 	l.addi r4,r0,0xffffffff
    2770:	d4 0c 20 00 	l.sw 0x0(r12),r4
    2774:	18 60 00 01 	l.movhi r3,0x1
    2778:	a8 63 06 78 	l.ori r3,r3,0x678
    277c:	9c 80 55 55 	l.addi r4,r0,0x5555
    2780:	84 63 00 00 	l.lwz r3,0x0(r3)
    2784:	d4 03 20 00 	l.sw 0x0(r3),r4
    2788:	18 80 00 01 	l.movhi r4,0x1
    278c:	a8 84 17 60 	l.ori r4,r4,0x1760
    2790:	84 64 00 00 	l.lwz r3,0x0(r4)
    2794:	bc 43 00 04 	l.sfgtui r3,0x4
    2798:	0c 00 00 1f 	l.bnf 2814 <_interruptHandler_NI_TX+0xe4>
    279c:	a8 83 00 00 	l.ori r4,r3,0x0
    27a0:	19 40 00 01 	l.movhi r10,0x1
    27a4:	a9 4a 05 9c 	l.ori r10,r10,0x59c
    27a8:	84 6a 00 00 	l.lwz r3,0x0(r10)
    27ac:	bc 23 00 01 	l.sfnei r3,0x1
    27b0:	10 00 00 29 	l.bf 2854 <_interruptHandler_NI_TX+0x124>
    27b4:	15 00 00 00 	l.nop 0x0
    27b8:	00 00 00 21 	l.j 283c <_interruptHandler_NI_TX+0x10c>
    27bc:	15 00 00 00 	l.nop 0x0
    27c0:	19 40 00 01 	l.movhi r10,0x1
    27c4:	a9 4a 06 94 	l.ori r10,r10,0x694
    27c8:	84 6a 00 00 	l.lwz r3,0x0(r10)
    27cc:	18 a0 00 00 	l.movhi r5,0x0
    27d0:	a8 a5 ff 50 	l.ori r5,r5,0xff50
    27d4:	d4 01 28 00 	l.sw 0x0(r1),r5
    27d8:	84 63 00 00 	l.lwz r3,0x0(r3)
    27dc:	d4 01 18 04 	l.sw 0x4(r1),r3
    27e0:	84 6c 00 00 	l.lwz r3,0x0(r12)
    27e4:	d4 01 18 08 	l.sw 0x8(r1),r3
    27e8:	04 00 05 18 	l.jal 3c48 <_printf>
    27ec:	15 00 00 00 	l.nop 0x0
    27f0:	03 ff ff f7 	l.j 27cc <_interruptHandler_NI_TX+0x9c>
    27f4:	84 6a 00 00 	l.lwz r3,0x0(r10)
    27f8:	84 6c 00 00 	l.lwz r3,0x0(r12)
    27fc:	07 ff fd ee 	l.jal 1fb4 <_bufferPop>
    2800:	15 00 00 00 	l.nop 0x0
    2804:	9c 60 ff ff 	l.addi r3,r0,0xffffffff
    2808:	d4 0c 18 00 	l.sw 0x0(r12),r3
    280c:	03 ff ff da 	l.j 2774 <_interruptHandler_NI_TX+0x44>
    2810:	15 00 00 00 	l.nop 0x0
    2814:	9c a0 08 1c 	l.addi r5,r0,0x81c
    2818:	e0 63 2b 06 	l.mul r3,r3,r5
    281c:	18 a0 00 01 	l.movhi r5,0x1
    2820:	a8 a5 1f d0 	l.ori r5,r5,0x1fd0
    2824:	07 ff fe e7 	l.jal 23c0 <_SendSlot>
    2828:	e0 63 28 00 	l.add r3,r3,r5
    282c:	07 ff fd d0 	l.jal 1f6c <_popSendAfterTX>
    2830:	15 00 00 00 	l.nop 0x0
    2834:	00 00 00 08 	l.j 2854 <_interruptHandler_NI_TX+0x124>
    2838:	15 00 00 00 	l.nop 0x0
    283c:	18 60 00 01 	l.movhi r3,0x1
    2840:	a8 63 0f 40 	l.ori r3,r3,0xf40
    2844:	07 ff fe df 	l.jal 23c0 <_SendSlot>
    2848:	9c 80 ff fe 	l.addi r4,r0,0xfffffffe
    284c:	9c 60 00 00 	l.addi r3,r0,0x0
    2850:	d4 0a 18 00 	l.sw 0x0(r10),r3
    2854:	85 21 00 0c 	l.lwz r9,0xc(r1)
    2858:	84 41 00 10 	l.lwz r2,0x10(r1)
    285c:	85 41 00 14 	l.lwz r10,0x14(r1)
    2860:	85 81 00 18 	l.lwz r12,0x18(r1)
    2864:	44 00 48 00 	l.jr r9
    2868:	9c 21 00 1c 	l.addi r1,r1,0x1c

0000286c <_sendFromMsgBuffer>:
    286c:	9c 21 ff f8 	l.addi r1,r1,0xfffffff8
    2870:	d4 01 10 04 	l.sw 0x4(r1),r2
    2874:	9c 41 00 08 	l.addi r2,r1,0x8
    2878:	d4 01 48 00 	l.sw 0x0(r1),r9
    287c:	9d 00 ff ff 	l.addi r8,r0,0xffffffff
    2880:	9c c0 00 00 	l.addi r6,r0,0x0
    2884:	a9 28 00 00 	l.ori r9,r8,0x0
    2888:	18 e0 00 01 	l.movhi r7,0x1
    288c:	a8 e7 1f d0 	l.ori r7,r7,0x1fd0
    2890:	18 a0 00 01 	l.movhi r5,0x1
    2894:	a8 a5 0f 30 	l.ori r5,r5,0xf30
    2898:	84 85 00 00 	l.lwz r4,0x0(r5)
    289c:	bc 24 00 01 	l.sfnei r4,0x1
    28a0:	10 00 00 0c 	l.bf 28d0 <_sendFromMsgBuffer+0x64>
    28a4:	9c a5 00 04 	l.addi r5,r5,0x4
    28a8:	84 87 00 00 	l.lwz r4,0x0(r7)
    28ac:	e4 24 18 00 	l.sfne r4,r3
    28b0:	10 00 00 08 	l.bf 28d0 <_sendFromMsgBuffer+0x64>
    28b4:	15 00 00 00 	l.nop 0x0
    28b8:	84 87 00 08 	l.lwz r4,0x8(r7)
    28bc:	e4 64 48 00 	l.sfgeu r4,r9
    28c0:	10 00 00 04 	l.bf 28d0 <_sendFromMsgBuffer+0x64>
    28c4:	15 00 00 00 	l.nop 0x0
    28c8:	a9 24 00 00 	l.ori r9,r4,0x0
    28cc:	a9 06 00 00 	l.ori r8,r6,0x0
    28d0:	9c c6 00 01 	l.addi r6,r6,0x1
    28d4:	bd 46 00 03 	l.sfgtsi r6,0x3
    28d8:	0f ff ff f0 	l.bnf 2898 <_sendFromMsgBuffer+0x2c>
    28dc:	9c e7 08 1c 	l.addi r7,r7,0x81c
    28e0:	bc 08 ff ff 	l.sfeqi r8,0xffffffff
    28e4:	10 00 00 14 	l.bf 2934 <_sendFromMsgBuffer+0xc8>
    28e8:	9d 60 00 00 	l.addi r11,r0,0x0
    28ec:	18 60 00 01 	l.movhi r3,0x1
    28f0:	a8 63 06 78 	l.ori r3,r3,0x678
    28f4:	84 63 00 00 	l.lwz r3,0x0(r3)
    28f8:	84 63 00 00 	l.lwz r3,0x0(r3)
    28fc:	bc 23 00 ff 	l.sfnei r3,0xff
    2900:	10 00 00 0a 	l.bf 2928 <_sendFromMsgBuffer+0xbc>
    2904:	9c 60 08 1c 	l.addi r3,r0,0x81c
    2908:	18 a0 00 01 	l.movhi r5,0x1
    290c:	a8 a5 1f d0 	l.ori r5,r5,0x1fd0
    2910:	e0 68 1b 06 	l.mul r3,r8,r3
    2914:	a8 88 00 00 	l.ori r4,r8,0x0
    2918:	07 ff fe aa 	l.jal 23c0 <_SendSlot>
    291c:	e0 63 28 00 	l.add r3,r3,r5
    2920:	00 00 00 05 	l.j 2934 <_sendFromMsgBuffer+0xc8>
    2924:	9d 60 00 01 	l.addi r11,r0,0x1
    2928:	07 ff fd 7e 	l.jal 1f20 <_addSendAfterTX>
    292c:	a8 68 00 00 	l.ori r3,r8,0x0
    2930:	9d 60 00 01 	l.addi r11,r0,0x1
    2934:	85 21 00 00 	l.lwz r9,0x0(r1)
    2938:	84 41 00 04 	l.lwz r2,0x4(r1)
    293c:	44 00 48 00 	l.jr r9
    2940:	9c 21 00 08 	l.addi r1,r1,0x8

00002944 <_interruptHandler_NI_RX>:
    2944:	9c 21 ff ec 	l.addi r1,r1,0xffffffec
    2948:	d4 01 10 0c 	l.sw 0xc(r1),r2
    294c:	9c 41 00 14 	l.addi r2,r1,0x14
    2950:	d4 01 48 08 	l.sw 0x8(r1),r9
    2954:	d4 01 50 10 	l.sw 0x10(r1),r10
    2958:	18 80 00 01 	l.movhi r4,0x1
    295c:	a8 84 05 a0 	l.ori r4,r4,0x5a0
    2960:	9c a0 00 00 	l.addi r5,r0,0x0
    2964:	84 84 00 00 	l.lwz r4,0x0(r4)
    2968:	18 60 00 00 	l.movhi r3,0x0
    296c:	a8 63 ff ab 	l.ori r3,r3,0xffab
    2970:	d4 04 28 00 	l.sw 0x0(r4),r5
    2974:	07 ff fa e4 	l.jal 1504 <_prints>
    2978:	15 00 00 00 	l.nop 0x0
    297c:	18 80 00 01 	l.movhi r4,0x1
    2980:	a8 84 17 b0 	l.ori r4,r4,0x17b0
    2984:	84 64 00 0c 	l.lwz r3,0xc(r4)
    2988:	bc 03 00 30 	l.sfeqi r3,0x30
    298c:	10 00 00 06 	l.bf 29a4 <_interruptHandler_NI_RX+0x60>
    2990:	15 00 00 00 	l.nop 0x0
    2994:	84 64 00 0c 	l.lwz r3,0xc(r4)
    2998:	bc 03 00 40 	l.sfeqi r3,0x40
    299c:	0c 00 00 23 	l.bnf 2a28 <_interruptHandler_NI_RX+0xe4>
    29a0:	15 00 00 00 	l.nop 0x0
    29a4:	18 60 00 01 	l.movhi r3,0x1
    29a8:	a8 63 17 80 	l.ori r3,r3,0x1780
    29ac:	9c e0 00 01 	l.addi r7,r0,0x1
    29b0:	d4 03 38 00 	l.sw 0x0(r3),r7
    29b4:	18 60 00 01 	l.movhi r3,0x1
    29b8:	a8 63 17 8c 	l.ori r3,r3,0x178c
    29bc:	84 e3 00 00 	l.lwz r7,0x0(r3)
    29c0:	9c 60 00 00 	l.addi r3,r0,0x0
    29c4:	d4 04 18 0c 	l.sw 0xc(r4),r3
    29c8:	a8 a3 00 00 	l.ori r5,r3,0x0
    29cc:	84 64 00 04 	l.lwz r3,0x4(r4)
    29d0:	9c 63 ff fb 	l.addi r3,r3,0xfffffffb
    29d4:	e4 a3 28 00 	l.sfleu r3,r5
    29d8:	10 00 00 0c 	l.bf 2a08 <_interruptHandler_NI_RX+0xc4>
    29dc:	d4 27 18 00 	l.sw 0x800(r7),r3
    29e0:	a8 c3 00 00 	l.ori r6,r3,0x0
    29e4:	9c 84 00 10 	l.addi r4,r4,0x10
    29e8:	a8 67 00 00 	l.ori r3,r7,0x0
    29ec:	84 e4 00 00 	l.lwz r7,0x0(r4)
    29f0:	9c a5 00 01 	l.addi r5,r5,0x1
    29f4:	d4 03 38 00 	l.sw 0x0(r3),r7
    29f8:	9c 84 00 04 	l.addi r4,r4,0x4
    29fc:	e4 65 30 00 	l.sfgeu r5,r6
    2a00:	0f ff ff fb 	l.bnf 29ec <_interruptHandler_NI_RX+0xa8>
    2a04:	9c 63 00 04 	l.addi r3,r3,0x4
    2a08:	19 40 00 01 	l.movhi r10,0x1
    2a0c:	a9 4a 06 68 	l.ori r10,r10,0x668
    2a10:	84 6a 00 00 	l.lwz r3,0x0(r10)
    2a14:	bc 23 00 01 	l.sfnei r3,0x1
    2a18:	10 00 00 2a 	l.bf 2ac0 <_interruptHandler_NI_RX+0x17c>
    2a1c:	15 00 00 00 	l.nop 0x0
    2a20:	00 00 00 11 	l.j 2a64 <_interruptHandler_NI_RX+0x120>
    2a24:	15 00 00 00 	l.nop 0x0
    2a28:	84 64 00 0c 	l.lwz r3,0xc(r4)
    2a2c:	bc 23 00 20 	l.sfnei r3,0x20
    2a30:	0c 00 00 13 	l.bnf 2a7c <_interruptHandler_NI_RX+0x138>
    2a34:	15 00 00 00 	l.nop 0x0
    2a38:	19 40 00 01 	l.movhi r10,0x1
    2a3c:	a9 4a 06 94 	l.ori r10,r10,0x694
    2a40:	84 6a 00 00 	l.lwz r3,0x0(r10)
    2a44:	18 a0 00 00 	l.movhi r5,0x0
    2a48:	a8 a5 ff d2 	l.ori r5,r5,0xffd2
    2a4c:	d4 01 28 00 	l.sw 0x0(r1),r5
    2a50:	84 63 00 00 	l.lwz r3,0x0(r3)
    2a54:	04 00 04 7d 	l.jal 3c48 <_printf>
    2a58:	d4 01 18 04 	l.sw 0x4(r1),r3
    2a5c:	03 ff ff fa 	l.j 2a44 <_interruptHandler_NI_RX+0x100>
    2a60:	84 6a 00 00 	l.lwz r3,0x0(r10)
    2a64:	04 00 01 4a 	l.jal 2f8c <_int_disable>
    2a68:	9c 60 00 02 	l.addi r3,r0,0x2
    2a6c:	9c 60 00 00 	l.addi r3,r0,0x0
    2a70:	d4 0a 18 00 	l.sw 0x0(r10),r3
    2a74:	00 00 00 13 	l.j 2ac0 <_interruptHandler_NI_RX+0x17c>
    2a78:	15 00 00 00 	l.nop 0x0
    2a7c:	85 44 00 10 	l.lwz r10,0x10(r4)
    2a80:	9c a0 00 00 	l.addi r5,r0,0x0
    2a84:	a8 6a 00 00 	l.ori r3,r10,0x0
    2a88:	d4 04 28 0c 	l.sw 0xc(r4),r5
    2a8c:	07 ff ff 78 	l.jal 286c <_sendFromMsgBuffer>
    2a90:	15 00 00 00 	l.nop 0x0
    2a94:	bc 2b 00 00 	l.sfnei r11,0x0
    2a98:	10 00 00 0a 	l.bf 2ac0 <_interruptHandler_NI_RX+0x17c>
    2a9c:	15 00 00 00 	l.nop 0x0
    2aa0:	07 ff fd 0d 	l.jal 1ed4 <_getID>
    2aa4:	a8 6a 00 00 	l.ori r3,r10,0x0
    2aa8:	b9 6b 00 02 	l.slli r11,r11,0x2
    2aac:	18 e0 00 01 	l.movhi r7,0x1
    2ab0:	a8 e7 48 90 	l.ori r7,r7,0x4890
    2ab4:	9c 60 00 20 	l.addi r3,r0,0x20
    2ab8:	e1 6b 38 00 	l.add r11,r11,r7
    2abc:	d4 0b 18 00 	l.sw 0x0(r11),r3
    2ac0:	18 60 00 01 	l.movhi r3,0x1
    2ac4:	a8 63 06 74 	l.ori r3,r3,0x674
    2ac8:	9c 80 55 55 	l.addi r4,r0,0x5555
    2acc:	84 63 00 00 	l.lwz r3,0x0(r3)
    2ad0:	d4 03 20 00 	l.sw 0x0(r3),r4
    2ad4:	85 21 00 08 	l.lwz r9,0x8(r1)
    2ad8:	84 41 00 0c 	l.lwz r2,0xc(r1)
    2adc:	85 41 00 10 	l.lwz r10,0x10(r1)
    2ae0:	44 00 48 00 	l.jr r9
    2ae4:	9c 21 00 14 	l.addi r1,r1,0x14

00002ae8 <_FinishApplication>:
    2ae8:	9c 21 ff ec 	l.addi r1,r1,0xffffffec
    2aec:	d4 01 10 0c 	l.sw 0xc(r1),r2
    2af0:	9c 41 00 14 	l.addi r2,r1,0x14
    2af4:	d4 01 48 08 	l.sw 0x8(r1),r9
    2af8:	d4 01 50 10 	l.sw 0x10(r1),r10
    2afc:	9c c0 00 01 	l.addi r6,r0,0x1
    2b00:	9c a0 00 00 	l.addi r5,r0,0x0
    2b04:	18 80 00 01 	l.movhi r4,0x1
    2b08:	a8 84 0f 30 	l.ori r4,r4,0xf30
    2b0c:	84 64 00 00 	l.lwz r3,0x0(r4)
    2b10:	9c a5 00 01 	l.addi r5,r5,0x1
    2b14:	bc 03 00 00 	l.sfeqi r3,0x0
    2b18:	10 00 00 03 	l.bf 2b24 <_FinishApplication+0x3c>
    2b1c:	9c 84 00 04 	l.addi r4,r4,0x4
    2b20:	9c c0 00 00 	l.addi r6,r0,0x0
    2b24:	bc 45 00 03 	l.sfgtui r5,0x3
    2b28:	0f ff ff f9 	l.bnf 2b0c <_FinishApplication+0x24>
    2b2c:	bc 26 00 00 	l.sfnei r6,0x0
    2b30:	0f ff ff f4 	l.bnf 2b00 <_FinishApplication+0x18>
    2b34:	9c c0 00 01 	l.addi r6,r0,0x1
    2b38:	18 80 00 01 	l.movhi r4,0x1
    2b3c:	a8 84 05 a0 	l.ori r4,r4,0x5a0
    2b40:	9c a0 00 01 	l.addi r5,r0,0x1
    2b44:	84 84 00 00 	l.lwz r4,0x0(r4)
    2b48:	18 60 00 01 	l.movhi r3,0x1
    2b4c:	a8 63 00 26 	l.ori r3,r3,0x26
    2b50:	19 40 00 01 	l.movhi r10,0x1
    2b54:	a9 4a 06 94 	l.ori r10,r10,0x694
    2b58:	d4 04 28 00 	l.sw 0x0(r4),r5
    2b5c:	07 ff fa 6a 	l.jal 1504 <_prints>
    2b60:	15 00 00 00 	l.nop 0x0
    2b64:	18 60 00 01 	l.movhi r3,0x1
    2b68:	a8 63 00 47 	l.ori r3,r3,0x47
    2b6c:	07 ff fa 66 	l.jal 1504 <_prints>
    2b70:	15 00 00 00 	l.nop 0x0
    2b74:	84 6a 00 00 	l.lwz r3,0x0(r10)
    2b78:	84 63 00 00 	l.lwz r3,0x0(r3)
    2b7c:	07 ff fa 75 	l.jal 1550 <_printi>
    2b80:	15 00 00 00 	l.nop 0x0
    2b84:	18 60 00 00 	l.movhi r3,0x0
    2b88:	a8 63 fd b1 	l.ori r3,r3,0xfdb1
    2b8c:	07 ff fa 5e 	l.jal 1504 <_prints>
    2b90:	15 00 00 00 	l.nop 0x0
    2b94:	18 60 00 01 	l.movhi r3,0x1
    2b98:	a8 63 00 54 	l.ori r3,r3,0x54
    2b9c:	07 ff fa 5a 	l.jal 1504 <_prints>
    2ba0:	15 00 00 00 	l.nop 0x0
    2ba4:	04 00 02 cf 	l.jal 36e0 <_clock>
    2ba8:	15 00 00 00 	l.nop 0x0
    2bac:	07 ff fa 69 	l.jal 1550 <_printi>
    2bb0:	a8 6b 00 00 	l.ori r3,r11,0x0
    2bb4:	18 60 00 00 	l.movhi r3,0x0
    2bb8:	a8 63 fd b1 	l.ori r3,r3,0xfdb1
    2bbc:	07 ff fa 52 	l.jal 1504 <_prints>
    2bc0:	15 00 00 00 	l.nop 0x0
    2bc4:	18 80 00 01 	l.movhi r4,0x1
    2bc8:	a8 84 00 5c 	l.ori r4,r4,0x5c
    2bcc:	84 6a 00 00 	l.lwz r3,0x0(r10)
    2bd0:	d4 01 20 00 	l.sw 0x0(r1),r4
    2bd4:	84 63 00 00 	l.lwz r3,0x0(r3)
    2bd8:	04 00 04 1c 	l.jal 3c48 <_printf>
    2bdc:	d4 01 18 04 	l.sw 0x4(r1),r3
    2be0:	18 60 00 01 	l.movhi r3,0x1
    2be4:	a8 63 06 84 	l.ori r3,r3,0x684
    2be8:	84 83 00 00 	l.lwz r4,0x0(r3)
    2bec:	18 60 00 01 	l.movhi r3,0x1
    2bf0:	a8 63 06 80 	l.ori r3,r3,0x680
    2bf4:	84 a3 00 00 	l.lwz r5,0x0(r3)
    2bf8:	9c 60 00 ff 	l.addi r3,r0,0xff
    2bfc:	d4 04 18 00 	l.sw 0x0(r4),r3
    2c00:	84 65 00 00 	l.lwz r3,0x0(r5)
    2c04:	bc 03 00 00 	l.sfeqi r3,0x0
    2c08:	10 00 00 06 	l.bf 2c20 <_FinishApplication+0x138>
    2c0c:	a8 85 00 00 	l.ori r4,r5,0x0
    2c10:	84 64 00 00 	l.lwz r3,0x0(r4)
    2c14:	bc 03 00 00 	l.sfeqi r3,0x0
    2c18:	0f ff ff fe 	l.bnf 2c10 <_FinishApplication+0x128>
    2c1c:	15 00 00 00 	l.nop 0x0
    2c20:	07 ff fb e0 	l.jal 1ba0 <_ReportExecutedInstructions>
    2c24:	15 00 00 00 	l.nop 0x0
    2c28:	18 80 00 01 	l.movhi r4,0x1
    2c2c:	a8 84 00 72 	l.ori r4,r4,0x72
    2c30:	84 6a 00 00 	l.lwz r3,0x0(r10)
    2c34:	d4 01 20 00 	l.sw 0x0(r1),r4
    2c38:	84 63 00 00 	l.lwz r3,0x0(r3)
    2c3c:	04 00 04 03 	l.jal 3c48 <_printf>
    2c40:	d4 01 18 04 	l.sw 0x4(r1),r3
    2c44:	85 21 00 08 	l.lwz r9,0x8(r1)
    2c48:	84 41 00 0c 	l.lwz r2,0xc(r1)
    2c4c:	85 41 00 10 	l.lwz r10,0x10(r1)
    2c50:	44 00 48 00 	l.jr r9
    2c54:	9c 21 00 14 	l.addi r1,r1,0x14

00002c58 <_random>:
    2c58:	9c 21 ff fc 	l.addi r1,r1,0xfffffffc
    2c5c:	d4 01 10 00 	l.sw 0x0(r1),r2
    2c60:	9c 41 00 04 	l.addi r2,r1,0x4
    2c64:	19 60 67 0d 	l.movhi r11,0x670d
    2c68:	a9 6b e7 0d 	l.ori r11,r11,0xe70d
    2c6c:	84 41 00 00 	l.lwz r2,0x0(r1)
    2c70:	44 00 48 00 	l.jr r9
    2c74:	9c 21 00 04 	l.addi r1,r1,0x4

00002c78 <_main>:
    2c78:	9c 21 ff f8 	l.addi r1,r1,0xfffffff8
    2c7c:	d4 01 10 04 	l.sw 0x4(r1),r2
    2c80:	9c 41 00 08 	l.addi r2,r1,0x8
    2c84:	d4 01 48 00 	l.sw 0x0(r1),r9
    2c88:	07 ff fc dd 	l.jal 1ffc <_OVP_init>
    2c8c:	15 00 00 00 	l.nop 0x0
    2c90:	07 ff ff 96 	l.jal 2ae8 <_FinishApplication>
    2c94:	15 00 00 00 	l.nop 0x0
    2c98:	9d 60 00 01 	l.addi r11,r0,0x1
    2c9c:	85 21 00 00 	l.lwz r9,0x0(r1)
    2ca0:	84 41 00 04 	l.lwz r2,0x4(r1)
    2ca4:	44 00 48 00 	l.jr r9
    2ca8:	9c 21 00 08 	l.addi r1,r1,0x8

00002cac <_defaultException>:
    2cac:	9c 21 ff f8 	l.addi r1,r1,0xfffffff8
    2cb0:	d4 01 10 04 	l.sw 0x4(r1),r2
    2cb4:	9c 41 00 08 	l.addi r2,r1,0x8
    2cb8:	d4 01 48 00 	l.sw 0x0(r1),r9
    2cbc:	9c 60 00 01 	l.addi r3,r0,0x1
    2cc0:	04 00 03 f1 	l.jal 3c84 <_exit>
    2cc4:	15 00 00 00 	l.nop 0x0
    2cc8:	85 21 00 00 	l.lwz r9,0x0(r1)
    2ccc:	84 41 00 04 	l.lwz r2,0x4(r1)
    2cd0:	44 00 48 00 	l.jr r9
    2cd4:	9c 21 00 08 	l.addi r1,r1,0x8

00002cd8 <_reset>:
    2cd8:	9c 21 ff f0 	l.addi r1,r1,0xfffffff0
    2cdc:	d4 01 10 04 	l.sw 0x4(r1),r2
    2ce0:	9c 41 00 10 	l.addi r2,r1,0x10
    2ce4:	d4 01 48 00 	l.sw 0x0(r1),r9
    2ce8:	9c 60 00 00 	l.addi r3,r0,0x0
    2cec:	18 80 00 01 	l.movhi r4,0x1
    2cf0:	a8 84 06 9c 	l.ori r4,r4,0x69c
    2cf4:	07 ff ff e1 	l.jal 2c78 <_main>
    2cf8:	15 00 00 00 	l.nop 0x0
    2cfc:	d7 e2 5f f8 	l.sw 0xfffffff8(r2),r11
    2d00:	84 62 ff f8 	l.lwz r3,0xfffffff8(r2)
    2d04:	d7 e2 1f fc 	l.sw 0xfffffffc(r2),r3
    2d08:	84 62 ff fc 	l.lwz r3,0xfffffffc(r2)
    2d0c:	04 00 03 de 	l.jal 3c84 <_exit>
    2d10:	15 00 00 00 	l.nop 0x0
    2d14:	85 21 00 00 	l.lwz r9,0x0(r1)
    2d18:	84 41 00 04 	l.lwz r2,0x4(r1)
    2d1c:	44 00 48 00 	l.jr r9
    2d20:	9c 21 00 10 	l.addi r1,r1,0x10

00002d24 <_int_init>:
    2d24:	9c 21 ff bc 	l.addi r1,r1,0xffffffbc
    2d28:	d4 01 10 00 	l.sw 0x0(r1),r2
    2d2c:	9c 41 00 44 	l.addi r2,r1,0x44
    2d30:	9c 60 00 00 	l.addi r3,r0,0x0
    2d34:	d7 e2 1f fc 	l.sw 0xfffffffc(r2),r3
    2d38:	84 82 ff fc 	l.lwz r4,0xfffffffc(r2)
    2d3c:	d7 e2 27 f4 	l.sw 0xfffffff4(r2),r4
    2d40:	84 62 ff f4 	l.lwz r3,0xfffffff4(r2)
    2d44:	bd 43 00 1f 	l.sfgtsi r3,0x1f
    2d48:	10 00 00 30 	l.bf 2e08 <_int_init+0xe4>
    2d4c:	15 00 00 00 	l.nop 0x0
    2d50:	18 80 00 01 	l.movhi r4,0x1
    2d54:	a8 84 48 b0 	l.ori r4,r4,0x48b0
    2d58:	d7 e2 27 f0 	l.sw 0xfffffff0(r2),r4
    2d5c:	84 62 ff fc 	l.lwz r3,0xfffffffc(r2)
    2d60:	d7 e2 1f ec 	l.sw 0xffffffec(r2),r3
    2d64:	84 82 ff ec 	l.lwz r4,0xffffffec(r2)
    2d68:	d7 e2 27 e8 	l.sw 0xffffffe8(r2),r4
    2d6c:	84 62 ff e8 	l.lwz r3,0xffffffe8(r2)
    2d70:	b8 63 00 03 	l.slli r3,r3,0x3
    2d74:	d7 e2 1f e4 	l.sw 0xffffffe4(r2),r3
    2d78:	84 82 ff e4 	l.lwz r4,0xffffffe4(r2)
    2d7c:	84 62 ff f0 	l.lwz r3,0xfffffff0(r2)
    2d80:	e0 84 18 00 	l.add r4,r4,r3
    2d84:	d7 e2 27 e0 	l.sw 0xffffffe0(r2),r4
    2d88:	9c 60 00 00 	l.addi r3,r0,0x0
    2d8c:	84 82 ff e0 	l.lwz r4,0xffffffe0(r2)
    2d90:	d4 04 18 00 	l.sw 0x0(r4),r3
    2d94:	18 80 00 01 	l.movhi r4,0x1
    2d98:	a8 84 48 b0 	l.ori r4,r4,0x48b0
    2d9c:	d7 e2 27 dc 	l.sw 0xffffffdc(r2),r4
    2da0:	84 62 ff fc 	l.lwz r3,0xfffffffc(r2)
    2da4:	d7 e2 1f d8 	l.sw 0xffffffd8(r2),r3
    2da8:	84 82 ff d8 	l.lwz r4,0xffffffd8(r2)
    2dac:	d7 e2 27 d4 	l.sw 0xffffffd4(r2),r4
    2db0:	84 62 ff d4 	l.lwz r3,0xffffffd4(r2)
    2db4:	b8 63 00 03 	l.slli r3,r3,0x3
    2db8:	d7 e2 1f d0 	l.sw 0xffffffd0(r2),r3
    2dbc:	84 82 ff d0 	l.lwz r4,0xffffffd0(r2)
    2dc0:	84 62 ff dc 	l.lwz r3,0xffffffdc(r2)
    2dc4:	e0 84 18 00 	l.add r4,r4,r3
    2dc8:	d7 e2 27 cc 	l.sw 0xffffffcc(r2),r4
    2dcc:	84 82 ff cc 	l.lwz r4,0xffffffcc(r2)
    2dd0:	9c 84 00 04 	l.addi r4,r4,0x4
    2dd4:	d7 e2 27 c8 	l.sw 0xffffffc8(r2),r4
    2dd8:	9c 80 00 00 	l.addi r4,r0,0x0
    2ddc:	84 62 ff c8 	l.lwz r3,0xffffffc8(r2)
    2de0:	d4 03 20 00 	l.sw 0x0(r3),r4
    2de4:	84 62 ff fc 	l.lwz r3,0xfffffffc(r2)
    2de8:	d7 e2 1f c4 	l.sw 0xffffffc4(r2),r3
    2dec:	84 82 ff c4 	l.lwz r4,0xffffffc4(r2)
    2df0:	9c 84 00 01 	l.addi r4,r4,0x1
    2df4:	d7 e2 27 c0 	l.sw 0xffffffc0(r2),r4
    2df8:	84 62 ff c0 	l.lwz r3,0xffffffc0(r2)
    2dfc:	d7 e2 1f fc 	l.sw 0xfffffffc(r2),r3
    2e00:	03 ff ff ce 	l.j 2d38 <_int_init+0x14>
    2e04:	15 00 00 00 	l.nop 0x0
    2e08:	9c 80 00 00 	l.addi r4,r0,0x0
    2e0c:	d7 e2 27 f8 	l.sw 0xfffffff8(r2),r4
    2e10:	85 62 ff f8 	l.lwz r11,0xfffffff8(r2)
    2e14:	84 41 00 00 	l.lwz r2,0x0(r1)
    2e18:	44 00 48 00 	l.jr r9
    2e1c:	9c 21 00 44 	l.addi r1,r1,0x44

00002e20 <_int_add>:
    2e20:	9c 21 ff 8c 	l.addi r1,r1,0xffffff8c
    2e24:	d4 01 10 00 	l.sw 0x0(r1),r2
    2e28:	9c 41 00 74 	l.addi r2,r1,0x74
    2e2c:	d7 e2 1f fc 	l.sw 0xfffffffc(r2),r3
    2e30:	d7 e2 27 f8 	l.sw 0xfffffff8(r2),r4
    2e34:	d7 e2 2f f4 	l.sw 0xfffffff4(r2),r5
    2e38:	84 62 ff fc 	l.lwz r3,0xfffffffc(r2)
    2e3c:	d7 e2 1f e4 	l.sw 0xffffffe4(r2),r3
    2e40:	84 82 ff e4 	l.lwz r4,0xffffffe4(r2)
    2e44:	bc a4 00 1f 	l.sfleui r4,0x1f
    2e48:	10 00 00 06 	l.bf 2e60 <_int_add+0x40>
    2e4c:	15 00 00 00 	l.nop 0x0
    2e50:	9c 60 ff ff 	l.addi r3,r0,0xffffffff
    2e54:	d7 e2 1f e8 	l.sw 0xffffffe8(r2),r3
    2e58:	00 00 00 49 	l.j 2f7c <_int_add+0x15c>
    2e5c:	15 00 00 00 	l.nop 0x0
    2e60:	18 80 00 01 	l.movhi r4,0x1
    2e64:	a8 84 48 b0 	l.ori r4,r4,0x48b0
    2e68:	d7 e2 27 e0 	l.sw 0xffffffe0(r2),r4
    2e6c:	84 62 ff fc 	l.lwz r3,0xfffffffc(r2)
    2e70:	d7 e2 1f dc 	l.sw 0xffffffdc(r2),r3
    2e74:	84 82 ff dc 	l.lwz r4,0xffffffdc(r2)
    2e78:	d7 e2 27 d8 	l.sw 0xffffffd8(r2),r4
    2e7c:	84 62 ff d8 	l.lwz r3,0xffffffd8(r2)
    2e80:	b8 63 00 03 	l.slli r3,r3,0x3
    2e84:	d7 e2 1f d4 	l.sw 0xffffffd4(r2),r3
    2e88:	84 82 ff d4 	l.lwz r4,0xffffffd4(r2)
    2e8c:	84 62 ff e0 	l.lwz r3,0xffffffe0(r2)
    2e90:	e0 84 18 00 	l.add r4,r4,r3
    2e94:	d7 e2 27 d0 	l.sw 0xffffffd0(r2),r4
    2e98:	84 62 ff f8 	l.lwz r3,0xfffffff8(r2)
    2e9c:	84 82 ff d0 	l.lwz r4,0xffffffd0(r2)
    2ea0:	d4 04 18 00 	l.sw 0x0(r4),r3
    2ea4:	18 80 00 01 	l.movhi r4,0x1
    2ea8:	a8 84 48 b0 	l.ori r4,r4,0x48b0
    2eac:	d7 e2 27 cc 	l.sw 0xffffffcc(r2),r4
    2eb0:	84 62 ff fc 	l.lwz r3,0xfffffffc(r2)
    2eb4:	d7 e2 1f c8 	l.sw 0xffffffc8(r2),r3
    2eb8:	84 82 ff c8 	l.lwz r4,0xffffffc8(r2)
    2ebc:	d7 e2 27 c4 	l.sw 0xffffffc4(r2),r4
    2ec0:	84 62 ff c4 	l.lwz r3,0xffffffc4(r2)
    2ec4:	b8 63 00 03 	l.slli r3,r3,0x3
    2ec8:	d7 e2 1f c0 	l.sw 0xffffffc0(r2),r3
    2ecc:	84 82 ff c0 	l.lwz r4,0xffffffc0(r2)
    2ed0:	84 62 ff cc 	l.lwz r3,0xffffffcc(r2)
    2ed4:	e0 84 18 00 	l.add r4,r4,r3
    2ed8:	d7 e2 27 bc 	l.sw 0xffffffbc(r2),r4
    2edc:	84 82 ff bc 	l.lwz r4,0xffffffbc(r2)
    2ee0:	9c 84 00 04 	l.addi r4,r4,0x4
    2ee4:	d7 e2 27 b8 	l.sw 0xffffffb8(r2),r4
    2ee8:	84 82 ff f4 	l.lwz r4,0xfffffff4(r2)
    2eec:	84 62 ff b8 	l.lwz r3,0xffffffb8(r2)
    2ef0:	d4 03 20 00 	l.sw 0x0(r3),r4
    2ef4:	9c 60 48 00 	l.addi r3,r0,0x4800
    2ef8:	d7 e2 1f b0 	l.sw 0xffffffb0(r2),r3
    2efc:	84 82 ff b0 	l.lwz r4,0xffffffb0(r2)
    2f00:	b4 84 00 00 	l.mfspr r4,r4,0x0
    2f04:	d7 e2 27 b4 	l.sw 0xffffffb4(r2),r4
    2f08:	84 62 ff b4 	l.lwz r3,0xffffffb4(r2)
    2f0c:	d7 e2 1f ac 	l.sw 0xffffffac(r2),r3
    2f10:	84 82 ff ac 	l.lwz r4,0xffffffac(r2)
    2f14:	d7 e2 27 ec 	l.sw 0xffffffec(r2),r4
    2f18:	84 62 ff ec 	l.lwz r3,0xffffffec(r2)
    2f1c:	d7 e2 1f a8 	l.sw 0xffffffa8(r2),r3
    2f20:	9c 80 00 01 	l.addi r4,r0,0x1
    2f24:	d7 e2 27 a0 	l.sw 0xffffffa0(r2),r4
    2f28:	84 62 ff fc 	l.lwz r3,0xfffffffc(r2)
    2f2c:	d7 e2 1f 9c 	l.sw 0xffffff9c(r2),r3
    2f30:	84 82 ff a0 	l.lwz r4,0xffffffa0(r2)
    2f34:	84 62 ff 9c 	l.lwz r3,0xffffff9c(r2)
    2f38:	e0 84 18 08 	l.sll r4,r4,r3
    2f3c:	d7 e2 27 a4 	l.sw 0xffffffa4(r2),r4
    2f40:	84 82 ff a8 	l.lwz r4,0xffffffa8(r2)
    2f44:	84 62 ff a4 	l.lwz r3,0xffffffa4(r2)
    2f48:	e0 84 18 04 	l.or r4,r4,r3
    2f4c:	d7 e2 27 98 	l.sw 0xffffff98(r2),r4
    2f50:	84 82 ff 98 	l.lwz r4,0xffffff98(r2)
    2f54:	d7 e2 27 f0 	l.sw 0xfffffff0(r2),r4
    2f58:	9c 60 48 00 	l.addi r3,r0,0x4800
    2f5c:	d7 e2 1f 94 	l.sw 0xffffff94(r2),r3
    2f60:	84 82 ff f0 	l.lwz r4,0xfffffff0(r2)
    2f64:	d7 e2 27 90 	l.sw 0xffffff90(r2),r4
    2f68:	84 62 ff 94 	l.lwz r3,0xffffff94(r2)
    2f6c:	84 82 ff 90 	l.lwz r4,0xffffff90(r2)
    2f70:	c0 03 20 00 	l.mtspr r3,r4,0x0
    2f74:	9c 60 00 00 	l.addi r3,r0,0x0
    2f78:	d7 e2 1f e8 	l.sw 0xffffffe8(r2),r3
    2f7c:	85 62 ff e8 	l.lwz r11,0xffffffe8(r2)
    2f80:	84 41 00 00 	l.lwz r2,0x0(r1)
    2f84:	44 00 48 00 	l.jr r9
    2f88:	9c 21 00 74 	l.addi r1,r1,0x74

00002f8c <_int_disable>:
    2f8c:	9c 21 ff bc 	l.addi r1,r1,0xffffffbc
    2f90:	d4 01 10 00 	l.sw 0x0(r1),r2
    2f94:	9c 41 00 44 	l.addi r2,r1,0x44
    2f98:	d7 e2 1f fc 	l.sw 0xfffffffc(r2),r3
    2f9c:	84 62 ff fc 	l.lwz r3,0xfffffffc(r2)
    2fa0:	d7 e2 1f ec 	l.sw 0xffffffec(r2),r3
    2fa4:	84 82 ff ec 	l.lwz r4,0xffffffec(r2)
    2fa8:	bc a4 00 1f 	l.sfleui r4,0x1f
    2fac:	10 00 00 06 	l.bf 2fc4 <_int_disable+0x38>
    2fb0:	15 00 00 00 	l.nop 0x0
    2fb4:	9c 60 ff ff 	l.addi r3,r0,0xffffffff
    2fb8:	d7 e2 1f f0 	l.sw 0xfffffff0(r2),r3
    2fbc:	00 00 00 27 	l.j 3058 <_int_disable+0xcc>
    2fc0:	15 00 00 00 	l.nop 0x0
    2fc4:	9c 80 48 00 	l.addi r4,r0,0x4800
    2fc8:	d7 e2 27 e4 	l.sw 0xffffffe4(r2),r4
    2fcc:	84 62 ff e4 	l.lwz r3,0xffffffe4(r2)
    2fd0:	b4 63 00 00 	l.mfspr r3,r3,0x0
    2fd4:	d7 e2 1f e8 	l.sw 0xffffffe8(r2),r3
    2fd8:	84 82 ff e8 	l.lwz r4,0xffffffe8(r2)
    2fdc:	d7 e2 27 e0 	l.sw 0xffffffe0(r2),r4
    2fe0:	84 62 ff e0 	l.lwz r3,0xffffffe0(r2)
    2fe4:	d7 e2 1f f4 	l.sw 0xfffffff4(r2),r3
    2fe8:	84 82 ff f4 	l.lwz r4,0xfffffff4(r2)
    2fec:	d7 e2 27 dc 	l.sw 0xffffffdc(r2),r4
    2ff0:	9c 60 00 01 	l.addi r3,r0,0x1
    2ff4:	d7 e2 1f d4 	l.sw 0xffffffd4(r2),r3
    2ff8:	84 82 ff fc 	l.lwz r4,0xfffffffc(r2)
    2ffc:	d7 e2 27 d0 	l.sw 0xffffffd0(r2),r4
    3000:	84 62 ff d4 	l.lwz r3,0xffffffd4(r2)
    3004:	84 82 ff d0 	l.lwz r4,0xffffffd0(r2)
    3008:	e0 63 20 08 	l.sll r3,r3,r4
    300c:	d7 e2 1f d8 	l.sw 0xffffffd8(r2),r3
    3010:	84 62 ff d8 	l.lwz r3,0xffffffd8(r2)
    3014:	ac 63 ff ff 	l.xori r3,r3,0xffffffff
    3018:	d7 e2 1f cc 	l.sw 0xffffffcc(r2),r3
    301c:	84 82 ff dc 	l.lwz r4,0xffffffdc(r2)
    3020:	84 62 ff cc 	l.lwz r3,0xffffffcc(r2)
    3024:	e0 84 18 03 	l.and r4,r4,r3
    3028:	d7 e2 27 c8 	l.sw 0xffffffc8(r2),r4
    302c:	84 82 ff c8 	l.lwz r4,0xffffffc8(r2)
    3030:	d7 e2 27 f8 	l.sw 0xfffffff8(r2),r4
    3034:	9c 60 48 00 	l.addi r3,r0,0x4800
    3038:	d7 e2 1f c4 	l.sw 0xffffffc4(r2),r3
    303c:	84 82 ff f8 	l.lwz r4,0xfffffff8(r2)
    3040:	d7 e2 27 c0 	l.sw 0xffffffc0(r2),r4
    3044:	84 62 ff c4 	l.lwz r3,0xffffffc4(r2)
    3048:	84 82 ff c0 	l.lwz r4,0xffffffc0(r2)
    304c:	c0 03 20 00 	l.mtspr r3,r4,0x0
    3050:	9c 60 00 00 	l.addi r3,r0,0x0
    3054:	d7 e2 1f f0 	l.sw 0xfffffff0(r2),r3
    3058:	85 62 ff f0 	l.lwz r11,0xfffffff0(r2)
    305c:	84 41 00 00 	l.lwz r2,0x0(r1)
    3060:	44 00 48 00 	l.jr r9
    3064:	9c 21 00 44 	l.addi r1,r1,0x44

00003068 <_int_enable>:
    3068:	9c 21 ff c0 	l.addi r1,r1,0xffffffc0
    306c:	d4 01 10 00 	l.sw 0x0(r1),r2
    3070:	9c 41 00 40 	l.addi r2,r1,0x40
    3074:	d7 e2 1f fc 	l.sw 0xfffffffc(r2),r3
    3078:	84 62 ff fc 	l.lwz r3,0xfffffffc(r2)
    307c:	d7 e2 1f ec 	l.sw 0xffffffec(r2),r3
    3080:	84 82 ff ec 	l.lwz r4,0xffffffec(r2)
    3084:	bc a4 00 1f 	l.sfleui r4,0x1f
    3088:	10 00 00 06 	l.bf 30a0 <_int_enable+0x38>
    308c:	15 00 00 00 	l.nop 0x0
    3090:	9c 60 ff ff 	l.addi r3,r0,0xffffffff
    3094:	d7 e2 1f f0 	l.sw 0xfffffff0(r2),r3
    3098:	00 00 00 24 	l.j 3128 <_int_enable+0xc0>
    309c:	15 00 00 00 	l.nop 0x0
    30a0:	9c 80 48 00 	l.addi r4,r0,0x4800
    30a4:	d7 e2 27 e4 	l.sw 0xffffffe4(r2),r4
    30a8:	84 62 ff e4 	l.lwz r3,0xffffffe4(r2)
    30ac:	b4 63 00 00 	l.mfspr r3,r3,0x0
    30b0:	d7 e2 1f e8 	l.sw 0xffffffe8(r2),r3
    30b4:	84 82 ff e8 	l.lwz r4,0xffffffe8(r2)
    30b8:	d7 e2 27 e0 	l.sw 0xffffffe0(r2),r4
    30bc:	84 62 ff e0 	l.lwz r3,0xffffffe0(r2)
    30c0:	d7 e2 1f f4 	l.sw 0xfffffff4(r2),r3
    30c4:	84 82 ff f4 	l.lwz r4,0xfffffff4(r2)
    30c8:	d7 e2 27 dc 	l.sw 0xffffffdc(r2),r4
    30cc:	9c 60 00 01 	l.addi r3,r0,0x1
    30d0:	d7 e2 1f d4 	l.sw 0xffffffd4(r2),r3
    30d4:	84 82 ff fc 	l.lwz r4,0xfffffffc(r2)
    30d8:	d7 e2 27 d0 	l.sw 0xffffffd0(r2),r4
    30dc:	84 62 ff d4 	l.lwz r3,0xffffffd4(r2)
    30e0:	84 82 ff d0 	l.lwz r4,0xffffffd0(r2)
    30e4:	e0 63 20 08 	l.sll r3,r3,r4
    30e8:	d7 e2 1f d8 	l.sw 0xffffffd8(r2),r3
    30ec:	84 62 ff dc 	l.lwz r3,0xffffffdc(r2)
    30f0:	84 82 ff d8 	l.lwz r4,0xffffffd8(r2)
    30f4:	e0 63 20 04 	l.or r3,r3,r4
    30f8:	d7 e2 1f cc 	l.sw 0xffffffcc(r2),r3
    30fc:	84 62 ff cc 	l.lwz r3,0xffffffcc(r2)
    3100:	d7 e2 1f f8 	l.sw 0xfffffff8(r2),r3
    3104:	9c 80 48 00 	l.addi r4,r0,0x4800
    3108:	d7 e2 27 c8 	l.sw 0xffffffc8(r2),r4
    310c:	84 62 ff f8 	l.lwz r3,0xfffffff8(r2)
    3110:	d7 e2 1f c4 	l.sw 0xffffffc4(r2),r3
    3114:	84 82 ff c8 	l.lwz r4,0xffffffc8(r2)
    3118:	84 62 ff c4 	l.lwz r3,0xffffffc4(r2)
    311c:	c0 04 18 00 	l.mtspr r4,r3,0x0
    3120:	9c 80 00 00 	l.addi r4,r0,0x0
    3124:	d7 e2 27 f0 	l.sw 0xfffffff0(r2),r4
    3128:	85 62 ff f0 	l.lwz r11,0xfffffff0(r2)
    312c:	84 41 00 00 	l.lwz r2,0x0(r1)
    3130:	44 00 48 00 	l.jr r9
    3134:	9c 21 00 40 	l.addi r1,r1,0x40

00003138 <_int_main>:
    3138:	9c 21 ff 3c 	l.addi r1,r1,0xffffff3c
    313c:	d4 01 10 04 	l.sw 0x4(r1),r2
    3140:	9c 41 00 c4 	l.addi r2,r1,0xc4
    3144:	d4 01 48 00 	l.sw 0x0(r1),r9
    3148:	9c 60 48 02 	l.addi r3,r0,0x4802
    314c:	d7 e2 1f e8 	l.sw 0xffffffe8(r2),r3
    3150:	84 82 ff e8 	l.lwz r4,0xffffffe8(r2)
    3154:	b4 84 00 00 	l.mfspr r4,r4,0x0
    3158:	d7 e2 27 ec 	l.sw 0xffffffec(r2),r4
    315c:	84 62 ff ec 	l.lwz r3,0xffffffec(r2)
    3160:	d7 e2 1f e4 	l.sw 0xffffffe4(r2),r3
    3164:	84 82 ff e4 	l.lwz r4,0xffffffe4(r2)
    3168:	d7 e2 27 f8 	l.sw 0xfffffff8(r2),r4
    316c:	84 62 ff f8 	l.lwz r3,0xfffffff8(r2)
    3170:	d7 e2 1f e0 	l.sw 0xffffffe0(r2),r3
    3174:	84 82 ff e0 	l.lwz r4,0xffffffe0(r2)
    3178:	d7 e2 27 fc 	l.sw 0xfffffffc(r2),r4
    317c:	9c 60 00 00 	l.addi r3,r0,0x0
    3180:	d7 e2 1f f8 	l.sw 0xfffffff8(r2),r3
    3184:	9c 80 00 00 	l.addi r4,r0,0x0
    3188:	d7 e2 27 f4 	l.sw 0xfffffff4(r2),r4
    318c:	9c 60 48 02 	l.addi r3,r0,0x4802
    3190:	d7 e2 1f dc 	l.sw 0xffffffdc(r2),r3
    3194:	84 82 ff f4 	l.lwz r4,0xfffffff4(r2)
    3198:	d7 e2 27 d8 	l.sw 0xffffffd8(r2),r4
    319c:	84 62 ff dc 	l.lwz r3,0xffffffdc(r2)
    31a0:	84 82 ff d8 	l.lwz r4,0xffffffd8(r2)
    31a4:	c0 03 20 00 	l.mtspr r3,r4,0x0
    31a8:	84 62 ff f8 	l.lwz r3,0xfffffff8(r2)
    31ac:	d7 e2 1f d4 	l.sw 0xffffffd4(r2),r3
    31b0:	84 82 ff d4 	l.lwz r4,0xffffffd4(r2)
    31b4:	bc 44 00 1f 	l.sfgtui r4,0x1f
    31b8:	10 00 00 7c 	l.bf 33a8 <_int_main+0x270>
    31bc:	15 00 00 00 	l.nop 0x0
    31c0:	9c 60 00 01 	l.addi r3,r0,0x1
    31c4:	d7 e2 1f cc 	l.sw 0xffffffcc(r2),r3
    31c8:	84 82 ff f8 	l.lwz r4,0xfffffff8(r2)
    31cc:	d7 e2 27 c8 	l.sw 0xffffffc8(r2),r4
    31d0:	84 62 ff cc 	l.lwz r3,0xffffffcc(r2)
    31d4:	84 82 ff c8 	l.lwz r4,0xffffffc8(r2)
    31d8:	e0 63 20 08 	l.sll r3,r3,r4
    31dc:	d7 e2 1f d0 	l.sw 0xffffffd0(r2),r3
    31e0:	84 62 ff fc 	l.lwz r3,0xfffffffc(r2)
    31e4:	d7 e2 1f c0 	l.sw 0xffffffc0(r2),r3
    31e8:	84 82 ff d0 	l.lwz r4,0xffffffd0(r2)
    31ec:	84 62 ff c0 	l.lwz r3,0xffffffc0(r2)
    31f0:	e0 84 18 03 	l.and r4,r4,r3
    31f4:	d7 e2 27 c4 	l.sw 0xffffffc4(r2),r4
    31f8:	84 82 ff c4 	l.lwz r4,0xffffffc4(r2)
    31fc:	bc 04 00 00 	l.sfeqi r4,0x0
    3200:	10 00 00 61 	l.bf 3384 <_int_main+0x24c>
    3204:	15 00 00 00 	l.nop 0x0
    3208:	18 60 00 01 	l.movhi r3,0x1
    320c:	a8 63 48 b0 	l.ori r3,r3,0x48b0
    3210:	d7 e2 1f bc 	l.sw 0xffffffbc(r2),r3
    3214:	84 82 ff f8 	l.lwz r4,0xfffffff8(r2)
    3218:	d7 e2 27 b8 	l.sw 0xffffffb8(r2),r4
    321c:	84 62 ff b8 	l.lwz r3,0xffffffb8(r2)
    3220:	d7 e2 1f b4 	l.sw 0xffffffb4(r2),r3
    3224:	84 82 ff b4 	l.lwz r4,0xffffffb4(r2)
    3228:	b8 84 00 03 	l.slli r4,r4,0x3
    322c:	d7 e2 27 b0 	l.sw 0xffffffb0(r2),r4
    3230:	84 62 ff b0 	l.lwz r3,0xffffffb0(r2)
    3234:	84 82 ff bc 	l.lwz r4,0xffffffbc(r2)
    3238:	e0 63 20 00 	l.add r3,r3,r4
    323c:	d7 e2 1f ac 	l.sw 0xffffffac(r2),r3
    3240:	84 62 ff ac 	l.lwz r3,0xffffffac(r2)
    3244:	84 63 00 00 	l.lwz r3,0x0(r3)
    3248:	d7 e2 1f a8 	l.sw 0xffffffa8(r2),r3
    324c:	84 82 ff a8 	l.lwz r4,0xffffffa8(r2)
    3250:	bc 04 00 00 	l.sfeqi r4,0x0
    3254:	10 00 00 4c 	l.bf 3384 <_int_main+0x24c>
    3258:	15 00 00 00 	l.nop 0x0
    325c:	18 60 00 01 	l.movhi r3,0x1
    3260:	a8 63 48 b0 	l.ori r3,r3,0x48b0
    3264:	d7 e2 1f a4 	l.sw 0xffffffa4(r2),r3
    3268:	84 82 ff f8 	l.lwz r4,0xfffffff8(r2)
    326c:	d7 e2 27 a0 	l.sw 0xffffffa0(r2),r4
    3270:	84 62 ff a0 	l.lwz r3,0xffffffa0(r2)
    3274:	d7 e2 1f 9c 	l.sw 0xffffff9c(r2),r3
    3278:	84 82 ff 9c 	l.lwz r4,0xffffff9c(r2)
    327c:	b8 84 00 03 	l.slli r4,r4,0x3
    3280:	d7 e2 27 98 	l.sw 0xffffff98(r2),r4
    3284:	84 62 ff 98 	l.lwz r3,0xffffff98(r2)
    3288:	84 82 ff a4 	l.lwz r4,0xffffffa4(r2)
    328c:	e0 63 20 00 	l.add r3,r3,r4
    3290:	d7 e2 1f 94 	l.sw 0xffffff94(r2),r3
    3294:	18 60 00 01 	l.movhi r3,0x1
    3298:	a8 63 48 b0 	l.ori r3,r3,0x48b0
    329c:	d7 e2 1f 90 	l.sw 0xffffff90(r2),r3
    32a0:	84 82 ff f8 	l.lwz r4,0xfffffff8(r2)
    32a4:	d7 e2 27 8c 	l.sw 0xffffff8c(r2),r4
    32a8:	84 62 ff 8c 	l.lwz r3,0xffffff8c(r2)
    32ac:	d7 e2 1f 88 	l.sw 0xffffff88(r2),r3
    32b0:	84 82 ff 88 	l.lwz r4,0xffffff88(r2)
    32b4:	b8 84 00 03 	l.slli r4,r4,0x3
    32b8:	d7 e2 27 84 	l.sw 0xffffff84(r2),r4
    32bc:	84 62 ff 84 	l.lwz r3,0xffffff84(r2)
    32c0:	84 82 ff 90 	l.lwz r4,0xffffff90(r2)
    32c4:	e0 63 20 00 	l.add r3,r3,r4
    32c8:	d7 e2 1f 80 	l.sw 0xffffff80(r2),r3
    32cc:	84 62 ff 80 	l.lwz r3,0xffffff80(r2)
    32d0:	9c 63 00 04 	l.addi r3,r3,0x4
    32d4:	d7 e2 1f 7c 	l.sw 0xffffff7c(r2),r3
    32d8:	84 82 ff 94 	l.lwz r4,0xffffff94(r2)
    32dc:	84 84 00 00 	l.lwz r4,0x0(r4)
    32e0:	d7 e2 27 78 	l.sw 0xffffff78(r2),r4
    32e4:	84 82 ff 7c 	l.lwz r4,0xffffff7c(r2)
    32e8:	84 64 00 00 	l.lwz r3,0x0(r4)
    32ec:	84 82 ff 78 	l.lwz r4,0xffffff78(r2)
    32f0:	48 00 20 00 	l.jalr r4
    32f4:	15 00 00 00 	l.nop 0x0
    32f8:	9c 60 48 02 	l.addi r3,r0,0x4802
    32fc:	d7 e2 1f 70 	l.sw 0xffffff70(r2),r3
    3300:	84 82 ff 70 	l.lwz r4,0xffffff70(r2)
    3304:	b4 84 00 00 	l.mfspr r4,r4,0x0
    3308:	d7 e2 27 74 	l.sw 0xffffff74(r2),r4
    330c:	84 62 ff 74 	l.lwz r3,0xffffff74(r2)
    3310:	d7 e2 1f 6c 	l.sw 0xffffff6c(r2),r3
    3314:	84 82 ff 6c 	l.lwz r4,0xffffff6c(r2)
    3318:	d7 e2 27 f0 	l.sw 0xfffffff0(r2),r4
    331c:	84 62 ff f0 	l.lwz r3,0xfffffff0(r2)
    3320:	d7 e2 1f 68 	l.sw 0xffffff68(r2),r3
    3324:	9c 80 00 01 	l.addi r4,r0,0x1
    3328:	d7 e2 27 60 	l.sw 0xffffff60(r2),r4
    332c:	84 62 ff f8 	l.lwz r3,0xfffffff8(r2)
    3330:	d7 e2 1f 5c 	l.sw 0xffffff5c(r2),r3
    3334:	84 82 ff 60 	l.lwz r4,0xffffff60(r2)
    3338:	84 62 ff 5c 	l.lwz r3,0xffffff5c(r2)
    333c:	e0 84 18 08 	l.sll r4,r4,r3
    3340:	d7 e2 27 64 	l.sw 0xffffff64(r2),r4
    3344:	84 82 ff 64 	l.lwz r4,0xffffff64(r2)
    3348:	ac 84 ff ff 	l.xori r4,r4,0xffffffff
    334c:	d7 e2 27 58 	l.sw 0xffffff58(r2),r4
    3350:	84 62 ff 68 	l.lwz r3,0xffffff68(r2)
    3354:	84 82 ff 58 	l.lwz r4,0xffffff58(r2)
    3358:	e0 63 20 03 	l.and r3,r3,r4
    335c:	d7 e2 1f 54 	l.sw 0xffffff54(r2),r3
    3360:	84 62 ff 54 	l.lwz r3,0xffffff54(r2)
    3364:	d7 e2 1f f4 	l.sw 0xfffffff4(r2),r3
    3368:	9c 80 48 02 	l.addi r4,r0,0x4802
    336c:	d7 e2 27 50 	l.sw 0xffffff50(r2),r4
    3370:	84 62 ff f4 	l.lwz r3,0xfffffff4(r2)
    3374:	d7 e2 1f 4c 	l.sw 0xffffff4c(r2),r3
    3378:	84 82 ff 50 	l.lwz r4,0xffffff50(r2)
    337c:	84 62 ff 4c 	l.lwz r3,0xffffff4c(r2)
    3380:	c0 04 18 00 	l.mtspr r4,r3,0x0
    3384:	84 82 ff f8 	l.lwz r4,0xfffffff8(r2)
    3388:	d7 e2 27 48 	l.sw 0xffffff48(r2),r4
    338c:	84 62 ff 48 	l.lwz r3,0xffffff48(r2)
    3390:	9c 63 00 01 	l.addi r3,r3,0x1
    3394:	d7 e2 1f 44 	l.sw 0xffffff44(r2),r3
    3398:	84 82 ff 44 	l.lwz r4,0xffffff44(r2)
    339c:	d7 e2 27 f8 	l.sw 0xfffffff8(r2),r4
    33a0:	03 ff ff 82 	l.j 31a8 <_int_main+0x70>
    33a4:	15 00 00 00 	l.nop 0x0
    33a8:	85 21 00 00 	l.lwz r9,0x0(r1)
    33ac:	84 41 00 04 	l.lwz r2,0x4(r1)
    33b0:	44 00 48 00 	l.jr r9
    33b4:	9c 21 00 c4 	l.addi r1,r1,0xc4

000033b8 <_impProcessorId>:
    33b8:	9c 21 ff ec 	l.addi r1,r1,0xffffffec
    33bc:	d4 01 10 0c 	l.sw 0xc(r1),r2
    33c0:	9c 41 00 14 	l.addi r2,r1,0x14
    33c4:	d4 01 48 08 	l.sw 0x8(r1),r9
    33c8:	18 60 00 01 	l.movhi r3,0x1
    33cc:	a8 63 00 a6 	l.ori r3,r3,0xa6
    33d0:	d4 01 18 00 	l.sw 0x0(r1),r3
    33d4:	18 60 00 01 	l.movhi r3,0x1
    33d8:	a8 63 00 97 	l.ori r3,r3,0x97
    33dc:	d4 01 18 04 	l.sw 0x4(r1),r3
    33e0:	04 00 02 1a 	l.jal 3c48 <_printf>
    33e4:	15 00 00 00 	l.nop 0x0
    33e8:	9c 60 00 00 	l.addi r3,r0,0x0
    33ec:	d7 e2 1f fc 	l.sw 0xfffffffc(r2),r3
    33f0:	85 62 ff fc 	l.lwz r11,0xfffffffc(r2)
    33f4:	85 21 00 08 	l.lwz r9,0x8(r1)
    33f8:	84 41 00 0c 	l.lwz r2,0xc(r1)
    33fc:	44 00 48 00 	l.jr r9
    3400:	9c 21 00 14 	l.addi r1,r1,0x14

00003404 <_impProcessorInstructionCount>:
    3404:	9c 21 ff ec 	l.addi r1,r1,0xffffffec
    3408:	d4 01 10 0c 	l.sw 0xc(r1),r2
    340c:	9c 41 00 14 	l.addi r2,r1,0x14
    3410:	d4 01 48 08 	l.sw 0x8(r1),r9
    3414:	18 60 00 01 	l.movhi r3,0x1
    3418:	a8 63 00 a6 	l.ori r3,r3,0xa6
    341c:	d4 01 18 00 	l.sw 0x0(r1),r3
    3420:	18 60 00 01 	l.movhi r3,0x1
    3424:	a8 63 01 10 	l.ori r3,r3,0x110
    3428:	d4 01 18 04 	l.sw 0x4(r1),r3
    342c:	04 00 02 07 	l.jal 3c48 <_printf>
    3430:	15 00 00 00 	l.nop 0x0
    3434:	9c 60 00 00 	l.addi r3,r0,0x0
    3438:	d7 e2 1f fc 	l.sw 0xfffffffc(r2),r3
    343c:	85 62 ff fc 	l.lwz r11,0xfffffffc(r2)
    3440:	85 21 00 08 	l.lwz r9,0x8(r1)
    3444:	84 41 00 0c 	l.lwz r2,0xc(r1)
    3448:	44 00 48 00 	l.jr r9
    344c:	9c 21 00 14 	l.addi r1,r1,0x14

00003450 <_impReport>:
    3450:	9c 21 ff ec 	l.addi r1,r1,0xffffffec
    3454:	d4 01 10 0c 	l.sw 0xc(r1),r2
    3458:	9c 41 00 14 	l.addi r2,r1,0x14
    345c:	d4 01 48 08 	l.sw 0x8(r1),r9
    3460:	d7 e2 1f fc 	l.sw 0xfffffffc(r2),r3
    3464:	18 60 00 01 	l.movhi r3,0x1
    3468:	a8 63 00 a6 	l.ori r3,r3,0xa6
    346c:	d4 01 18 00 	l.sw 0x0(r1),r3
    3470:	18 60 00 01 	l.movhi r3,0x1
    3474:	a8 63 01 2d 	l.ori r3,r3,0x12d
    3478:	d4 01 18 04 	l.sw 0x4(r1),r3
    347c:	04 00 01 f3 	l.jal 3c48 <_printf>
    3480:	15 00 00 00 	l.nop 0x0
    3484:	85 21 00 08 	l.lwz r9,0x8(r1)
    3488:	84 41 00 0c 	l.lwz r2,0xc(r1)
    348c:	44 00 48 00 	l.jr r9
    3490:	9c 21 00 14 	l.addi r1,r1,0x14

00003494 <_impExchange>:
    3494:	9c 21 ff e8 	l.addi r1,r1,0xffffffe8
    3498:	d4 01 10 0c 	l.sw 0xc(r1),r2
    349c:	9c 41 00 18 	l.addi r2,r1,0x18
    34a0:	d4 01 48 08 	l.sw 0x8(r1),r9
    34a4:	d7 e2 1f fc 	l.sw 0xfffffffc(r2),r3
    34a8:	d7 e2 27 f8 	l.sw 0xfffffff8(r2),r4
    34ac:	18 60 00 01 	l.movhi r3,0x1
    34b0:	a8 63 00 a6 	l.ori r3,r3,0xa6
    34b4:	d4 01 18 00 	l.sw 0x0(r1),r3
    34b8:	18 60 00 01 	l.movhi r3,0x1
    34bc:	a8 63 01 37 	l.ori r3,r3,0x137
    34c0:	d4 01 18 04 	l.sw 0x4(r1),r3
    34c4:	04 00 01 e1 	l.jal 3c48 <_printf>
    34c8:	15 00 00 00 	l.nop 0x0
    34cc:	85 21 00 08 	l.lwz r9,0x8(r1)
    34d0:	84 41 00 0c 	l.lwz r2,0xc(r1)
    34d4:	44 00 48 00 	l.jr r9
    34d8:	9c 21 00 18 	l.addi r1,r1,0x18

000034dc <_impHalt>:
    34dc:	9c 21 ff f0 	l.addi r1,r1,0xfffffff0
    34e0:	d4 01 10 0c 	l.sw 0xc(r1),r2
    34e4:	9c 41 00 10 	l.addi r2,r1,0x10
    34e8:	d4 01 48 08 	l.sw 0x8(r1),r9
    34ec:	18 60 00 01 	l.movhi r3,0x1
    34f0:	a8 63 00 a6 	l.ori r3,r3,0xa6
    34f4:	d4 01 18 00 	l.sw 0x0(r1),r3
    34f8:	18 60 00 01 	l.movhi r3,0x1
    34fc:	a8 63 01 43 	l.ori r3,r3,0x143
    3500:	d4 01 18 04 	l.sw 0x4(r1),r3
    3504:	04 00 01 d1 	l.jal 3c48 <_printf>
    3508:	15 00 00 00 	l.nop 0x0
    350c:	85 21 00 08 	l.lwz r9,0x8(r1)
    3510:	84 41 00 0c 	l.lwz r2,0xc(r1)
    3514:	44 00 48 00 	l.jr r9
    3518:	9c 21 00 10 	l.addi r1,r1,0x10

0000351c <_impFinish>:
    351c:	9c 21 ff f0 	l.addi r1,r1,0xfffffff0
    3520:	d4 01 10 0c 	l.sw 0xc(r1),r2
    3524:	9c 41 00 10 	l.addi r2,r1,0x10
    3528:	d4 01 48 08 	l.sw 0x8(r1),r9
    352c:	18 60 00 01 	l.movhi r3,0x1
    3530:	a8 63 00 a6 	l.ori r3,r3,0xa6
    3534:	d4 01 18 00 	l.sw 0x0(r1),r3
    3538:	18 60 00 01 	l.movhi r3,0x1
    353c:	a8 63 01 4b 	l.ori r3,r3,0x14b
    3540:	d4 01 18 04 	l.sw 0x4(r1),r3
    3544:	04 00 01 c1 	l.jal 3c48 <_printf>
    3548:	15 00 00 00 	l.nop 0x0
    354c:	00 00 00 00 	l.j 354c <_impFinish+0x30>
    3550:	15 00 00 00 	l.nop 0x0
    3554:	85 21 00 08 	l.lwz r9,0x8(r1)
    3558:	84 41 00 0c 	l.lwz r2,0xc(r1)
    355c:	44 00 48 00 	l.jr r9
    3560:	9c 21 00 10 	l.addi r1,r1,0x10

00003564 <_impMpSync>:
    3564:	9c 21 ff f0 	l.addi r1,r1,0xfffffff0
    3568:	d4 01 10 0c 	l.sw 0xc(r1),r2
    356c:	9c 41 00 10 	l.addi r2,r1,0x10
    3570:	d4 01 48 08 	l.sw 0x8(r1),r9
    3574:	18 60 00 01 	l.movhi r3,0x1
    3578:	a8 63 00 a6 	l.ori r3,r3,0xa6
    357c:	d4 01 18 00 	l.sw 0x0(r1),r3
    3580:	18 60 00 01 	l.movhi r3,0x1
    3584:	a8 63 01 55 	l.ori r3,r3,0x155
    3588:	d4 01 18 04 	l.sw 0x4(r1),r3
    358c:	04 00 01 af 	l.jal 3c48 <_printf>
    3590:	15 00 00 00 	l.nop 0x0
    3594:	85 21 00 08 	l.lwz r9,0x8(r1)
    3598:	84 41 00 0c 	l.lwz r2,0xc(r1)
    359c:	44 00 48 00 	l.jr r9
    35a0:	9c 21 00 10 	l.addi r1,r1,0x10

000035a4 <_impMpIdle>:
    35a4:	9c 21 ff f0 	l.addi r1,r1,0xfffffff0
    35a8:	d4 01 10 0c 	l.sw 0xc(r1),r2
    35ac:	9c 41 00 10 	l.addi r2,r1,0x10
    35b0:	d4 01 48 08 	l.sw 0x8(r1),r9
    35b4:	18 60 00 01 	l.movhi r3,0x1
    35b8:	a8 63 00 a6 	l.ori r3,r3,0xa6
    35bc:	d4 01 18 00 	l.sw 0x0(r1),r3
    35c0:	18 60 00 01 	l.movhi r3,0x1
    35c4:	a8 63 01 5f 	l.ori r3,r3,0x15f
    35c8:	d4 01 18 04 	l.sw 0x4(r1),r3
    35cc:	04 00 01 9f 	l.jal 3c48 <_printf>
    35d0:	15 00 00 00 	l.nop 0x0
    35d4:	85 21 00 08 	l.lwz r9,0x8(r1)
    35d8:	84 41 00 0c 	l.lwz r2,0xc(r1)
    35dc:	44 00 48 00 	l.jr r9
    35e0:	9c 21 00 10 	l.addi r1,r1,0x10

000035e4 <___udivsi3>:
    35e4:	9c 21 ff fc 	l.addi r1,r1,0xfffffffc
    35e8:	d4 01 48 00 	l.sw 0x0(r1),r9
    35ec:	9d 60 00 00 	l.addi r11,r0,0x0
    35f0:	9d 04 00 00 	l.addi r8,r4,0x0
    35f4:	9c a3 00 00 	l.addi r5,r3,0x0
    35f8:	e4 28 58 00 	l.sfne r8,r11
    35fc:	0c 00 00 36 	l.bnf 36d4 <___udivsi3+0xf0>
    3600:	9c e0 00 00 	l.addi r7,r0,0x0
    3604:	e4 48 28 00 	l.sfgtu r8,r5
    3608:	10 00 00 32 	l.bf 36d0 <___udivsi3+0xec>
    360c:	e4 08 28 00 	l.sfeq r8,r5
    3610:	10 00 00 2e 	l.bf 36c8 <___udivsi3+0xe4>
    3614:	e4 8b 40 00 	l.sfltu r11,r8
    3618:	0c 00 00 0d 	l.bnf 364c <___udivsi3+0x68>
    361c:	9d a0 00 20 	l.addi r13,r0,0x20
    3620:	19 20 80 00 	l.movhi r9,0x8000
    3624:	9c c0 ff ff 	l.addi r6,r0,0xffffffff
    3628:	e0 65 48 03 	l.and r3,r5,r9
    362c:	b8 87 00 01 	l.slli r4,r7,0x1
    3630:	9d e5 00 00 	l.addi r15,r5,0x0
    3634:	b8 63 00 5f 	l.srli r3,r3,0x1f
    3638:	e1 ad 30 00 	l.add r13,r13,r6
    363c:	e0 e4 18 04 	l.or r7,r4,r3
    3640:	e4 87 40 00 	l.sfltu r7,r8
    3644:	13 ff ff f9 	l.bf 3628 <___udivsi3+0x44>
    3648:	b8 a5 00 01 	l.slli r5,r5,0x1
    364c:	b8 e7 00 41 	l.srli r7,r7,0x1
    3650:	9d ad 00 01 	l.addi r13,r13,0x1
    3654:	9d 20 00 00 	l.addi r9,r0,0x0
    3658:	e4 89 68 00 	l.sfltu r9,r13
    365c:	0c 00 00 1e 	l.bnf 36d4 <___udivsi3+0xf0>
    3660:	9c af 00 00 	l.addi r5,r15,0x0
    3664:	19 e0 80 00 	l.movhi r15,0x8000
    3668:	9e 20 00 00 	l.addi r17,r0,0x0
    366c:	e0 65 78 03 	l.and r3,r5,r15
    3670:	b8 87 00 01 	l.slli r4,r7,0x1
    3674:	b8 63 00 5f 	l.srli r3,r3,0x1f
    3678:	e0 e4 18 04 	l.or r7,r4,r3
    367c:	e0 c7 40 02 	l.sub r6,r7,r8
    3680:	e0 66 78 03 	l.and r3,r6,r15
    3684:	b8 63 00 5f 	l.srli r3,r3,0x1f
    3688:	9c 80 00 00 	l.addi r4,r0,0x0
    368c:	e4 23 20 00 	l.sfne r3,r4
    3690:	10 00 00 03 	l.bf 369c <___udivsi3+0xb8>
    3694:	b8 6b 00 01 	l.slli r3,r11,0x1
    3698:	9c 80 00 01 	l.addi r4,r0,0x1
    369c:	b8 a5 00 01 	l.slli r5,r5,0x1
    36a0:	e4 24 88 00 	l.sfne r4,r17
    36a4:	0c 00 00 03 	l.bnf 36b0 <___udivsi3+0xcc>
    36a8:	e1 63 20 04 	l.or r11,r3,r4
    36ac:	9c e6 00 00 	l.addi r7,r6,0x0
    36b0:	9d 29 00 01 	l.addi r9,r9,0x1
    36b4:	e4 89 68 00 	l.sfltu r9,r13
    36b8:	13 ff ff ed 	l.bf 366c <___udivsi3+0x88>
    36bc:	15 00 00 00 	l.nop 0x0
    36c0:	00 00 00 05 	l.j 36d4 <___udivsi3+0xf0>
    36c4:	15 00 00 00 	l.nop 0x0
    36c8:	00 00 00 03 	l.j 36d4 <___udivsi3+0xf0>
    36cc:	9d 60 00 01 	l.addi r11,r0,0x1
    36d0:	9c e5 00 00 	l.addi r7,r5,0x0
    36d4:	85 21 00 00 	l.lwz r9,0x0(r1)
    36d8:	44 00 48 00 	l.jr r9
    36dc:	9c 21 00 04 	l.addi r1,r1,0x4

000036e0 <_clock>:
    36e0:	9c 21 ff e8 	l.addi r1,r1,0xffffffe8
    36e4:	d4 01 10 04 	l.sw 0x4(r1),r2
    36e8:	9c 41 00 18 	l.addi r2,r1,0x18
    36ec:	d4 01 48 00 	l.sw 0x0(r1),r9
    36f0:	18 60 00 01 	l.movhi r3,0x1
    36f4:	a8 63 0a a8 	l.ori r3,r3,0xaa8
    36f8:	9c 82 ff f0 	l.addi r4,r2,0xfffffff0
    36fc:	04 00 01 7c 	l.jal 3cec <__times_r>
    3700:	84 63 00 00 	l.lwz r3,0x0(r3)
    3704:	bc 0b ff ff 	l.sfeqi r11,0xffffffff
    3708:	10 00 00 08 	l.bf 3728 <_clock+0x48>
    370c:	84 62 ff f0 	l.lwz r3,0xfffffff0(r2)
    3710:	84 82 ff f4 	l.lwz r4,0xfffffff4(r2)
    3714:	e0 83 20 00 	l.add r4,r3,r4
    3718:	84 62 ff f8 	l.lwz r3,0xfffffff8(r2)
    371c:	e1 64 18 00 	l.add r11,r4,r3
    3720:	84 62 ff fc 	l.lwz r3,0xfffffffc(r2)
    3724:	e1 6b 18 00 	l.add r11,r11,r3
    3728:	85 21 00 00 	l.lwz r9,0x0(r1)
    372c:	84 41 00 04 	l.lwz r2,0x4(r1)
    3730:	44 00 48 00 	l.jr r9
    3734:	9c 21 00 18 	l.addi r1,r1,0x18

00003738 <__sprintf_r>:
    3738:	9c 21 ff 9c 	l.addi r1,r1,0xffffff9c
    373c:	d4 01 10 04 	l.sw 0x4(r1),r2
    3740:	9c 41 00 64 	l.addi r2,r1,0x64
    3744:	d4 01 48 00 	l.sw 0x0(r1),r9
    3748:	a8 e4 00 00 	l.ori r7,r4,0x0
    374c:	84 a2 00 00 	l.lwz r5,0x0(r2)
    3750:	18 80 7f ff 	l.movhi r4,0x7fff
    3754:	a8 84 ff ff 	l.ori r4,r4,0xffff
    3758:	9c c2 00 04 	l.addi r6,r2,0x4
    375c:	d7 e2 27 ac 	l.sw 0xffffffac(r2),r4
    3760:	d7 e2 3f b4 	l.sw 0xffffffb4(r2),r7
    3764:	9c 80 02 08 	l.addi r4,r0,0x208
    3768:	d7 e2 3f a4 	l.sw 0xffffffa4(r2),r7
    376c:	df e2 27 b0 	l.sh 0xffffffb0(r2),r4
    3770:	18 80 7f ff 	l.movhi r4,0x7fff
    3774:	a8 84 ff ff 	l.ori r4,r4,0xffff
    3778:	d7 e2 27 b8 	l.sw 0xffffffb8(r2),r4
    377c:	9c 80 ff ff 	l.addi r4,r0,0xffffffff
    3780:	df e2 27 b2 	l.sh 0xffffffb2(r2),r4
    3784:	04 00 01 96 	l.jal 3ddc <__vfprintf_r>
    3788:	9c 82 ff a4 	l.addi r4,r2,0xffffffa4
    378c:	84 62 ff a4 	l.lwz r3,0xffffffa4(r2)
    3790:	9c 80 00 00 	l.addi r4,r0,0x0
    3794:	d8 03 20 00 	l.sb 0x0(r3),r4
    3798:	85 21 00 00 	l.lwz r9,0x0(r1)
    379c:	84 41 00 04 	l.lwz r2,0x4(r1)
    37a0:	44 00 48 00 	l.jr r9
    37a4:	9c 21 00 64 	l.addi r1,r1,0x64

000037a8 <_sprintf>:
    37a8:	9c 21 ff 9c 	l.addi r1,r1,0xffffff9c
    37ac:	d4 01 10 04 	l.sw 0x4(r1),r2
    37b0:	9c 41 00 64 	l.addi r2,r1,0x64
    37b4:	d4 01 48 00 	l.sw 0x0(r1),r9
    37b8:	a8 e3 00 00 	l.ori r7,r3,0x0
    37bc:	9c 80 02 08 	l.addi r4,r0,0x208
    37c0:	18 60 7f ff 	l.movhi r3,0x7fff
    37c4:	a8 63 ff ff 	l.ori r3,r3,0xffff
    37c8:	df e2 27 b0 	l.sh 0xffffffb0(r2),r4
    37cc:	9c c2 00 04 	l.addi r6,r2,0x4
    37d0:	9c 82 ff a4 	l.addi r4,r2,0xffffffa4
    37d4:	d7 e2 1f ac 	l.sw 0xffffffac(r2),r3
    37d8:	d7 e2 1f b8 	l.sw 0xffffffb8(r2),r3
    37dc:	84 a2 00 00 	l.lwz r5,0x0(r2)
    37e0:	9c 60 ff ff 	l.addi r3,r0,0xffffffff
    37e4:	df e2 1f b2 	l.sh 0xffffffb2(r2),r3
    37e8:	18 60 00 01 	l.movhi r3,0x1
    37ec:	a8 63 0a a8 	l.ori r3,r3,0xaa8
    37f0:	d7 e2 3f b4 	l.sw 0xffffffb4(r2),r7
    37f4:	84 63 00 00 	l.lwz r3,0x0(r3)
    37f8:	04 00 01 79 	l.jal 3ddc <__vfprintf_r>
    37fc:	d7 e2 3f a4 	l.sw 0xffffffa4(r2),r7
    3800:	84 62 ff a4 	l.lwz r3,0xffffffa4(r2)
    3804:	9c 80 00 00 	l.addi r4,r0,0x0
    3808:	d8 03 20 00 	l.sb 0x0(r3),r4
    380c:	85 21 00 00 	l.lwz r9,0x0(r1)
    3810:	84 41 00 04 	l.lwz r2,0x4(r1)
    3814:	44 00 48 00 	l.jr r9
    3818:	9c 21 00 64 	l.addi r1,r1,0x64

0000381c <__fopen_r>:
    381c:	9c 21 ff e4 	l.addi r1,r1,0xffffffe4
    3820:	d4 01 10 04 	l.sw 0x4(r1),r2
    3824:	9c 41 00 1c 	l.addi r2,r1,0x1c
    3828:	d4 01 48 00 	l.sw 0x0(r1),r9
    382c:	d4 01 50 08 	l.sw 0x8(r1),r10
    3830:	d4 01 60 0c 	l.sw 0xc(r1),r12
    3834:	d4 01 70 10 	l.sw 0x10(r1),r14
    3838:	d4 01 80 14 	l.sw 0x14(r1),r16
    383c:	aa 04 00 00 	l.ori r16,r4,0x0
    3840:	a9 c3 00 00 	l.ori r14,r3,0x0
    3844:	a8 85 00 00 	l.ori r4,r5,0x0
    3848:	04 00 08 92 	l.jal 5a90 <___sflags>
    384c:	9c a2 ff fc 	l.addi r5,r2,0xfffffffc
    3850:	a9 8b 00 00 	l.ori r12,r11,0x0
    3854:	bc 2b 00 00 	l.sfnei r11,0x0
    3858:	a8 6e 00 00 	l.ori r3,r14,0x0
    385c:	0c 00 00 32 	l.bnf 3924 <__fopen_r+0x108>
    3860:	9d 60 00 00 	l.addi r11,r0,0x0
    3864:	04 00 09 26 	l.jal 5cfc <___sfp>
    3868:	15 00 00 00 	l.nop 0x0
    386c:	a9 4b 00 00 	l.ori r10,r11,0x0
    3870:	bc 2b 00 00 	l.sfnei r11,0x0
    3874:	a8 90 00 00 	l.ori r4,r16,0x0
    3878:	a8 6e 00 00 	l.ori r3,r14,0x0
    387c:	9c c0 01 b6 	l.addi r6,r0,0x1b6
    3880:	0c 00 00 29 	l.bnf 3924 <__fopen_r+0x108>
    3884:	9d 60 00 00 	l.addi r11,r0,0x0
    3888:	04 00 09 a3 	l.jal 5f14 <__open_r>
    388c:	84 a2 ff fc 	l.lwz r5,0xfffffffc(r2)
    3890:	b8 6c 00 48 	l.srli r3,r12,0x8
    3894:	bd 6b 00 00 	l.sfgesi r11,0x0
    3898:	0c 00 00 1d 	l.bnf 390c <__fopen_r+0xf0>
    389c:	a4 63 00 01 	l.andi r3,r3,0x1
    38a0:	18 80 00 00 	l.movhi r4,0x0
    38a4:	a8 84 5f 88 	l.ori r4,r4,0x5f88
    38a8:	bc 03 00 00 	l.sfeqi r3,0x0
    38ac:	d4 0a 20 20 	l.sw 0x20(r10),r4
    38b0:	dc 0a 58 0e 	l.sh 0xe(r10),r11
    38b4:	18 80 00 00 	l.movhi r4,0x0
    38b8:	a8 84 5f fc 	l.ori r4,r4,0x5ffc
    38bc:	a8 6e 00 00 	l.ori r3,r14,0x0
    38c0:	d4 0a 20 24 	l.sw 0x24(r10),r4
    38c4:	dc 0a 60 0c 	l.sh 0xc(r10),r12
    38c8:	18 80 00 00 	l.movhi r4,0x0
    38cc:	a8 84 60 ac 	l.ori r4,r4,0x60ac
    38d0:	9c a0 00 00 	l.addi r5,r0,0x0
    38d4:	d4 0a 20 28 	l.sw 0x28(r10),r4
    38d8:	d4 0a 50 1c 	l.sw 0x1c(r10),r10
    38dc:	18 80 00 00 	l.movhi r4,0x0
    38e0:	a8 84 61 1c 	l.ori r4,r4,0x611c
    38e4:	9c c0 00 02 	l.addi r6,r0,0x2
    38e8:	d4 0a 20 2c 	l.sw 0x2c(r10),r4
    38ec:	0c 00 00 04 	l.bnf 38fc <__fopen_r+0xe0>
    38f0:	a8 8a 00 00 	l.ori r4,r10,0x0
    38f4:	00 00 00 0c 	l.j 3924 <__fopen_r+0x108>
    38f8:	a9 6a 00 00 	l.ori r11,r10,0x0
    38fc:	04 00 0a 15 	l.jal 6150 <__fseek_r>
    3900:	15 00 00 00 	l.nop 0x0
    3904:	00 00 00 08 	l.j 3924 <__fopen_r+0x108>
    3908:	a9 6a 00 00 	l.ori r11,r10,0x0
    390c:	04 00 08 cc 	l.jal 5c3c <___sfp_lock_acquire>
    3910:	15 00 00 00 	l.nop 0x0
    3914:	9c 60 00 00 	l.addi r3,r0,0x0
    3918:	04 00 08 f3 	l.jal 5ce4 <___sfp_lock_release>
    391c:	dc 0a 18 0c 	l.sh 0xc(r10),r3
    3920:	9d 60 00 00 	l.addi r11,r0,0x0
    3924:	85 21 00 00 	l.lwz r9,0x0(r1)
    3928:	84 41 00 04 	l.lwz r2,0x4(r1)
    392c:	85 41 00 08 	l.lwz r10,0x8(r1)
    3930:	85 81 00 0c 	l.lwz r12,0xc(r1)
    3934:	85 c1 00 10 	l.lwz r14,0x10(r1)
    3938:	86 01 00 14 	l.lwz r16,0x14(r1)
    393c:	44 00 48 00 	l.jr r9
    3940:	9c 21 00 1c 	l.addi r1,r1,0x1c

00003944 <_fopen>:
    3944:	9c 21 ff f8 	l.addi r1,r1,0xfffffff8
    3948:	d4 01 10 04 	l.sw 0x4(r1),r2
    394c:	9c 41 00 08 	l.addi r2,r1,0x8
    3950:	d4 01 48 00 	l.sw 0x0(r1),r9
    3954:	a8 c3 00 00 	l.ori r6,r3,0x0
    3958:	a8 a4 00 00 	l.ori r5,r4,0x0
    395c:	18 60 00 01 	l.movhi r3,0x1
    3960:	a8 63 0a a8 	l.ori r3,r3,0xaa8
    3964:	a8 86 00 00 	l.ori r4,r6,0x0
    3968:	07 ff ff ad 	l.jal 381c <__fopen_r>
    396c:	84 63 00 00 	l.lwz r3,0x0(r3)
    3970:	85 21 00 00 	l.lwz r9,0x0(r1)
    3974:	84 41 00 04 	l.lwz r2,0x4(r1)
    3978:	44 00 48 00 	l.jr r9
    397c:	9c 21 00 08 	l.addi r1,r1,0x8

00003980 <_fwrite>:
    3980:	9c 21 ff d8 	l.addi r1,r1,0xffffffd8
    3984:	d4 01 10 04 	l.sw 0x4(r1),r2
    3988:	9c 41 00 28 	l.addi r2,r1,0x28
    398c:	d4 01 48 00 	l.sw 0x0(r1),r9
    3990:	d4 01 50 08 	l.sw 0x8(r1),r10
    3994:	d4 01 60 0c 	l.sw 0xc(r1),r12
    3998:	d4 01 70 10 	l.sw 0x10(r1),r14
    399c:	e1 45 23 06 	l.mul r10,r5,r4
    39a0:	a9 84 00 00 	l.ori r12,r4,0x0
    39a4:	d7 e2 1f ec 	l.sw 0xffffffec(r2),r3
    39a8:	a9 c5 00 00 	l.ori r14,r5,0x0
    39ac:	a8 66 00 00 	l.ori r3,r6,0x0
    39b0:	9c 82 ff ec 	l.addi r4,r2,0xffffffec
    39b4:	d7 e2 57 f0 	l.sw 0xfffffff0(r2),r10
    39b8:	d7 e2 27 f4 	l.sw 0xfffffff4(r2),r4
    39bc:	d7 e2 57 fc 	l.sw 0xfffffffc(r2),r10
    39c0:	9c 80 00 01 	l.addi r4,r0,0x1
    39c4:	d7 e2 27 f8 	l.sw 0xfffffff8(r2),r4
    39c8:	04 00 0b 4f 	l.jal 6704 <___sfvwrite>
    39cc:	9c 82 ff f4 	l.addi r4,r2,0xfffffff4
    39d0:	a8 8c 00 00 	l.ori r4,r12,0x0
    39d4:	bc 2b 00 00 	l.sfnei r11,0x0
    39d8:	0c 00 00 06 	l.bnf 39f0 <_fwrite+0x70>
    39dc:	a8 ae 00 00 	l.ori r5,r14,0x0
    39e0:	84 62 ff fc 	l.lwz r3,0xfffffffc(r2)
    39e4:	07 ff ff 00 	l.jal 35e4 <___udivsi3>
    39e8:	e0 6a 18 02 	l.sub r3,r10,r3
    39ec:	a8 ab 00 00 	l.ori r5,r11,0x0
    39f0:	a9 65 00 00 	l.ori r11,r5,0x0
    39f4:	85 21 00 00 	l.lwz r9,0x0(r1)
    39f8:	84 41 00 04 	l.lwz r2,0x4(r1)
    39fc:	85 41 00 08 	l.lwz r10,0x8(r1)
    3a00:	85 81 00 0c 	l.lwz r12,0xc(r1)
    3a04:	85 c1 00 10 	l.lwz r14,0x10(r1)
    3a08:	44 00 48 00 	l.jr r9
    3a0c:	9c 21 00 28 	l.addi r1,r1,0x28

00003a10 <_fprintf>:
    3a10:	9c 21 ff f8 	l.addi r1,r1,0xfffffff8
    3a14:	d4 01 10 04 	l.sw 0x4(r1),r2
    3a18:	9c 41 00 08 	l.addi r2,r1,0x8
    3a1c:	d4 01 48 00 	l.sw 0x0(r1),r9
    3a20:	84 82 00 00 	l.lwz r4,0x0(r2)
    3a24:	04 00 08 0a 	l.jal 5a4c <_vfprintf>
    3a28:	9c a2 00 04 	l.addi r5,r2,0x4
    3a2c:	85 21 00 00 	l.lwz r9,0x0(r1)
    3a30:	84 41 00 04 	l.lwz r2,0x4(r1)
    3a34:	44 00 48 00 	l.jr r9
    3a38:	9c 21 00 08 	l.addi r1,r1,0x8

00003a3c <__fclose_r>:
    3a3c:	9c 21 ff e8 	l.addi r1,r1,0xffffffe8
    3a40:	d4 01 10 04 	l.sw 0x4(r1),r2
    3a44:	9c 41 00 18 	l.addi r2,r1,0x18
    3a48:	d4 01 48 00 	l.sw 0x0(r1),r9
    3a4c:	d4 01 50 08 	l.sw 0x8(r1),r10
    3a50:	d4 01 60 0c 	l.sw 0xc(r1),r12
    3a54:	d4 01 70 10 	l.sw 0x10(r1),r14
    3a58:	d4 01 80 14 	l.sw 0x14(r1),r16
    3a5c:	a9 44 00 00 	l.ori r10,r4,0x0
    3a60:	bc 24 00 00 	l.sfnei r4,0x0
    3a64:	10 00 00 04 	l.bf 3a74 <__fclose_r+0x38>
    3a68:	a9 83 00 00 	l.ori r12,r3,0x0
    3a6c:	00 00 00 56 	l.j 3bc4 <__fclose_r+0x188>
    3a70:	9d 60 00 00 	l.addi r11,r0,0x0
    3a74:	1a 00 00 01 	l.movhi r16,0x1
    3a78:	aa 10 0a a8 	l.ori r16,r16,0xaa8
    3a7c:	04 00 08 70 	l.jal 5c3c <___sfp_lock_acquire>
    3a80:	15 00 00 00 	l.nop 0x0
    3a84:	84 70 00 00 	l.lwz r3,0x0(r16)
    3a88:	bc 03 00 00 	l.sfeqi r3,0x0
    3a8c:	0c 00 00 29 	l.bnf 3b30 <__fclose_r+0xf4>
    3a90:	15 00 00 00 	l.nop 0x0
    3a94:	94 8a 00 0c 	l.lhz r4,0xc(r10)
    3a98:	b8 64 00 10 	l.slli r3,r4,0x10
    3a9c:	b8 63 00 90 	l.srai r3,r3,0x10
    3aa0:	bc 23 00 00 	l.sfnei r3,0x0
    3aa4:	0c 00 00 2b 	l.bnf 3b50 <__fclose_r+0x114>
    3aa8:	b8 64 00 43 	l.srli r3,r4,0x3
    3aac:	a4 63 00 01 	l.andi r3,r3,0x1
    3ab0:	bc 03 00 00 	l.sfeqi r3,0x0
    3ab4:	0c 00 00 3c 	l.bnf 3ba4 <__fclose_r+0x168>
    3ab8:	15 00 00 00 	l.nop 0x0
    3abc:	9d c0 00 00 	l.addi r14,r0,0x0
    3ac0:	84 8a 00 2c 	l.lwz r4,0x2c(r10)
    3ac4:	bc 04 00 00 	l.sfeqi r4,0x0
    3ac8:	0c 00 00 30 	l.bnf 3b88 <__fclose_r+0x14c>
    3acc:	15 00 00 00 	l.nop 0x0
    3ad0:	94 6a 00 0c 	l.lhz r3,0xc(r10)
    3ad4:	b8 63 00 47 	l.srli r3,r3,0x7
    3ad8:	a4 63 00 01 	l.andi r3,r3,0x1
    3adc:	bc 03 00 00 	l.sfeqi r3,0x0
    3ae0:	0c 00 00 20 	l.bnf 3b60 <__fclose_r+0x124>
    3ae4:	15 00 00 00 	l.nop 0x0
    3ae8:	84 8a 00 30 	l.lwz r4,0x30(r10)
    3aec:	bc 04 00 00 	l.sfeqi r4,0x0
    3af0:	10 00 00 07 	l.bf 3b0c <__fclose_r+0xd0>
    3af4:	9c 6a 00 40 	l.addi r3,r10,0x40
    3af8:	e4 04 18 00 	l.sfeq r4,r3
    3afc:	0c 00 00 2e 	l.bnf 3bb4 <__fclose_r+0x178>
    3b00:	15 00 00 00 	l.nop 0x0
    3b04:	9c 60 00 00 	l.addi r3,r0,0x0
    3b08:	d4 0a 18 30 	l.sw 0x30(r10),r3
    3b0c:	84 8a 00 44 	l.lwz r4,0x44(r10)
    3b10:	bc 04 00 00 	l.sfeqi r4,0x0
    3b14:	0c 00 00 18 	l.bnf 3b74 <__fclose_r+0x138>
    3b18:	15 00 00 00 	l.nop 0x0
    3b1c:	9c 60 00 00 	l.addi r3,r0,0x0
    3b20:	04 00 08 71 	l.jal 5ce4 <___sfp_lock_release>
    3b24:	dc 0a 18 0c 	l.sh 0xc(r10),r3
    3b28:	00 00 00 27 	l.j 3bc4 <__fclose_r+0x188>
    3b2c:	a9 6e 00 00 	l.ori r11,r14,0x0
    3b30:	84 83 00 38 	l.lwz r4,0x38(r3)
    3b34:	bc 24 00 00 	l.sfnei r4,0x0
    3b38:	13 ff ff d7 	l.bf 3a94 <__fclose_r+0x58>
    3b3c:	15 00 00 00 	l.nop 0x0
    3b40:	04 00 08 45 	l.jal 5c54 <___sinit>
    3b44:	15 00 00 00 	l.nop 0x0
    3b48:	03 ff ff d4 	l.j 3a98 <__fclose_r+0x5c>
    3b4c:	94 8a 00 0c 	l.lhz r4,0xc(r10)
    3b50:	04 00 08 65 	l.jal 5ce4 <___sfp_lock_release>
    3b54:	15 00 00 00 	l.nop 0x0
    3b58:	00 00 00 1b 	l.j 3bc4 <__fclose_r+0x188>
    3b5c:	9d 60 00 00 	l.addi r11,r0,0x0
    3b60:	84 8a 00 10 	l.lwz r4,0x10(r10)
    3b64:	04 00 0c 76 	l.jal 6d3c <__free_r>
    3b68:	a8 6c 00 00 	l.ori r3,r12,0x0
    3b6c:	03 ff ff e0 	l.j 3aec <__fclose_r+0xb0>
    3b70:	84 8a 00 30 	l.lwz r4,0x30(r10)
    3b74:	04 00 0c 72 	l.jal 6d3c <__free_r>
    3b78:	84 70 00 00 	l.lwz r3,0x0(r16)
    3b7c:	9c 60 00 00 	l.addi r3,r0,0x0
    3b80:	03 ff ff e7 	l.j 3b1c <__fclose_r+0xe0>
    3b84:	d4 0a 18 44 	l.sw 0x44(r10),r3
    3b88:	48 00 20 00 	l.jalr r4
    3b8c:	84 6a 00 1c 	l.lwz r3,0x1c(r10)
    3b90:	bd 6b 00 00 	l.sfgesi r11,0x0
    3b94:	13 ff ff cf 	l.bf 3ad0 <__fclose_r+0x94>
    3b98:	15 00 00 00 	l.nop 0x0
    3b9c:	03 ff ff cd 	l.j 3ad0 <__fclose_r+0x94>
    3ba0:	9d c0 ff ff 	l.addi r14,r0,0xffffffff
    3ba4:	04 00 0d 2a 	l.jal 704c <_fflush>
    3ba8:	a8 6a 00 00 	l.ori r3,r10,0x0
    3bac:	03 ff ff c5 	l.j 3ac0 <__fclose_r+0x84>
    3bb0:	a9 cb 00 00 	l.ori r14,r11,0x0
    3bb4:	04 00 0c 62 	l.jal 6d3c <__free_r>
    3bb8:	84 70 00 00 	l.lwz r3,0x0(r16)
    3bbc:	03 ff ff d3 	l.j 3b08 <__fclose_r+0xcc>
    3bc0:	9c 60 00 00 	l.addi r3,r0,0x0
    3bc4:	85 21 00 00 	l.lwz r9,0x0(r1)
    3bc8:	84 41 00 04 	l.lwz r2,0x4(r1)
    3bcc:	85 41 00 08 	l.lwz r10,0x8(r1)
    3bd0:	85 81 00 0c 	l.lwz r12,0xc(r1)
    3bd4:	85 c1 00 10 	l.lwz r14,0x10(r1)
    3bd8:	86 01 00 14 	l.lwz r16,0x14(r1)
    3bdc:	44 00 48 00 	l.jr r9
    3be0:	9c 21 00 18 	l.addi r1,r1,0x18

00003be4 <_fclose>:
    3be4:	9c 21 ff f8 	l.addi r1,r1,0xfffffff8
    3be8:	d4 01 10 04 	l.sw 0x4(r1),r2
    3bec:	9c 41 00 08 	l.addi r2,r1,0x8
    3bf0:	d4 01 48 00 	l.sw 0x0(r1),r9
    3bf4:	a8 83 00 00 	l.ori r4,r3,0x0
    3bf8:	18 60 00 01 	l.movhi r3,0x1
    3bfc:	a8 63 0a a8 	l.ori r3,r3,0xaa8
    3c00:	07 ff ff 8f 	l.jal 3a3c <__fclose_r>
    3c04:	84 63 00 00 	l.lwz r3,0x0(r3)
    3c08:	85 21 00 00 	l.lwz r9,0x0(r1)
    3c0c:	84 41 00 04 	l.lwz r2,0x4(r1)
    3c10:	44 00 48 00 	l.jr r9
    3c14:	9c 21 00 08 	l.addi r1,r1,0x8

00003c18 <__printf_r>:
    3c18:	9c 21 ff f8 	l.addi r1,r1,0xfffffff8
    3c1c:	d4 01 10 04 	l.sw 0x4(r1),r2
    3c20:	9c 41 00 08 	l.addi r2,r1,0x8
    3c24:	d4 01 48 00 	l.sw 0x0(r1),r9
    3c28:	84 83 00 08 	l.lwz r4,0x8(r3)
    3c2c:	9c c2 00 04 	l.addi r6,r2,0x4
    3c30:	04 00 00 6b 	l.jal 3ddc <__vfprintf_r>
    3c34:	84 a2 00 00 	l.lwz r5,0x0(r2)
    3c38:	85 21 00 00 	l.lwz r9,0x0(r1)
    3c3c:	84 41 00 04 	l.lwz r2,0x4(r1)
    3c40:	44 00 48 00 	l.jr r9
    3c44:	9c 21 00 08 	l.addi r1,r1,0x8

00003c48 <_printf>:
    3c48:	9c 21 ff f8 	l.addi r1,r1,0xfffffff8
    3c4c:	d4 01 10 04 	l.sw 0x4(r1),r2
    3c50:	9c 41 00 08 	l.addi r2,r1,0x8
    3c54:	d4 01 48 00 	l.sw 0x0(r1),r9
    3c58:	18 60 00 01 	l.movhi r3,0x1
    3c5c:	a8 63 0a a8 	l.ori r3,r3,0xaa8
    3c60:	84 82 00 00 	l.lwz r4,0x0(r2)
    3c64:	9c a2 00 04 	l.addi r5,r2,0x4
    3c68:	84 63 00 00 	l.lwz r3,0x0(r3)
    3c6c:	04 00 07 78 	l.jal 5a4c <_vfprintf>
    3c70:	84 63 00 08 	l.lwz r3,0x8(r3)
    3c74:	85 21 00 00 	l.lwz r9,0x0(r1)
    3c78:	84 41 00 04 	l.lwz r2,0x4(r1)
    3c7c:	44 00 48 00 	l.jr r9
    3c80:	9c 21 00 08 	l.addi r1,r1,0x8

00003c84 <_exit>:
    3c84:	9c 21 ff f4 	l.addi r1,r1,0xfffffff4
    3c88:	d4 01 10 04 	l.sw 0x4(r1),r2
    3c8c:	9c 41 00 0c 	l.addi r2,r1,0xc
    3c90:	d4 01 48 00 	l.sw 0x0(r1),r9
    3c94:	d4 01 50 08 	l.sw 0x8(r1),r10
    3c98:	a9 43 00 00 	l.ori r10,r3,0x0
    3c9c:	04 00 0d 3a 	l.jal 7184 <___call_exitprocs>
    3ca0:	9c 80 00 00 	l.addi r4,r0,0x0
    3ca4:	18 60 00 01 	l.movhi r3,0x1
    3ca8:	a8 63 01 6c 	l.ori r3,r3,0x16c
    3cac:	84 63 00 00 	l.lwz r3,0x0(r3)
    3cb0:	84 83 00 3c 	l.lwz r4,0x3c(r3)
    3cb4:	bc 04 00 00 	l.sfeqi r4,0x0
    3cb8:	0c 00 00 04 	l.bnf 3cc8 <_exit+0x44>
    3cbc:	15 00 00 00 	l.nop 0x0
    3cc0:	04 00 23 0c 	l.jal c8f0 <__exit>
    3cc4:	a8 6a 00 00 	l.ori r3,r10,0x0
    3cc8:	48 00 20 00 	l.jalr r4
    3ccc:	15 00 00 00 	l.nop 0x0
    3cd0:	03 ff ff fc 	l.j 3cc0 <_exit+0x3c>
    3cd4:	15 00 00 00 	l.nop 0x0
    3cd8:	85 21 00 00 	l.lwz r9,0x0(r1)
    3cdc:	84 41 00 04 	l.lwz r2,0x4(r1)
    3ce0:	85 41 00 08 	l.lwz r10,0x8(r1)
    3ce4:	44 00 48 00 	l.jr r9
    3ce8:	9c 21 00 0c 	l.addi r1,r1,0xc

00003cec <__times_r>:
    3cec:	9c 21 ff f8 	l.addi r1,r1,0xfffffff8
    3cf0:	d4 01 10 04 	l.sw 0x4(r1),r2
    3cf4:	9c 41 00 08 	l.addi r2,r1,0x8
    3cf8:	d4 01 48 00 	l.sw 0x0(r1),r9
    3cfc:	04 00 23 03 	l.jal c908 <_times>
    3d00:	a8 64 00 00 	l.ori r3,r4,0x0
    3d04:	85 21 00 00 	l.lwz r9,0x0(r1)
    3d08:	84 41 00 04 	l.lwz r2,0x4(r1)
    3d0c:	44 00 48 00 	l.jr r9
    3d10:	9c 21 00 08 	l.addi r1,r1,0x8

00003d14 <__gettimeofday_r>:
    3d14:	9c 21 ff f0 	l.addi r1,r1,0xfffffff0
    3d18:	d4 01 10 04 	l.sw 0x4(r1),r2
    3d1c:	9c 41 00 10 	l.addi r2,r1,0x10
    3d20:	d4 01 48 00 	l.sw 0x0(r1),r9
    3d24:	d4 01 50 08 	l.sw 0x8(r1),r10
    3d28:	d4 01 60 0c 	l.sw 0xc(r1),r12
    3d2c:	a9 83 00 00 	l.ori r12,r3,0x0
    3d30:	19 40 00 01 	l.movhi r10,0x1
    3d34:	a9 4a 49 b0 	l.ori r10,r10,0x49b0
    3d38:	a8 64 00 00 	l.ori r3,r4,0x0
    3d3c:	9c 80 00 00 	l.addi r4,r0,0x0
    3d40:	d4 0a 20 00 	l.sw 0x0(r10),r4
    3d44:	04 00 22 fc 	l.jal c934 <_gettimeofday>
    3d48:	a8 85 00 00 	l.ori r4,r5,0x0
    3d4c:	bc 2b ff ff 	l.sfnei r11,0xffffffff
    3d50:	10 00 00 07 	l.bf 3d6c <__gettimeofday_r+0x58>
    3d54:	15 00 00 00 	l.nop 0x0
    3d58:	84 6a 00 00 	l.lwz r3,0x0(r10)
    3d5c:	bc 03 00 00 	l.sfeqi r3,0x0
    3d60:	10 00 00 03 	l.bf 3d6c <__gettimeofday_r+0x58>
    3d64:	15 00 00 00 	l.nop 0x0
    3d68:	d4 0c 18 00 	l.sw 0x0(r12),r3
    3d6c:	85 21 00 00 	l.lwz r9,0x0(r1)
    3d70:	84 41 00 04 	l.lwz r2,0x4(r1)
    3d74:	85 41 00 08 	l.lwz r10,0x8(r1)
    3d78:	85 81 00 0c 	l.lwz r12,0xc(r1)
    3d7c:	44 00 48 00 	l.jr r9
    3d80:	9c 21 00 10 	l.addi r1,r1,0x10

00003d84 <___sprint>:
    3d84:	9c 21 ff f4 	l.addi r1,r1,0xfffffff4
    3d88:	d4 01 10 04 	l.sw 0x4(r1),r2
    3d8c:	9c 41 00 0c 	l.addi r2,r1,0xc
    3d90:	d4 01 48 00 	l.sw 0x0(r1),r9
    3d94:	d4 01 50 08 	l.sw 0x8(r1),r10
    3d98:	84 a4 00 08 	l.lwz r5,0x8(r4)
    3d9c:	9d 60 00 00 	l.addi r11,r0,0x0
    3da0:	e4 25 58 00 	l.sfne r5,r11
    3da4:	10 00 00 04 	l.bf 3db4 <___sprint+0x30>
    3da8:	a9 44 00 00 	l.ori r10,r4,0x0
    3dac:	00 00 00 07 	l.j 3dc8 <___sprint+0x44>
    3db0:	d4 04 58 04 	l.sw 0x4(r4),r11
    3db4:	04 00 0a 54 	l.jal 6704 <___sfvwrite>
    3db8:	15 00 00 00 	l.nop 0x0
    3dbc:	9c 60 00 00 	l.addi r3,r0,0x0
    3dc0:	d4 0a 18 04 	l.sw 0x4(r10),r3
    3dc4:	d4 0a 18 08 	l.sw 0x8(r10),r3
    3dc8:	85 21 00 00 	l.lwz r9,0x0(r1)
    3dcc:	84 41 00 04 	l.lwz r2,0x4(r1)
    3dd0:	85 41 00 08 	l.lwz r10,0x8(r1)
    3dd4:	44 00 48 00 	l.jr r9
    3dd8:	9c 21 00 0c 	l.addi r1,r1,0xc

00003ddc <__vfprintf_r>:
    3ddc:	9c 21 f9 30 	l.addi r1,r1,0xfffff930
    3de0:	d4 01 10 10 	l.sw 0x10(r1),r2
    3de4:	9c 41 06 d0 	l.addi r2,r1,0x6d0
    3de8:	d4 01 48 0c 	l.sw 0xc(r1),r9
    3dec:	d4 01 50 14 	l.sw 0x14(r1),r10
    3df0:	d4 01 60 18 	l.sw 0x18(r1),r12
    3df4:	d4 01 70 1c 	l.sw 0x1c(r1),r14
    3df8:	d4 01 80 20 	l.sw 0x20(r1),r16
    3dfc:	d4 01 90 24 	l.sw 0x24(r1),r18
    3e00:	d4 01 a0 28 	l.sw 0x28(r1),r20
    3e04:	d4 01 b0 2c 	l.sw 0x2c(r1),r22
    3e08:	d4 01 c0 30 	l.sw 0x30(r1),r24
    3e0c:	d4 01 d0 34 	l.sw 0x34(r1),r26
    3e10:	d4 01 e0 38 	l.sw 0x38(r1),r28
    3e14:	d4 01 f0 3c 	l.sw 0x3c(r1),r30
    3e18:	d7 e2 19 9c 	l.sw 0xfffff99c(r2),r3
    3e1c:	ab 84 00 00 	l.ori r28,r4,0x0
    3e20:	9c 60 00 00 	l.addi r3,r0,0x0
    3e24:	a9 45 00 00 	l.ori r10,r5,0x0
    3e28:	ab c6 00 00 	l.ori r30,r6,0x0
    3e2c:	04 00 0d 96 	l.jal 7484 <_localeconv>
    3e30:	d7 e2 19 84 	l.sw 0xfffff984(r2),r3
    3e34:	18 60 00 01 	l.movhi r3,0x1
    3e38:	a8 63 0a a8 	l.ori r3,r3,0xaa8
    3e3c:	84 82 f9 84 	l.lwz r4,0xfffff984(r2)
    3e40:	e0 a0 00 04 	l.or r5,r0,r0
    3e44:	18 c0 00 00 	l.movhi r6,0x0
    3e48:	a8 c6 00 00 	l.ori r6,r6,0x0
    3e4c:	d7 e2 29 88 	l.sw 0xfffff988(r2),r5
    3e50:	d7 e2 31 8c 	l.sw 0xfffff98c(r2),r6
    3e54:	85 6b 00 00 	l.lwz r11,0x0(r11)
    3e58:	84 63 00 00 	l.lwz r3,0x0(r3)
    3e5c:	d7 e2 59 90 	l.sw 0xfffff990(r2),r11
    3e60:	d7 e2 21 7c 	l.sw 0xfffff97c(r2),r4
    3e64:	bc 03 00 00 	l.sfeqi r3,0x0
    3e68:	10 00 00 06 	l.bf 3e80 <__vfprintf_r+0xa4>
    3e6c:	d7 e2 21 78 	l.sw 0xfffff978(r2),r4
    3e70:	84 83 00 38 	l.lwz r4,0x38(r3)
    3e74:	bc 24 00 00 	l.sfnei r4,0x0
    3e78:	0c 00 00 61 	l.bnf 3ffc <__vfprintf_r+0x220>
    3e7c:	15 00 00 00 	l.nop 0x0
    3e80:	94 9c 00 0c 	l.lhz r4,0xc(r28)
    3e84:	a4 64 ff ff 	l.andi r3,r4,0xffff
    3e88:	b8 63 00 43 	l.srli r3,r3,0x3
    3e8c:	ac 63 00 01 	l.xori r3,r3,0x1
    3e90:	a4 63 00 01 	l.andi r3,r3,0x1
    3e94:	bc 23 00 00 	l.sfnei r3,0x0
    3e98:	10 00 00 52 	l.bf 3fe0 <__vfprintf_r+0x204>
    3e9c:	15 00 00 00 	l.nop 0x0
    3ea0:	84 7c 00 10 	l.lwz r3,0x10(r28)
    3ea4:	bc 23 00 00 	l.sfnei r3,0x0
    3ea8:	0c 00 00 4e 	l.bnf 3fe0 <__vfprintf_r+0x204>
    3eac:	15 00 00 00 	l.nop 0x0
    3eb0:	a4 64 00 1a 	l.andi r3,r4,0x1a
    3eb4:	bc 23 00 0a 	l.sfnei r3,0xa
    3eb8:	10 00 00 08 	l.bf 3ed8 <__vfprintf_r+0xfc>
    3ebc:	9c 60 00 00 	l.addi r3,r0,0x0
    3ec0:	94 bc 00 0e 	l.lhz r5,0xe(r28)
    3ec4:	b8 65 00 10 	l.slli r3,r5,0x10
    3ec8:	b8 63 00 90 	l.srai r3,r3,0x10
    3ecc:	bd 83 00 00 	l.sfltsi r3,0x0
    3ed0:	0c 00 00 59 	l.bnf 4034 <__vfprintf_r+0x258>
    3ed4:	9c 60 00 00 	l.addi r3,r0,0x0
    3ed8:	9d 02 ff a8 	l.addi r8,r2,0xffffffa8
    3edc:	a9 ca 00 00 	l.ori r14,r10,0x0
    3ee0:	d7 e2 47 e8 	l.sw 0xffffffe8(r2),r8
    3ee4:	d7 e2 1f f0 	l.sw 0xfffffff0(r2),r3
    3ee8:	d7 e2 1f ec 	l.sw 0xffffffec(r2),r3
    3eec:	aa 08 00 00 	l.ori r16,r8,0x0
    3ef0:	d7 e2 19 98 	l.sw 0xfffff998(r2),r3
    3ef4:	aa 4e 00 00 	l.ori r18,r14,0x0
    3ef8:	8c 8e 00 00 	l.lbz r4,0x0(r14)
    3efc:	9c a0 00 00 	l.addi r5,r0,0x0
    3f00:	b8 64 00 18 	l.slli r3,r4,0x18
    3f04:	b8 63 00 98 	l.srai r3,r3,0x18
    3f08:	e4 03 28 00 	l.sfeq r3,r5
    3f0c:	10 00 00 03 	l.bf 3f18 <__vfprintf_r+0x13c>
    3f10:	bc 03 00 25 	l.sfeqi r3,0x25
    3f14:	9c a0 00 01 	l.addi r5,r0,0x1
    3f18:	10 00 00 03 	l.bf 3f24 <__vfprintf_r+0x148>
    3f1c:	9c 60 00 00 	l.addi r3,r0,0x0
    3f20:	9c 60 00 01 	l.addi r3,r0,0x1
    3f24:	e0 65 18 03 	l.and r3,r5,r3
    3f28:	bc 03 00 00 	l.sfeqi r3,0x0
    3f2c:	0f ff ff f3 	l.bnf 3ef8 <__vfprintf_r+0x11c>
    3f30:	9d ce 00 01 	l.addi r14,r14,0x1
    3f34:	9d ce ff ff 	l.addi r14,r14,0xffffffff
    3f38:	e1 8e 90 02 	l.sub r12,r14,r18
    3f3c:	bc 0c 00 00 	l.sfeqi r12,0x0
    3f40:	10 00 00 10 	l.bf 3f80 <__vfprintf_r+0x1a4>
    3f44:	84 62 ff f0 	l.lwz r3,0xfffffff0(r2)
    3f48:	e0 83 60 00 	l.add r4,r3,r12
    3f4c:	d4 10 90 00 	l.sw 0x0(r16),r18
    3f50:	84 62 ff ec 	l.lwz r3,0xffffffec(r2)
    3f54:	d4 10 60 04 	l.sw 0x4(r16),r12
    3f58:	9c 63 00 01 	l.addi r3,r3,0x1
    3f5c:	d7 e2 27 f0 	l.sw 0xfffffff0(r2),r4
    3f60:	9e 10 00 08 	l.addi r16,r16,0x8
    3f64:	bd a3 00 07 	l.sflesi r3,0x7
    3f68:	0c 00 00 29 	l.bnf 400c <__vfprintf_r+0x230>
    3f6c:	d7 e2 1f ec 	l.sw 0xffffffec(r2),r3
    3f70:	84 a2 f9 98 	l.lwz r5,0xfffff998(r2)
    3f74:	8c 8e 00 00 	l.lbz r4,0x0(r14)
    3f78:	e0 a5 60 00 	l.add r5,r5,r12
    3f7c:	d7 e2 29 98 	l.sw 0xfffff998(r2),r5
    3f80:	b8 64 00 18 	l.slli r3,r4,0x18
    3f84:	b8 63 00 98 	l.srai r3,r3,0x18
    3f88:	bc 23 00 00 	l.sfnei r3,0x0
    3f8c:	0c 00 06 77 	l.bnf 5968 <__vfprintf_r+0x1b8c>
    3f90:	9f 40 00 00 	l.addi r26,r0,0x0
    3f94:	9d ce 00 01 	l.addi r14,r14,0x1
    3f98:	d7 e2 d1 94 	l.sw 0xfffff994(r2),r26
    3f9c:	9f 00 ff ff 	l.addi r24,r0,0xffffffff
    3fa0:	8c 8e 00 00 	l.lbz r4,0x0(r14)
    3fa4:	d7 e2 d1 80 	l.sw 0xfffff980(r2),r26
    3fa8:	db e2 d7 ff 	l.sb 0xffffffff(r2),r26
    3fac:	ba c4 00 18 	l.slli r22,r4,0x18
    3fb0:	ba d6 00 98 	l.srai r22,r22,0x18
    3fb4:	9d ce 00 01 	l.addi r14,r14,0x1
    3fb8:	9c 76 ff e0 	l.addi r3,r22,0xffffffe0
    3fbc:	bc 43 00 58 	l.sfgtui r3,0x58
    3fc0:	10 00 01 c2 	l.bf 46c8 <__vfprintf_r+0x8ec>
    3fc4:	b8 63 00 02 	l.slli r3,r3,0x2
    3fc8:	18 c0 00 01 	l.movhi r6,0x1
    3fcc:	a8 c6 01 9c 	l.ori r6,r6,0x19c
    3fd0:	e0 63 30 00 	l.add r3,r3,r6
    3fd4:	84 63 00 00 	l.lwz r3,0x0(r3)
    3fd8:	44 00 18 00 	l.jr r3
    3fdc:	15 00 00 00 	l.nop 0x0
    3fe0:	04 00 0d 35 	l.jal 74b4 <___swsetup>
    3fe4:	a8 7c 00 00 	l.ori r3,r28,0x0
    3fe8:	bc 0b 00 00 	l.sfeqi r11,0x0
    3fec:	0c 00 06 89 	l.bnf 5a10 <__vfprintf_r+0x1c34>
    3ff0:	9d 60 ff ff 	l.addi r11,r0,0xffffffff
    3ff4:	03 ff ff af 	l.j 3eb0 <__vfprintf_r+0xd4>
    3ff8:	94 9c 00 0c 	l.lhz r4,0xc(r28)
    3ffc:	04 00 07 16 	l.jal 5c54 <___sinit>
    4000:	15 00 00 00 	l.nop 0x0
    4004:	03 ff ff a0 	l.j 3e84 <__vfprintf_r+0xa8>
    4008:	94 9c 00 0c 	l.lhz r4,0xc(r28)
    400c:	a8 7c 00 00 	l.ori r3,r28,0x0
    4010:	07 ff ff 5d 	l.jal 3d84 <___sprint>
    4014:	9c 82 ff e8 	l.addi r4,r2,0xffffffe8
    4018:	bc 0b 00 00 	l.sfeqi r11,0x0
    401c:	0c 00 03 1a 	l.bnf 4c84 <__vfprintf_r+0xea8>
    4020:	9e 02 ff a8 	l.addi r16,r2,0xffffffa8
    4024:	03 ff ff d4 	l.j 3f74 <__vfprintf_r+0x198>
    4028:	84 a2 f9 98 	l.lwz r5,0xfffff998(r2)
    402c:	00 00 06 79 	l.j 5a10 <__vfprintf_r+0x1c34>
    4030:	9d 60 ff ff 	l.addi r11,r0,0xffffffff
    4034:	9c c0 ff fd 	l.addi r6,r0,0xfffffffd
    4038:	df e2 2d fa 	l.sh 0xfffffdfa(r2),r5
    403c:	e0 64 30 03 	l.and r3,r4,r6
    4040:	9c a0 04 00 	l.addi r5,r0,0x400
    4044:	df e2 1d f8 	l.sh 0xfffffdf8(r2),r3
    4048:	9c 82 f9 ec 	l.addi r4,r2,0xfffff9ec
    404c:	9c c0 00 00 	l.addi r6,r0,0x0
    4050:	84 7c 00 24 	l.lwz r3,0x24(r28)
    4054:	9d 82 fd ec 	l.addi r12,r2,0xfffffdec
    4058:	85 1c 00 1c 	l.lwz r8,0x1c(r28)
    405c:	d7 e2 1e 10 	l.sw 0xfffffe10(r2),r3
    4060:	d7 e2 2d f4 	l.sw 0xfffffdf4(r2),r5
    4064:	d7 e2 2e 00 	l.sw 0xfffffe00(r2),r5
    4068:	d7 e2 25 fc 	l.sw 0xfffffdfc(r2),r4
    406c:	d7 e2 25 ec 	l.sw 0xfffffdec(r2),r4
    4070:	d7 e2 36 04 	l.sw 0xfffffe04(r2),r6
    4074:	84 62 f9 9c 	l.lwz r3,0xfffff99c(r2)
    4078:	a8 aa 00 00 	l.ori r5,r10,0x0
    407c:	a8 de 00 00 	l.ori r6,r30,0x0
    4080:	d7 e2 46 08 	l.sw 0xfffffe08(r2),r8
    4084:	07 ff ff 56 	l.jal 3ddc <__vfprintf_r>
    4088:	a8 8c 00 00 	l.ori r4,r12,0x0
    408c:	bd 8b 00 00 	l.sfltsi r11,0x0
    4090:	0c 00 06 0b 	l.bnf 58bc <__vfprintf_r+0x1ae0>
    4094:	a9 4b 00 00 	l.ori r10,r11,0x0
    4098:	94 62 fd f8 	l.lhz r3,0xfffffdf8(r2)
    409c:	b8 63 00 46 	l.srli r3,r3,0x6
    40a0:	a4 63 00 01 	l.andi r3,r3,0x1
    40a4:	bc 03 00 00 	l.sfeqi r3,0x0
    40a8:	10 00 00 05 	l.bf 40bc <__vfprintf_r+0x2e0>
    40ac:	15 00 00 00 	l.nop 0x0
    40b0:	94 7c 00 0c 	l.lhz r3,0xc(r28)
    40b4:	a8 63 00 40 	l.ori r3,r3,0x40
    40b8:	dc 1c 18 0c 	l.sh 0xc(r28),r3
    40bc:	00 00 06 55 	l.j 5a10 <__vfprintf_r+0x1c34>
    40c0:	a9 6a 00 00 	l.ori r11,r10,0x0
    40c4:	ab 5a 00 10 	l.ori r26,r26,0x10
    40c8:	b8 7a 00 44 	l.srli r3,r26,0x4
    40cc:	a4 63 00 01 	l.andi r3,r3,0x1
    40d0:	bc 03 00 00 	l.sfeqi r3,0x0
    40d4:	0c 00 03 9c 	l.bnf 4f44 <__vfprintf_r+0x1168>
    40d8:	b8 7a 00 46 	l.srli r3,r26,0x6
    40dc:	a4 63 00 01 	l.andi r3,r3,0x1
    40e0:	bc 03 00 00 	l.sfeqi r3,0x0
    40e4:	10 00 03 98 	l.bf 4f44 <__vfprintf_r+0x1168>
    40e8:	15 00 00 00 	l.nop 0x0
    40ec:	95 5e 00 02 	l.lhz r10,0x2(r30)
    40f0:	9f de 00 04 	l.addi r30,r30,0x4
    40f4:	9c a0 00 01 	l.addi r5,r0,0x1
    40f8:	9c 60 00 00 	l.addi r3,r0,0x0
    40fc:	db e2 1f ff 	l.sb 0xffffffff(r2),r3
    4100:	bd 98 00 00 	l.sfltsi r24,0x0
    4104:	10 00 00 04 	l.bf 4114 <__vfprintf_r+0x338>
    4108:	d7 e2 c1 80 	l.sw 0xfffff980(r2),r24
    410c:	9c 80 ff 7f 	l.addi r4,r0,0xffffff7f
    4110:	e3 5a 20 03 	l.and r26,r26,r4
    4114:	9c 80 00 00 	l.addi r4,r0,0x0
    4118:	e4 0a 20 00 	l.sfeq r10,r4
    411c:	10 00 00 03 	l.bf 4128 <__vfprintf_r+0x34c>
    4120:	9e 42 ff a8 	l.addi r18,r2,0xffffffa8
    4124:	9c 80 00 01 	l.addi r4,r0,0x1
    4128:	84 c2 f9 80 	l.lwz r6,0xfffff980(r2)
    412c:	9c 60 00 00 	l.addi r3,r0,0x0
    4130:	e4 06 18 00 	l.sfeq r6,r3
    4134:	10 00 00 04 	l.bf 4144 <__vfprintf_r+0x368>
    4138:	e0 64 18 04 	l.or r3,r4,r3
    413c:	9c 60 00 01 	l.addi r3,r0,0x1
    4140:	e0 64 18 04 	l.or r3,r4,r3
    4144:	bc 03 00 00 	l.sfeqi r3,0x0
    4148:	10 00 02 c0 	l.bf 4c48 <__vfprintf_r+0xe6c>
    414c:	bc 25 00 00 	l.sfnei r5,0x0
    4150:	bc 05 00 01 	l.sfeqi r5,0x1
    4154:	10 00 01 11 	l.bf 4598 <__vfprintf_r+0x7bc>
    4158:	bc aa 00 09 	l.sfleui r10,0x9
    415c:	bd 45 00 01 	l.sfgtsi r5,0x1
    4160:	10 00 03 a9 	l.bf 5004 <__vfprintf_r+0x1228>
    4164:	bc 05 00 02 	l.sfeqi r5,0x2
    4168:	bc 05 00 00 	l.sfeqi r5,0x0
    416c:	10 00 01 1c 	l.bf 45dc <__vfprintf_r+0x800>
    4170:	a4 6a 00 07 	l.andi r3,r10,0x7
    4174:	1a 40 00 01 	l.movhi r18,0x1
    4178:	aa 52 03 00 	l.ori r18,r18,0x300
    417c:	04 00 0d 30 	l.jal 763c <_strlen>
    4180:	a8 72 00 00 	l.ori r3,r18,0x0
    4184:	aa 8b 00 00 	l.ori r20,r11,0x0
    4188:	85 02 f9 80 	l.lwz r8,0xfffff980(r2)
    418c:	e5 74 40 00 	l.sfges r20,r8
    4190:	10 00 00 03 	l.bf 419c <__vfprintf_r+0x3c0>
    4194:	ab 14 00 00 	l.ori r24,r20,0x0
    4198:	ab 08 00 00 	l.ori r24,r8,0x0
    419c:	8c 82 ff ff 	l.lbz r4,0xffffffff(r2)
    41a0:	b8 64 00 18 	l.slli r3,r4,0x18
    41a4:	b8 63 00 98 	l.srai r3,r3,0x18
    41a8:	bc 03 00 00 	l.sfeqi r3,0x0
    41ac:	10 00 02 2b 	l.bf 4a58 <__vfprintf_r+0xc7c>
    41b0:	b8 7a 00 41 	l.srli r3,r26,0x1
    41b4:	9f 18 00 01 	l.addi r24,r24,0x1
    41b8:	a5 9a 00 84 	l.andi r12,r26,0x84
    41bc:	bc 2c 00 00 	l.sfnei r12,0x0
    41c0:	10 00 00 27 	l.bf 425c <__vfprintf_r+0x480>
    41c4:	84 62 f9 94 	l.lwz r3,0xfffff994(r2)
    41c8:	e1 43 c0 02 	l.sub r10,r3,r24
    41cc:	bd aa 00 00 	l.sflesi r10,0x0
    41d0:	10 00 00 23 	l.bf 425c <__vfprintf_r+0x480>
    41d4:	bd aa 00 10 	l.sflesi r10,0x10
    41d8:	10 00 00 14 	l.bf 4228 <__vfprintf_r+0x44c>
    41dc:	84 62 ff f0 	l.lwz r3,0xfffffff0(r2)
    41e0:	18 80 00 01 	l.movhi r4,0x1
    41e4:	a8 84 01 74 	l.ori r4,r4,0x174
    41e8:	84 62 ff f0 	l.lwz r3,0xfffffff0(r2)
    41ec:	9c a0 00 10 	l.addi r5,r0,0x10
    41f0:	d4 10 20 00 	l.sw 0x0(r16),r4
    41f4:	d4 10 28 04 	l.sw 0x4(r16),r5
    41f8:	e0 83 28 00 	l.add r4,r3,r5
    41fc:	9e 10 00 08 	l.addi r16,r16,0x8
    4200:	84 62 ff ec 	l.lwz r3,0xffffffec(r2)
    4204:	9c 63 00 01 	l.addi r3,r3,0x1
    4208:	d7 e2 27 f0 	l.sw 0xfffffff0(r2),r4
    420c:	bd a3 00 07 	l.sflesi r3,0x7
    4210:	0c 00 00 ea 	l.bnf 45b8 <__vfprintf_r+0x7dc>
    4214:	d7 e2 1f ec 	l.sw 0xffffffec(r2),r3
    4218:	9d 4a ff f0 	l.addi r10,r10,0xfffffff0
    421c:	bd aa 00 10 	l.sflesi r10,0x10
    4220:	0f ff ff f0 	l.bnf 41e0 <__vfprintf_r+0x404>
    4224:	84 62 ff f0 	l.lwz r3,0xfffffff0(r2)
    4228:	18 c0 00 01 	l.movhi r6,0x1
    422c:	a8 c6 01 74 	l.ori r6,r6,0x174
    4230:	e0 83 50 00 	l.add r4,r3,r10
    4234:	d4 10 30 00 	l.sw 0x0(r16),r6
    4238:	84 62 ff ec 	l.lwz r3,0xffffffec(r2)
    423c:	d4 10 50 04 	l.sw 0x4(r16),r10
    4240:	9c 63 00 01 	l.addi r3,r3,0x1
    4244:	d7 e2 27 f0 	l.sw 0xfffffff0(r2),r4
    4248:	9e 10 00 08 	l.addi r16,r16,0x8
    424c:	bd a3 00 07 	l.sflesi r3,0x7
    4250:	0c 00 03 7a 	l.bnf 5038 <__vfprintf_r+0x125c>
    4254:	d7 e2 1f ec 	l.sw 0xffffffec(r2),r3
    4258:	8c 82 ff ff 	l.lbz r4,0xffffffff(r2)
    425c:	b8 64 00 18 	l.slli r3,r4,0x18
    4260:	b8 63 00 98 	l.srai r3,r3,0x18
    4264:	bc 03 00 00 	l.sfeqi r3,0x0
    4268:	10 00 02 02 	l.bf 4a70 <__vfprintf_r+0xc94>
    426c:	b8 7a 00 41 	l.srli r3,r26,0x1
    4270:	84 62 ff f0 	l.lwz r3,0xfffffff0(r2)
    4274:	9d 00 00 01 	l.addi r8,r0,0x1
    4278:	e0 83 40 00 	l.add r4,r3,r8
    427c:	d4 10 40 04 	l.sw 0x4(r16),r8
    4280:	9c 62 ff ff 	l.addi r3,r2,0xffffffff
    4284:	d7 e2 27 f0 	l.sw 0xfffffff0(r2),r4
    4288:	d4 10 18 00 	l.sw 0x0(r16),r3
    428c:	84 62 ff ec 	l.lwz r3,0xffffffec(r2)
    4290:	9e 10 00 08 	l.addi r16,r16,0x8
    4294:	e0 63 40 00 	l.add r3,r3,r8
    4298:	bd a3 00 07 	l.sflesi r3,0x7
    429c:	0c 00 02 09 	l.bnf 4ac0 <__vfprintf_r+0xce4>
    42a0:	d7 e2 1f ec 	l.sw 0xffffffec(r2),r3
    42a4:	bc 2c 00 80 	l.sfnei r12,0x80
    42a8:	10 00 00 2e 	l.bf 4360 <__vfprintf_r+0x584>
    42ac:	84 c2 f9 80 	l.lwz r6,0xfffff980(r2)
    42b0:	85 02 f9 94 	l.lwz r8,0xfffff994(r2)
    42b4:	e1 48 c0 02 	l.sub r10,r8,r24
    42b8:	bd aa 00 00 	l.sflesi r10,0x0
    42bc:	10 00 00 29 	l.bf 4360 <__vfprintf_r+0x584>
    42c0:	bd aa 00 10 	l.sflesi r10,0x10
    42c4:	10 00 00 14 	l.bf 4314 <__vfprintf_r+0x538>
    42c8:	84 62 ff f0 	l.lwz r3,0xfffffff0(r2)
    42cc:	18 60 00 01 	l.movhi r3,0x1
    42d0:	a8 63 01 84 	l.ori r3,r3,0x184
    42d4:	9c 80 00 10 	l.addi r4,r0,0x10
    42d8:	d4 10 18 00 	l.sw 0x0(r16),r3
    42dc:	d4 10 20 04 	l.sw 0x4(r16),r4
    42e0:	84 62 ff f0 	l.lwz r3,0xfffffff0(r2)
    42e4:	9e 10 00 08 	l.addi r16,r16,0x8
    42e8:	e0 83 20 00 	l.add r4,r3,r4
    42ec:	84 62 ff ec 	l.lwz r3,0xffffffec(r2)
    42f0:	9c 63 00 01 	l.addi r3,r3,0x1
    42f4:	d7 e2 27 f0 	l.sw 0xfffffff0(r2),r4
    42f8:	bd a3 00 07 	l.sflesi r3,0x7
    42fc:	0c 00 01 bf 	l.bnf 49f8 <__vfprintf_r+0xc1c>
    4300:	d7 e2 1f ec 	l.sw 0xffffffec(r2),r3
    4304:	9d 4a ff f0 	l.addi r10,r10,0xfffffff0
    4308:	bd aa 00 10 	l.sflesi r10,0x10
    430c:	0f ff ff f0 	l.bnf 42cc <__vfprintf_r+0x4f0>
    4310:	84 62 ff f0 	l.lwz r3,0xfffffff0(r2)
    4314:	18 a0 00 01 	l.movhi r5,0x1
    4318:	a8 a5 01 84 	l.ori r5,r5,0x184
    431c:	e0 83 50 00 	l.add r4,r3,r10
    4320:	d4 10 28 00 	l.sw 0x0(r16),r5
    4324:	84 62 ff ec 	l.lwz r3,0xffffffec(r2)
    4328:	d4 10 50 04 	l.sw 0x4(r16),r10
    432c:	9c 63 00 01 	l.addi r3,r3,0x1
    4330:	d7 e2 27 f0 	l.sw 0xfffffff0(r2),r4
    4334:	9e 10 00 08 	l.addi r16,r16,0x8
    4338:	bd a3 00 07 	l.sflesi r3,0x7
    433c:	10 00 00 08 	l.bf 435c <__vfprintf_r+0x580>
    4340:	d7 e2 1f ec 	l.sw 0xffffffec(r2),r3
    4344:	a8 7c 00 00 	l.ori r3,r28,0x0
    4348:	07 ff fe 8f 	l.jal 3d84 <___sprint>
    434c:	9c 82 ff e8 	l.addi r4,r2,0xffffffe8
    4350:	bc 0b 00 00 	l.sfeqi r11,0x0
    4354:	0c 00 02 4c 	l.bnf 4c84 <__vfprintf_r+0xea8>
    4358:	9e 02 ff a8 	l.addi r16,r2,0xffffffa8
    435c:	84 c2 f9 80 	l.lwz r6,0xfffff980(r2)
    4360:	e1 46 a0 02 	l.sub r10,r6,r20
    4364:	bd aa 00 00 	l.sflesi r10,0x0
    4368:	10 00 00 2a 	l.bf 4410 <__vfprintf_r+0x634>
    436c:	b8 7a 00 48 	l.srli r3,r26,0x8
    4370:	bd aa 00 10 	l.sflesi r10,0x10
    4374:	10 00 00 13 	l.bf 43c0 <__vfprintf_r+0x5e4>
    4378:	9c 60 00 10 	l.addi r3,r0,0x10
    437c:	19 00 00 01 	l.movhi r8,0x1
    4380:	a9 08 01 84 	l.ori r8,r8,0x184
    4384:	d4 10 18 04 	l.sw 0x4(r16),r3
    4388:	d4 10 40 00 	l.sw 0x0(r16),r8
    438c:	84 62 ff f0 	l.lwz r3,0xfffffff0(r2)
    4390:	9e 10 00 08 	l.addi r16,r16,0x8
    4394:	9c 83 00 10 	l.addi r4,r3,0x10
    4398:	84 62 ff ec 	l.lwz r3,0xffffffec(r2)
    439c:	9c 63 00 01 	l.addi r3,r3,0x1
    43a0:	d7 e2 27 f0 	l.sw 0xfffffff0(r2),r4
    43a4:	bd a3 00 07 	l.sflesi r3,0x7
    43a8:	0c 00 01 9c 	l.bnf 4a18 <__vfprintf_r+0xc3c>
    43ac:	d7 e2 1f ec 	l.sw 0xffffffec(r2),r3
    43b0:	9d 4a ff f0 	l.addi r10,r10,0xfffffff0
    43b4:	bd aa 00 10 	l.sflesi r10,0x10
    43b8:	0f ff ff f1 	l.bnf 437c <__vfprintf_r+0x5a0>
    43bc:	9c 60 00 10 	l.addi r3,r0,0x10
    43c0:	18 80 00 01 	l.movhi r4,0x1
    43c4:	a8 84 01 84 	l.ori r4,r4,0x184
    43c8:	84 62 ff f0 	l.lwz r3,0xfffffff0(r2)
    43cc:	d4 10 20 00 	l.sw 0x0(r16),r4
    43d0:	d4 10 50 04 	l.sw 0x4(r16),r10
    43d4:	e0 83 50 00 	l.add r4,r3,r10
    43d8:	9e 10 00 08 	l.addi r16,r16,0x8
    43dc:	84 62 ff ec 	l.lwz r3,0xffffffec(r2)
    43e0:	9c 63 00 01 	l.addi r3,r3,0x1
    43e4:	d7 e2 27 f0 	l.sw 0xfffffff0(r2),r4
    43e8:	bd a3 00 07 	l.sflesi r3,0x7
    43ec:	10 00 00 08 	l.bf 440c <__vfprintf_r+0x630>
    43f0:	d7 e2 1f ec 	l.sw 0xffffffec(r2),r3
    43f4:	a8 7c 00 00 	l.ori r3,r28,0x0
    43f8:	07 ff fe 63 	l.jal 3d84 <___sprint>
    43fc:	9c 82 ff e8 	l.addi r4,r2,0xffffffe8
    4400:	bc 0b 00 00 	l.sfeqi r11,0x0
    4404:	0c 00 02 20 	l.bnf 4c84 <__vfprintf_r+0xea8>
    4408:	9e 02 ff a8 	l.addi r16,r2,0xffffffa8
    440c:	b8 7a 00 48 	l.srli r3,r26,0x8
    4410:	ac 63 00 01 	l.xori r3,r3,0x1
    4414:	a4 63 00 01 	l.andi r3,r3,0x1
    4418:	bc 03 00 00 	l.sfeqi r3,0x0
    441c:	10 00 01 b1 	l.bf 4ae0 <__vfprintf_r+0xd04>
    4420:	bd b6 00 65 	l.sflesi r22,0x65
    4424:	84 62 ff f0 	l.lwz r3,0xfffffff0(r2)
    4428:	e0 83 a0 00 	l.add r4,r3,r20
    442c:	d4 10 90 00 	l.sw 0x0(r16),r18
    4430:	84 62 ff ec 	l.lwz r3,0xffffffec(r2)
    4434:	d4 10 a0 04 	l.sw 0x4(r16),r20
    4438:	9c 63 00 01 	l.addi r3,r3,0x1
    443c:	d7 e2 27 f0 	l.sw 0xfffffff0(r2),r4
    4440:	9e 10 00 08 	l.addi r16,r16,0x8
    4444:	d7 e2 1f ec 	l.sw 0xffffffec(r2),r3
    4448:	bd a3 00 07 	l.sflesi r3,0x7
    444c:	0c 00 02 1a 	l.bnf 4cb4 <__vfprintf_r+0xed8>
    4450:	a8 7c 00 00 	l.ori r3,r28,0x0
    4454:	b8 7a 00 42 	l.srli r3,r26,0x2
    4458:	a4 63 00 01 	l.andi r3,r3,0x1
    445c:	bc 03 00 00 	l.sfeqi r3,0x0
    4460:	10 00 00 2e 	l.bf 4518 <__vfprintf_r+0x73c>
    4464:	84 c2 f9 94 	l.lwz r6,0xfffff994(r2)
    4468:	85 02 f9 94 	l.lwz r8,0xfffff994(r2)
    446c:	e1 48 c0 02 	l.sub r10,r8,r24
    4470:	bd aa 00 00 	l.sflesi r10,0x0
    4474:	10 00 00 2a 	l.bf 451c <__vfprintf_r+0x740>
    4478:	e5 78 30 00 	l.sfges r24,r6
    447c:	bd aa 00 10 	l.sflesi r10,0x10
    4480:	10 00 00 14 	l.bf 44d0 <__vfprintf_r+0x6f4>
    4484:	84 62 ff f0 	l.lwz r3,0xfffffff0(r2)
    4488:	18 60 00 01 	l.movhi r3,0x1
    448c:	a8 63 01 74 	l.ori r3,r3,0x174
    4490:	9c 80 00 10 	l.addi r4,r0,0x10
    4494:	d4 10 18 00 	l.sw 0x0(r16),r3
    4498:	d4 10 20 04 	l.sw 0x4(r16),r4
    449c:	84 62 ff f0 	l.lwz r3,0xfffffff0(r2)
    44a0:	9e 10 00 08 	l.addi r16,r16,0x8
    44a4:	e0 83 20 00 	l.add r4,r3,r4
    44a8:	84 62 ff ec 	l.lwz r3,0xffffffec(r2)
    44ac:	9c 63 00 01 	l.addi r3,r3,0x1
    44b0:	d7 e2 27 f0 	l.sw 0xfffffff0(r2),r4
    44b4:	bd a3 00 07 	l.sflesi r3,0x7
    44b8:	0c 00 01 60 	l.bnf 4a38 <__vfprintf_r+0xc5c>
    44bc:	d7 e2 1f ec 	l.sw 0xffffffec(r2),r3
    44c0:	9d 4a ff f0 	l.addi r10,r10,0xfffffff0
    44c4:	bd aa 00 10 	l.sflesi r10,0x10
    44c8:	0f ff ff f0 	l.bnf 4488 <__vfprintf_r+0x6ac>
    44cc:	84 62 ff f0 	l.lwz r3,0xfffffff0(r2)
    44d0:	18 a0 00 01 	l.movhi r5,0x1
    44d4:	a8 a5 01 74 	l.ori r5,r5,0x174
    44d8:	e0 83 50 00 	l.add r4,r3,r10
    44dc:	d4 10 28 00 	l.sw 0x0(r16),r5
    44e0:	84 62 ff ec 	l.lwz r3,0xffffffec(r2)
    44e4:	9c 63 00 01 	l.addi r3,r3,0x1
    44e8:	d4 10 50 04 	l.sw 0x4(r16),r10
    44ec:	d7 e2 27 f0 	l.sw 0xfffffff0(r2),r4
    44f0:	bd a3 00 07 	l.sflesi r3,0x7
    44f4:	10 00 00 08 	l.bf 4514 <__vfprintf_r+0x738>
    44f8:	d7 e2 1f ec 	l.sw 0xffffffec(r2),r3
    44fc:	a8 7c 00 00 	l.ori r3,r28,0x0
    4500:	07 ff fe 21 	l.jal 3d84 <___sprint>
    4504:	9c 82 ff e8 	l.addi r4,r2,0xffffffe8
    4508:	bc 0b 00 00 	l.sfeqi r11,0x0
    450c:	0c 00 01 df 	l.bnf 4c88 <__vfprintf_r+0xeac>
    4510:	85 02 f9 78 	l.lwz r8,0xfffff978(r2)
    4514:	84 c2 f9 94 	l.lwz r6,0xfffff994(r2)
    4518:	e5 78 30 00 	l.sfges r24,r6
    451c:	10 00 00 03 	l.bf 4528 <__vfprintf_r+0x74c>
    4520:	a8 78 00 00 	l.ori r3,r24,0x0
    4524:	a8 66 00 00 	l.ori r3,r6,0x0
    4528:	85 02 f9 98 	l.lwz r8,0xfffff998(r2)
    452c:	e1 08 18 00 	l.add r8,r8,r3
    4530:	84 62 ff f0 	l.lwz r3,0xfffffff0(r2)
    4534:	bc 03 00 00 	l.sfeqi r3,0x0
    4538:	0c 00 01 cd 	l.bnf 4c6c <__vfprintf_r+0xe90>
    453c:	d7 e2 41 98 	l.sw 0xfffff998(r2),r8
    4540:	84 82 f9 78 	l.lwz r4,0xfffff978(r2)
    4544:	9c 60 00 00 	l.addi r3,r0,0x0
    4548:	9e 02 ff a8 	l.addi r16,r2,0xffffffa8
    454c:	e4 04 18 00 	l.sfeq r4,r3
    4550:	13 ff fe 69 	l.bf 3ef4 <__vfprintf_r+0x118>
    4554:	d7 e2 1f ec 	l.sw 0xffffffec(r2),r3
    4558:	9c a0 00 00 	l.addi r5,r0,0x0
    455c:	84 62 f9 9c 	l.lwz r3,0xfffff99c(r2)
    4560:	04 00 09 f7 	l.jal 6d3c <__free_r>
    4564:	d7 e2 29 78 	l.sw 0xfffff978(r2),r5
    4568:	03 ff fe 64 	l.j 3ef8 <__vfprintf_r+0x11c>
    456c:	aa 4e 00 00 	l.ori r18,r14,0x0
    4570:	9c 80 00 0a 	l.addi r4,r0,0xa
    4574:	04 00 28 ba 	l.jal e85c <___umodsi3>
    4578:	9e 52 ff ff 	l.addi r18,r18,0xffffffff
    457c:	9d 6b 00 30 	l.addi r11,r11,0x30
    4580:	a8 6a 00 00 	l.ori r3,r10,0x0
    4584:	d8 12 58 00 	l.sb 0x0(r18),r11
    4588:	07 ff fc 17 	l.jal 35e4 <___udivsi3>
    458c:	9c 80 00 0a 	l.addi r4,r0,0xa
    4590:	a9 4b 00 00 	l.ori r10,r11,0x0
    4594:	bc aa 00 09 	l.sfleui r10,0x9
    4598:	0f ff ff f6 	l.bnf 4570 <__vfprintf_r+0x794>
    459c:	a8 6a 00 00 	l.ori r3,r10,0x0
    45a0:	9e 52 ff ff 	l.addi r18,r18,0xffffffff
    45a4:	9c 6a 00 30 	l.addi r3,r10,0x30
    45a8:	d8 12 18 00 	l.sb 0x0(r18),r3
    45ac:	e0 82 90 02 	l.sub r4,r2,r18
    45b0:	03 ff fe f6 	l.j 4188 <__vfprintf_r+0x3ac>
    45b4:	9e 84 ff a8 	l.addi r20,r4,0xffffffa8
    45b8:	a8 7c 00 00 	l.ori r3,r28,0x0
    45bc:	07 ff fd f2 	l.jal 3d84 <___sprint>
    45c0:	9c 82 ff e8 	l.addi r4,r2,0xffffffe8
    45c4:	bc 0b 00 00 	l.sfeqi r11,0x0
    45c8:	0c 00 01 af 	l.bnf 4c84 <__vfprintf_r+0xea8>
    45cc:	9e 02 ff a8 	l.addi r16,r2,0xffffffa8
    45d0:	03 ff ff 13 	l.j 421c <__vfprintf_r+0x440>
    45d4:	9d 4a ff f0 	l.addi r10,r10,0xfffffff0
    45d8:	a4 6a 00 07 	l.andi r3,r10,0x7
    45dc:	9e 52 ff ff 	l.addi r18,r18,0xffffffff
    45e0:	b9 4a 00 43 	l.srli r10,r10,0x3
    45e4:	9c 63 00 30 	l.addi r3,r3,0x30
    45e8:	bc 0a 00 00 	l.sfeqi r10,0x0
    45ec:	0f ff ff fb 	l.bnf 45d8 <__vfprintf_r+0x7fc>
    45f0:	d8 12 18 00 	l.sb 0x0(r18),r3
    45f4:	a4 9a 00 01 	l.andi r4,r26,0x1
    45f8:	bc 04 00 00 	l.sfeqi r4,0x0
    45fc:	13 ff ff ed 	l.bf 45b0 <__vfprintf_r+0x7d4>
    4600:	e0 82 90 02 	l.sub r4,r2,r18
    4604:	bc 03 00 30 	l.sfeqi r3,0x30
    4608:	13 ff ff ea 	l.bf 45b0 <__vfprintf_r+0x7d4>
    460c:	9d 00 00 30 	l.addi r8,r0,0x30
    4610:	9e 52 ff ff 	l.addi r18,r18,0xffffffff
    4614:	03 ff ff e6 	l.j 45ac <__vfprintf_r+0x7d0>
    4618:	d8 12 40 00 	l.sb 0x0(r18),r8
    461c:	ab 5a 00 10 	l.ori r26,r26,0x10
    4620:	b8 7a 00 44 	l.srli r3,r26,0x4
    4624:	a4 63 00 01 	l.andi r3,r3,0x1
    4628:	bc 03 00 00 	l.sfeqi r3,0x0
    462c:	0c 00 02 48 	l.bnf 4f4c <__vfprintf_r+0x1170>
    4630:	b8 7a 00 46 	l.srli r3,r26,0x6
    4634:	a4 63 00 01 	l.andi r3,r3,0x1
    4638:	bc 03 00 00 	l.sfeqi r3,0x0
    463c:	10 00 02 44 	l.bf 4f4c <__vfprintf_r+0x1170>
    4640:	15 00 00 00 	l.nop 0x0
    4644:	99 5e 00 02 	l.lhs r10,0x2(r30)
    4648:	bd 6a 00 00 	l.sfgesi r10,0x0
    464c:	10 00 00 05 	l.bf 4660 <__vfprintf_r+0x884>
    4650:	9f de 00 04 	l.addi r30,r30,0x4
    4654:	9c a0 00 2d 	l.addi r5,r0,0x2d
    4658:	e1 40 50 02 	l.sub r10,r0,r10
    465c:	db e2 2f ff 	l.sb 0xffffffff(r2),r5
    4660:	03 ff fe a8 	l.j 4100 <__vfprintf_r+0x324>
    4664:	9c a0 00 01 	l.addi r5,r0,0x1
    4668:	ab 5a 00 10 	l.ori r26,r26,0x10
    466c:	b8 7a 00 44 	l.srli r3,r26,0x4
    4670:	a4 63 00 01 	l.andi r3,r3,0x1
    4674:	bc 03 00 00 	l.sfeqi r3,0x0
    4678:	0c 00 02 37 	l.bnf 4f54 <__vfprintf_r+0x1178>
    467c:	b8 7a 00 46 	l.srli r3,r26,0x6
    4680:	a4 63 00 01 	l.andi r3,r3,0x1
    4684:	bc 03 00 00 	l.sfeqi r3,0x0
    4688:	10 00 02 33 	l.bf 4f54 <__vfprintf_r+0x1178>
    468c:	15 00 00 00 	l.nop 0x0
    4690:	95 5e 00 02 	l.lhz r10,0x2(r30)
    4694:	9f de 00 04 	l.addi r30,r30,0x4
    4698:	03 ff fe 98 	l.j 40f8 <__vfprintf_r+0x31c>
    469c:	9c a0 00 00 	l.addi r5,r0,0x0
    46a0:	84 7e 00 00 	l.lwz r3,0x0(r30)
    46a4:	9f de 00 04 	l.addi r30,r30,0x4
    46a8:	bd 83 00 00 	l.sfltsi r3,0x0
    46ac:	0c 00 00 14 	l.bnf 46fc <__vfprintf_r+0x920>
    46b0:	d7 e2 19 94 	l.sw 0xfffff994(r2),r3
    46b4:	e0 60 18 02 	l.sub r3,r0,r3
    46b8:	d7 e2 19 94 	l.sw 0xfffff994(r2),r3
    46bc:	8c 8e 00 00 	l.lbz r4,0x0(r14)
    46c0:	03 ff fe 3b 	l.j 3fac <__vfprintf_r+0x1d0>
    46c4:	ab 5a 00 04 	l.ori r26,r26,0x4
    46c8:	bc 36 00 00 	l.sfnei r22,0x0
    46cc:	0c 00 04 a7 	l.bnf 5968 <__vfprintf_r+0x1b8c>
    46d0:	9e 42 fe 4c 	l.addi r18,r2,0xfffffe4c
    46d4:	9c c0 00 00 	l.addi r6,r0,0x0
    46d8:	d8 12 b0 00 	l.sb 0x0(r18),r22
    46dc:	9e 80 00 01 	l.addi r20,r0,0x1
    46e0:	03 ff fe aa 	l.j 4188 <__vfprintf_r+0x3ac>
    46e4:	db e2 37 ff 	l.sb 0xffffffff(r2),r6
    46e8:	90 62 ff ff 	l.lbs r3,0xffffffff(r2)
    46ec:	bc 23 00 00 	l.sfnei r3,0x0
    46f0:	10 00 00 03 	l.bf 46fc <__vfprintf_r+0x920>
    46f4:	9d 00 00 20 	l.addi r8,r0,0x20
    46f8:	db e2 47 ff 	l.sb 0xffffffff(r2),r8
    46fc:	03 ff fe 2c 	l.j 3fac <__vfprintf_r+0x1d0>
    4700:	8c 8e 00 00 	l.lbz r4,0x0(r14)
    4704:	85 5e 00 00 	l.lwz r10,0x0(r30)
    4708:	18 c0 00 01 	l.movhi r6,0x1
    470c:	a8 c6 03 1a 	l.ori r6,r6,0x31a
    4710:	ab 5a 00 02 	l.ori r26,r26,0x2
    4714:	9f de 00 04 	l.addi r30,r30,0x4
    4718:	9c a0 00 02 	l.addi r5,r0,0x2
    471c:	d7 e2 31 7c 	l.sw 0xfffff97c(r2),r6
    4720:	03 ff fe 76 	l.j 40f8 <__vfprintf_r+0x31c>
    4724:	9e c0 00 78 	l.addi r22,r0,0x78
    4728:	9d 00 00 00 	l.addi r8,r0,0x0
    472c:	a8 7e 00 00 	l.ori r3,r30,0x0
    4730:	db e2 47 ff 	l.sb 0xffffffff(r2),r8
    4734:	86 43 00 00 	l.lwz r18,0x0(r3)
    4738:	bc 32 00 00 	l.sfnei r18,0x0
    473c:	10 00 02 c7 	l.bf 5258 <__vfprintf_r+0x147c>
    4740:	9f de 00 04 	l.addi r30,r30,0x4
    4744:	1a 40 00 01 	l.movhi r18,0x1
    4748:	aa 52 03 2b 	l.ori r18,r18,0x32b
    474c:	03 ff fe 8f 	l.j 4188 <__vfprintf_r+0x3ac>
    4750:	9e 80 00 06 	l.addi r20,r0,0x6
    4754:	8c 8e 00 00 	l.lbz r4,0x0(r14)
    4758:	03 ff fe 15 	l.j 3fac <__vfprintf_r+0x1d0>
    475c:	ab 5a 00 10 	l.ori r26,r26,0x10
    4760:	8c 8e 00 00 	l.lbz r4,0x0(r14)
    4764:	03 ff fe 12 	l.j 3fac <__vfprintf_r+0x1d0>
    4768:	ab 5a 00 40 	l.ori r26,r26,0x40
    476c:	b8 7a 00 44 	l.srli r3,r26,0x4
    4770:	a4 63 00 01 	l.andi r3,r3,0x1
    4774:	bc 03 00 00 	l.sfeqi r3,0x0
    4778:	10 00 03 07 	l.bf 5394 <__vfprintf_r+0x15b8>
    477c:	b8 7a 00 46 	l.srli r3,r26,0x6
    4780:	84 7e 00 00 	l.lwz r3,0x0(r30)
    4784:	85 02 f9 98 	l.lwz r8,0xfffff998(r2)
    4788:	9f de 00 04 	l.addi r30,r30,0x4
    478c:	03 ff fd da 	l.j 3ef4 <__vfprintf_r+0x118>
    4790:	d4 03 40 00 	l.sw 0x0(r3),r8
    4794:	8c 8e 00 00 	l.lbz r4,0x0(r14)
    4798:	b8 64 00 18 	l.slli r3,r4,0x18
    479c:	b8 63 00 98 	l.srai r3,r3,0x18
    47a0:	bc 23 00 6c 	l.sfnei r3,0x6c
    47a4:	13 ff ff ed 	l.bf 4758 <__vfprintf_r+0x97c>
    47a8:	15 00 00 00 	l.nop 0x0
    47ac:	9d ce 00 01 	l.addi r14,r14,0x1
    47b0:	ab 5a 00 10 	l.ori r26,r26,0x10
    47b4:	03 ff fd fe 	l.j 3fac <__vfprintf_r+0x1d0>
    47b8:	8c 8e 00 00 	l.lbz r4,0x0(r14)
    47bc:	bc 38 ff ff 	l.sfnei r24,0xffffffff
    47c0:	10 00 02 e5 	l.bf 5354 <__vfprintf_r+0x1578>
    47c4:	bc 36 00 67 	l.sfnei r22,0x67
    47c8:	9f 00 00 06 	l.addi r24,r0,0x6
    47cc:	b8 7a 00 43 	l.srli r3,r26,0x3
    47d0:	a4 63 00 01 	l.andi r3,r3,0x1
    47d4:	bc 03 00 00 	l.sfeqi r3,0x0
    47d8:	10 00 02 8a 	l.bf 5200 <__vfprintf_r+0x1424>
    47dc:	a8 7e 00 00 	l.ori r3,r30,0x0
    47e0:	84 83 00 00 	l.lwz r4,0x0(r3)
    47e4:	84 a3 00 04 	l.lwz r5,0x4(r3)
    47e8:	d7 e2 21 88 	l.sw 0xfffff988(r2),r4
    47ec:	d7 e2 29 8c 	l.sw 0xfffff98c(r2),r5
    47f0:	84 62 f9 88 	l.lwz r3,0xfffff988(r2)
    47f4:	84 82 f9 8c 	l.lwz r4,0xfffff98c(r2)
    47f8:	04 00 0b b3 	l.jal 76c4 <_isinf>
    47fc:	9f de 00 08 	l.addi r30,r30,0x8
    4800:	bc 0b 00 00 	l.sfeqi r11,0x0
    4804:	10 00 02 8a 	l.bf 522c <__vfprintf_r+0x1450>
    4808:	15 00 00 00 	l.nop 0x0
    480c:	1a 80 00 01 	l.movhi r20,0x1
    4810:	aa 94 01 94 	l.ori r20,r20,0x194
    4814:	84 62 f9 88 	l.lwz r3,0xfffff988(r2)
    4818:	84 82 f9 8c 	l.lwz r4,0xfffff98c(r2)
    481c:	84 b4 00 00 	l.lwz r5,0x0(r20)
    4820:	84 d4 00 04 	l.lwz r6,0x4(r20)
    4824:	04 00 26 58 	l.jal e184 <___ltdf2>
    4828:	15 00 00 00 	l.nop 0x0
    482c:	bd 8b 00 00 	l.sfltsi r11,0x0
    4830:	0c 00 00 03 	l.bnf 483c <__vfprintf_r+0xa60>
    4834:	9c c0 00 2d 	l.addi r6,r0,0x2d
    4838:	db e2 37 ff 	l.sb 0xffffffff(r2),r6
    483c:	1a 40 00 01 	l.movhi r18,0x1
    4840:	aa 52 03 32 	l.ori r18,r18,0x332
    4844:	03 ff fe 51 	l.j 4188 <__vfprintf_r+0x3ac>
    4848:	9e 80 00 03 	l.addi r20,r0,0x3
    484c:	bc 16 00 43 	l.sfeqi r22,0x43
    4850:	10 00 00 07 	l.bf 486c <__vfprintf_r+0xa90>
    4854:	9e 42 fe 4c 	l.addi r18,r2,0xfffffe4c
    4858:	b8 7a 00 44 	l.srli r3,r26,0x4
    485c:	a4 63 00 01 	l.andi r3,r3,0x1
    4860:	bc 23 00 00 	l.sfnei r3,0x0
    4864:	0c 00 03 03 	l.bnf 5470 <__vfprintf_r+0x1694>
    4868:	9e 80 00 01 	l.addi r20,r0,0x1
    486c:	9c 62 f9 bc 	l.addi r3,r2,0xfffff9bc
    4870:	9c 80 00 00 	l.addi r4,r0,0x0
    4874:	04 00 0b a9 	l.jal 7718 <_memset>
    4878:	9c a0 00 08 	l.addi r5,r0,0x8
    487c:	84 be 00 00 	l.lwz r5,0x0(r30)
    4880:	a8 92 00 00 	l.ori r4,r18,0x0
    4884:	9c c2 f9 bc 	l.addi r6,r2,0xfffff9bc
    4888:	84 62 f9 9c 	l.lwz r3,0xfffff99c(r2)
    488c:	04 00 0b d4 	l.jal 77dc <__wcrtomb_r>
    4890:	9f de 00 04 	l.addi r30,r30,0x4
    4894:	bc 2b ff ff 	l.sfnei r11,0xffffffff
    4898:	0c 00 04 3b 	l.bnf 5984 <__vfprintf_r+0x1ba8>
    489c:	aa 8b 00 00 	l.ori r20,r11,0x0
    48a0:	9c 80 00 00 	l.addi r4,r0,0x0
    48a4:	03 ff fe 39 	l.j 4188 <__vfprintf_r+0x3ac>
    48a8:	db e2 27 ff 	l.sb 0xffffffff(r2),r4
    48ac:	b8 7a 00 44 	l.srli r3,r26,0x4
    48b0:	18 c0 00 01 	l.movhi r6,0x1
    48b4:	a8 c6 03 36 	l.ori r6,r6,0x336
    48b8:	a4 63 00 01 	l.andi r3,r3,0x1
    48bc:	bc 03 00 00 	l.sfeqi r3,0x0
    48c0:	0c 00 00 49 	l.bnf 49e4 <__vfprintf_r+0xc08>
    48c4:	d7 e2 31 7c 	l.sw 0xfffff97c(r2),r6
    48c8:	b8 7a 00 46 	l.srli r3,r26,0x6
    48cc:	a4 63 00 01 	l.andi r3,r3,0x1
    48d0:	bc 03 00 00 	l.sfeqi r3,0x0
    48d4:	10 00 00 44 	l.bf 49e4 <__vfprintf_r+0xc08>
    48d8:	15 00 00 00 	l.nop 0x0
    48dc:	95 5e 00 02 	l.lhz r10,0x2(r30)
    48e0:	9c 80 00 00 	l.addi r4,r0,0x0
    48e4:	9f de 00 04 	l.addi r30,r30,0x4
    48e8:	9c a0 00 02 	l.addi r5,r0,0x2
    48ec:	e4 0a 20 00 	l.sfeq r10,r4
    48f0:	10 00 00 03 	l.bf 48fc <__vfprintf_r+0xb20>
    48f4:	a4 7a 00 01 	l.andi r3,r26,0x1
    48f8:	9c 80 00 01 	l.addi r4,r0,0x1
    48fc:	e0 63 20 03 	l.and r3,r3,r4
    4900:	bc 03 00 00 	l.sfeqi r3,0x0
    4904:	13 ff fd fe 	l.bf 40fc <__vfprintf_r+0x320>
    4908:	9c 60 00 00 	l.addi r3,r0,0x0
    490c:	03 ff fd fc 	l.j 40fc <__vfprintf_r+0x320>
    4910:	ab 5a 00 02 	l.ori r26,r26,0x2
    4914:	8c 8e 00 00 	l.lbz r4,0x0(r14)
    4918:	03 ff fd a5 	l.j 3fac <__vfprintf_r+0x1d0>
    491c:	ab 5a 00 08 	l.ori r26,r26,0x8
    4920:	9d 40 00 00 	l.addi r10,r0,0x0
    4924:	b8 6a 00 03 	l.slli r3,r10,0x3
    4928:	e0 63 50 00 	l.add r3,r3,r10
    492c:	e1 63 50 00 	l.add r11,r3,r10
    4930:	e1 6b b0 00 	l.add r11,r11,r22
    4934:	92 ce 00 00 	l.lbs r22,0x0(r14)
    4938:	9d 4b ff d0 	l.addi r10,r11,0xffffffd0
    493c:	9c 76 ff d0 	l.addi r3,r22,0xffffffd0
    4940:	bc 43 00 09 	l.sfgtui r3,0x9
    4944:	0f ff ff f8 	l.bnf 4924 <__vfprintf_r+0xb48>
    4948:	9d ce 00 01 	l.addi r14,r14,0x1
    494c:	03 ff fd 9b 	l.j 3fb8 <__vfprintf_r+0x1dc>
    4950:	d7 e2 51 94 	l.sw 0xfffff994(r2),r10
    4954:	8c 8e 00 00 	l.lbz r4,0x0(r14)
    4958:	03 ff fd 95 	l.j 3fac <__vfprintf_r+0x1d0>
    495c:	ab 5a 00 80 	l.ori r26,r26,0x80
    4960:	92 ce 00 00 	l.lbs r22,0x0(r14)
    4964:	bc 36 00 2a 	l.sfnei r22,0x2a
    4968:	0c 00 04 23 	l.bnf 59f4 <__vfprintf_r+0x1c18>
    496c:	9d ce 00 01 	l.addi r14,r14,0x1
    4970:	9c 76 ff d0 	l.addi r3,r22,0xffffffd0
    4974:	00 00 00 09 	l.j 4998 <__vfprintf_r+0xbbc>
    4978:	9d 40 00 00 	l.addi r10,r0,0x0
    497c:	e0 63 50 00 	l.add r3,r3,r10
    4980:	e1 63 50 00 	l.add r11,r3,r10
    4984:	e1 6b b0 00 	l.add r11,r11,r22
    4988:	92 ce 00 00 	l.lbs r22,0x0(r14)
    498c:	9d 4b ff d0 	l.addi r10,r11,0xffffffd0
    4990:	9c 76 ff d0 	l.addi r3,r22,0xffffffd0
    4994:	9d ce 00 01 	l.addi r14,r14,0x1
    4998:	bc 43 00 09 	l.sfgtui r3,0x9
    499c:	0f ff ff f8 	l.bnf 497c <__vfprintf_r+0xba0>
    49a0:	b8 6a 00 03 	l.slli r3,r10,0x3
    49a4:	bd 6a ff ff 	l.sfgesi r10,0xffffffff
    49a8:	13 ff fd 84 	l.bf 3fb8 <__vfprintf_r+0x1dc>
    49ac:	ab 0a 00 00 	l.ori r24,r10,0x0
    49b0:	03 ff fd 82 	l.j 3fb8 <__vfprintf_r+0x1dc>
    49b4:	9f 00 ff ff 	l.addi r24,r0,0xffffffff
    49b8:	9c 60 00 2b 	l.addi r3,r0,0x2b
    49bc:	db e2 1f ff 	l.sb 0xffffffff(r2),r3
    49c0:	03 ff fd 7b 	l.j 3fac <__vfprintf_r+0x1d0>
    49c4:	8c 8e 00 00 	l.lbz r4,0x0(r14)
    49c8:	b8 7a 00 44 	l.srli r3,r26,0x4
    49cc:	19 00 00 01 	l.movhi r8,0x1
    49d0:	a9 08 03 1a 	l.ori r8,r8,0x31a
    49d4:	a4 63 00 01 	l.andi r3,r3,0x1
    49d8:	bc 03 00 00 	l.sfeqi r3,0x0
    49dc:	13 ff ff bb 	l.bf 48c8 <__vfprintf_r+0xaec>
    49e0:	d7 e2 41 7c 	l.sw 0xfffff97c(r2),r8
    49e4:	03 ff ff bf 	l.j 48e0 <__vfprintf_r+0xb04>
    49e8:	85 5e 00 00 	l.lwz r10,0x0(r30)
    49ec:	8c 8e 00 00 	l.lbz r4,0x0(r14)
    49f0:	03 ff fd 6f 	l.j 3fac <__vfprintf_r+0x1d0>
    49f4:	ab 5a 00 01 	l.ori r26,r26,0x1
    49f8:	a8 7c 00 00 	l.ori r3,r28,0x0
    49fc:	07 ff fc e2 	l.jal 3d84 <___sprint>
    4a00:	9c 82 ff e8 	l.addi r4,r2,0xffffffe8
    4a04:	bc 0b 00 00 	l.sfeqi r11,0x0
    4a08:	0c 00 00 9f 	l.bnf 4c84 <__vfprintf_r+0xea8>
    4a0c:	9e 02 ff a8 	l.addi r16,r2,0xffffffa8
    4a10:	03 ff fe 3e 	l.j 4308 <__vfprintf_r+0x52c>
    4a14:	9d 4a ff f0 	l.addi r10,r10,0xfffffff0
    4a18:	a8 7c 00 00 	l.ori r3,r28,0x0
    4a1c:	07 ff fc da 	l.jal 3d84 <___sprint>
    4a20:	9c 82 ff e8 	l.addi r4,r2,0xffffffe8
    4a24:	bc 0b 00 00 	l.sfeqi r11,0x0
    4a28:	0c 00 00 97 	l.bnf 4c84 <__vfprintf_r+0xea8>
    4a2c:	9e 02 ff a8 	l.addi r16,r2,0xffffffa8
    4a30:	03 ff fe 61 	l.j 43b4 <__vfprintf_r+0x5d8>
    4a34:	9d 4a ff f0 	l.addi r10,r10,0xfffffff0
    4a38:	a8 7c 00 00 	l.ori r3,r28,0x0
    4a3c:	07 ff fc d2 	l.jal 3d84 <___sprint>
    4a40:	9c 82 ff e8 	l.addi r4,r2,0xffffffe8
    4a44:	bc 0b 00 00 	l.sfeqi r11,0x0
    4a48:	0c 00 00 8f 	l.bnf 4c84 <__vfprintf_r+0xea8>
    4a4c:	9e 02 ff a8 	l.addi r16,r2,0xffffffa8
    4a50:	03 ff fe 9d 	l.j 44c4 <__vfprintf_r+0x6e8>
    4a54:	9d 4a ff f0 	l.addi r10,r10,0xfffffff0
    4a58:	a4 63 00 01 	l.andi r3,r3,0x1
    4a5c:	bc 03 00 00 	l.sfeqi r3,0x0
    4a60:	13 ff fd d7 	l.bf 41bc <__vfprintf_r+0x3e0>
    4a64:	a5 9a 00 84 	l.andi r12,r26,0x84
    4a68:	03 ff fd d5 	l.j 41bc <__vfprintf_r+0x3e0>
    4a6c:	9f 18 00 02 	l.addi r24,r24,0x2
    4a70:	a4 63 00 01 	l.andi r3,r3,0x1
    4a74:	bc 03 00 00 	l.sfeqi r3,0x0
    4a78:	13 ff fe 0c 	l.bf 42a8 <__vfprintf_r+0x4cc>
    4a7c:	bc 2c 00 80 	l.sfnei r12,0x80
    4a80:	9c 60 00 30 	l.addi r3,r0,0x30
    4a84:	db e2 b6 49 	l.sb 0xfffffe49(r2),r22
    4a88:	9c c0 00 02 	l.addi r6,r0,0x2
    4a8c:	db e2 1e 48 	l.sb 0xfffffe48(r2),r3
    4a90:	84 62 ff f0 	l.lwz r3,0xfffffff0(r2)
    4a94:	9c a3 00 02 	l.addi r5,r3,0x2
    4a98:	d4 10 30 04 	l.sw 0x4(r16),r6
    4a9c:	84 62 ff ec 	l.lwz r3,0xffffffec(r2)
    4aa0:	9c 83 00 01 	l.addi r4,r3,0x1
    4aa4:	d7 e2 2f f0 	l.sw 0xfffffff0(r2),r5
    4aa8:	9c 62 fe 48 	l.addi r3,r2,0xfffffe48
    4aac:	d7 e2 27 ec 	l.sw 0xffffffec(r2),r4
    4ab0:	d4 10 18 00 	l.sw 0x0(r16),r3
    4ab4:	bd a4 00 07 	l.sflesi r4,0x7
    4ab8:	13 ff fd fb 	l.bf 42a4 <__vfprintf_r+0x4c8>
    4abc:	9e 10 00 08 	l.addi r16,r16,0x8
    4ac0:	a8 7c 00 00 	l.ori r3,r28,0x0
    4ac4:	07 ff fc b0 	l.jal 3d84 <___sprint>
    4ac8:	9c 82 ff e8 	l.addi r4,r2,0xffffffe8
    4acc:	bc 0b 00 00 	l.sfeqi r11,0x0
    4ad0:	0c 00 00 6d 	l.bnf 4c84 <__vfprintf_r+0xea8>
    4ad4:	9e 02 ff a8 	l.addi r16,r2,0xffffffa8
    4ad8:	03 ff fd f4 	l.j 42a8 <__vfprintf_r+0x4cc>
    4adc:	bc 2c 00 80 	l.sfnei r12,0x80
    4ae0:	10 00 00 7c 	l.bf 4cd0 <__vfprintf_r+0xef4>
    4ae4:	85 42 f9 b4 	l.lwz r10,0xfffff9b4(r2)
    4ae8:	1a 80 00 01 	l.movhi r20,0x1
    4aec:	aa 94 01 94 	l.ori r20,r20,0x194
    4af0:	84 62 f9 88 	l.lwz r3,0xfffff988(r2)
    4af4:	84 82 f9 8c 	l.lwz r4,0xfffff98c(r2)
    4af8:	84 b4 00 00 	l.lwz r5,0x0(r20)
    4afc:	84 d4 00 04 	l.lwz r6,0x4(r20)
    4b00:	04 00 25 15 	l.jal df54 <___eqdf2>
    4b04:	15 00 00 00 	l.nop 0x0
    4b08:	bc 0b 00 00 	l.sfeqi r11,0x0
    4b0c:	0c 00 00 a9 	l.bnf 4db0 <__vfprintf_r+0xfd4>
    4b10:	84 a2 f9 b8 	l.lwz r5,0xfffff9b8(r2)
    4b14:	84 62 ff f0 	l.lwz r3,0xfffffff0(r2)
    4b18:	9c c0 00 01 	l.addi r6,r0,0x1
    4b1c:	18 a0 00 01 	l.movhi r5,0x1
    4b20:	a8 a5 03 47 	l.ori r5,r5,0x347
    4b24:	e0 83 30 00 	l.add r4,r3,r6
    4b28:	d4 10 28 00 	l.sw 0x0(r16),r5
    4b2c:	84 62 ff ec 	l.lwz r3,0xffffffec(r2)
    4b30:	d4 10 30 04 	l.sw 0x4(r16),r6
    4b34:	e0 63 30 00 	l.add r3,r3,r6
    4b38:	9e 10 00 08 	l.addi r16,r16,0x8
    4b3c:	d7 e2 27 f0 	l.sw 0xfffffff0(r2),r4
    4b40:	bd a3 00 07 	l.sflesi r3,0x7
    4b44:	0c 00 02 1d 	l.bnf 53b8 <__vfprintf_r+0x15dc>
    4b48:	d7 e2 1f ec 	l.sw 0xffffffec(r2),r3
    4b4c:	85 42 f9 b4 	l.lwz r10,0xfffff9b4(r2)
    4b50:	84 62 f9 b8 	l.lwz r3,0xfffff9b8(r2)
    4b54:	e5 83 50 00 	l.sflts r3,r10
    4b58:	10 00 00 07 	l.bf 4b74 <__vfprintf_r+0xd98>
    4b5c:	84 62 ff f0 	l.lwz r3,0xfffffff0(r2)
    4b60:	a4 7a 00 01 	l.andi r3,r26,0x1
    4b64:	bc 23 00 00 	l.sfnei r3,0x0
    4b68:	0f ff fe 3c 	l.bnf 4458 <__vfprintf_r+0x67c>
    4b6c:	b8 7a 00 42 	l.srli r3,r26,0x2
    4b70:	84 62 ff f0 	l.lwz r3,0xfffffff0(r2)
    4b74:	9d 00 00 01 	l.addi r8,r0,0x1
    4b78:	e0 83 40 00 	l.add r4,r3,r8
    4b7c:	84 a2 f9 90 	l.lwz r5,0xfffff990(r2)
    4b80:	84 62 ff ec 	l.lwz r3,0xffffffec(r2)
    4b84:	d4 10 40 04 	l.sw 0x4(r16),r8
    4b88:	e0 63 40 00 	l.add r3,r3,r8
    4b8c:	d4 10 28 00 	l.sw 0x0(r16),r5
    4b90:	d7 e2 27 f0 	l.sw 0xfffffff0(r2),r4
    4b94:	9e 10 00 08 	l.addi r16,r16,0x8
    4b98:	bd a3 00 07 	l.sflesi r3,0x7
    4b9c:	0c 00 02 39 	l.bnf 5480 <__vfprintf_r+0x16a4>
    4ba0:	d7 e2 1f ec 	l.sw 0xffffffec(r2),r3
    4ba4:	9d 4a ff ff 	l.addi r10,r10,0xffffffff
    4ba8:	bd aa 00 00 	l.sflesi r10,0x0
    4bac:	13 ff fe 2a 	l.bf 4454 <__vfprintf_r+0x678>
    4bb0:	bd aa 00 10 	l.sflesi r10,0x10
    4bb4:	10 00 00 14 	l.bf 4c04 <__vfprintf_r+0xe28>
    4bb8:	15 00 00 00 	l.nop 0x0
    4bbc:	84 62 ff f0 	l.lwz r3,0xfffffff0(r2)
    4bc0:	9d 00 00 10 	l.addi r8,r0,0x10
    4bc4:	18 c0 00 01 	l.movhi r6,0x1
    4bc8:	a8 c6 01 84 	l.ori r6,r6,0x184
    4bcc:	e0 83 40 00 	l.add r4,r3,r8
    4bd0:	d4 10 30 00 	l.sw 0x0(r16),r6
    4bd4:	84 62 ff ec 	l.lwz r3,0xffffffec(r2)
    4bd8:	d4 10 40 04 	l.sw 0x4(r16),r8
    4bdc:	9c 63 00 01 	l.addi r3,r3,0x1
    4be0:	9e 10 00 08 	l.addi r16,r16,0x8
    4be4:	d7 e2 27 f0 	l.sw 0xfffffff0(r2),r4
    4be8:	bd a3 00 07 	l.sflesi r3,0x7
    4bec:	0c 00 00 0f 	l.bnf 4c28 <__vfprintf_r+0xe4c>
    4bf0:	d7 e2 1f ec 	l.sw 0xffffffec(r2),r3
    4bf4:	9d 4a ff f0 	l.addi r10,r10,0xfffffff0
    4bf8:	bd aa 00 10 	l.sflesi r10,0x10
    4bfc:	0f ff ff f0 	l.bnf 4bbc <__vfprintf_r+0xde0>
    4c00:	15 00 00 00 	l.nop 0x0
    4c04:	18 60 00 01 	l.movhi r3,0x1
    4c08:	a8 63 01 84 	l.ori r3,r3,0x184
    4c0c:	d4 10 50 04 	l.sw 0x4(r16),r10
    4c10:	d4 10 18 00 	l.sw 0x0(r16),r3
    4c14:	84 62 ff f0 	l.lwz r3,0xfffffff0(r2)
    4c18:	e0 83 50 00 	l.add r4,r3,r10
    4c1c:	84 62 ff ec 	l.lwz r3,0xffffffec(r2)
    4c20:	03 ff fe 07 	l.j 443c <__vfprintf_r+0x660>
    4c24:	9c 63 00 01 	l.addi r3,r3,0x1
    4c28:	a8 7c 00 00 	l.ori r3,r28,0x0
    4c2c:	07 ff fc 56 	l.jal 3d84 <___sprint>
    4c30:	9c 82 ff e8 	l.addi r4,r2,0xffffffe8
    4c34:	bc 0b 00 00 	l.sfeqi r11,0x0
    4c38:	0c 00 00 13 	l.bnf 4c84 <__vfprintf_r+0xea8>
    4c3c:	9e 02 ff a8 	l.addi r16,r2,0xffffffa8
    4c40:	03 ff ff ee 	l.j 4bf8 <__vfprintf_r+0xe1c>
    4c44:	9d 4a ff f0 	l.addi r10,r10,0xfffffff0
    4c48:	13 ff fe 5a 	l.bf 45b0 <__vfprintf_r+0x7d4>
    4c4c:	e0 82 90 02 	l.sub r4,r2,r18
    4c50:	a4 7a 00 01 	l.andi r3,r26,0x1
    4c54:	bc 03 00 00 	l.sfeqi r3,0x0
    4c58:	13 ff fe 56 	l.bf 45b0 <__vfprintf_r+0x7d4>
    4c5c:	9c a0 00 30 	l.addi r5,r0,0x30
    4c60:	9e 42 ff a7 	l.addi r18,r2,0xffffffa7
    4c64:	03 ff fe 52 	l.j 45ac <__vfprintf_r+0x7d0>
    4c68:	d8 12 28 00 	l.sb 0x0(r18),r5
    4c6c:	a8 7c 00 00 	l.ori r3,r28,0x0
    4c70:	07 ff fc 45 	l.jal 3d84 <___sprint>
    4c74:	9c 82 ff e8 	l.addi r4,r2,0xffffffe8
    4c78:	bc 0b 00 00 	l.sfeqi r11,0x0
    4c7c:	13 ff fe 31 	l.bf 4540 <__vfprintf_r+0x764>
    4c80:	15 00 00 00 	l.nop 0x0
    4c84:	85 02 f9 78 	l.lwz r8,0xfffff978(r2)
    4c88:	bc 08 00 00 	l.sfeqi r8,0x0
    4c8c:	0c 00 01 d3 	l.bnf 53d8 <__vfprintf_r+0x15fc>
    4c90:	84 62 f9 9c 	l.lwz r3,0xfffff99c(r2)
    4c94:	94 7c 00 0c 	l.lhz r3,0xc(r28)
    4c98:	b8 63 00 46 	l.srli r3,r3,0x6
    4c9c:	a4 63 00 01 	l.andi r3,r3,0x1
    4ca0:	bc 23 00 00 	l.sfnei r3,0x0
    4ca4:	13 ff fc e2 	l.bf 402c <__vfprintf_r+0x250>
    4ca8:	15 00 00 00 	l.nop 0x0
    4cac:	00 00 03 59 	l.j 5a10 <__vfprintf_r+0x1c34>
    4cb0:	85 62 f9 98 	l.lwz r11,0xfffff998(r2)
    4cb4:	07 ff fc 34 	l.jal 3d84 <___sprint>
    4cb8:	9c 82 ff e8 	l.addi r4,r2,0xffffffe8
    4cbc:	bc 0b 00 00 	l.sfeqi r11,0x0
    4cc0:	0f ff ff f1 	l.bnf 4c84 <__vfprintf_r+0xea8>
    4cc4:	9e 02 ff a8 	l.addi r16,r2,0xffffffa8
    4cc8:	03 ff fd e4 	l.j 4458 <__vfprintf_r+0x67c>
    4ccc:	b8 7a 00 42 	l.srli r3,r26,0x2
    4cd0:	bd 4a 00 01 	l.sfgtsi r10,0x1
    4cd4:	10 00 00 05 	l.bf 4ce8 <__vfprintf_r+0xf0c>
    4cd8:	a4 7a 00 01 	l.andi r3,r26,0x1
    4cdc:	bc 23 00 00 	l.sfnei r3,0x0
    4ce0:	0c 00 01 2d 	l.bnf 5194 <__vfprintf_r+0x13b8>
    4ce4:	84 62 ff f0 	l.lwz r3,0xfffffff0(r2)
    4ce8:	8c 92 00 00 	l.lbz r4,0x0(r18)
    4cec:	9c 60 00 2e 	l.addi r3,r0,0x2e
    4cf0:	9c c0 00 02 	l.addi r6,r0,0x2
    4cf4:	db e2 1e 49 	l.sb 0xfffffe49(r2),r3
    4cf8:	9e 52 00 01 	l.addi r18,r18,0x1
    4cfc:	84 62 ff f0 	l.lwz r3,0xfffffff0(r2)
    4d00:	9c a3 00 02 	l.addi r5,r3,0x2
    4d04:	db e2 26 48 	l.sb 0xfffffe48(r2),r4
    4d08:	84 62 ff ec 	l.lwz r3,0xffffffec(r2)
    4d0c:	9c 83 00 01 	l.addi r4,r3,0x1
    4d10:	d4 10 30 04 	l.sw 0x4(r16),r6
    4d14:	9c 62 fe 48 	l.addi r3,r2,0xfffffe48
    4d18:	d7 e2 2f f0 	l.sw 0xfffffff0(r2),r5
    4d1c:	d4 10 18 00 	l.sw 0x0(r16),r3
    4d20:	d7 e2 27 ec 	l.sw 0xffffffec(r2),r4
    4d24:	bd a4 00 07 	l.sflesi r4,0x7
    4d28:	0c 00 01 2e 	l.bnf 51e0 <__vfprintf_r+0x1404>
    4d2c:	9e 10 00 08 	l.addi r16,r16,0x8
    4d30:	1a 80 00 01 	l.movhi r20,0x1
    4d34:	aa 94 01 94 	l.ori r20,r20,0x194
    4d38:	84 62 f9 88 	l.lwz r3,0xfffff988(r2)
    4d3c:	84 82 f9 8c 	l.lwz r4,0xfffff98c(r2)
    4d40:	84 b4 00 00 	l.lwz r5,0x0(r20)
    4d44:	84 d4 00 04 	l.lwz r6,0x4(r20)
    4d48:	04 00 24 a6 	l.jal dfe0 <___nedf2>
    4d4c:	15 00 00 00 	l.nop 0x0
    4d50:	bc 2b 00 00 	l.sfnei r11,0x0
    4d54:	0c 00 00 82 	l.bnf 4f5c <__vfprintf_r+0x1180>
    4d58:	84 62 ff f0 	l.lwz r3,0xfffffff0(r2)
    4d5c:	9c 8a ff ff 	l.addi r4,r10,0xffffffff
    4d60:	e0 a3 50 00 	l.add r5,r3,r10
    4d64:	d4 10 90 00 	l.sw 0x0(r16),r18
    4d68:	84 62 ff ec 	l.lwz r3,0xffffffec(r2)
    4d6c:	9c a5 ff ff 	l.addi r5,r5,0xffffffff
    4d70:	9c 63 00 01 	l.addi r3,r3,0x1
    4d74:	d4 10 20 04 	l.sw 0x4(r16),r4
    4d78:	d7 e2 2f f0 	l.sw 0xfffffff0(r2),r5
    4d7c:	9e 10 00 08 	l.addi r16,r16,0x8
    4d80:	bd a3 00 07 	l.sflesi r3,0x7
    4d84:	0c 00 01 0f 	l.bnf 51c0 <__vfprintf_r+0x13e4>
    4d88:	d7 e2 1f ec 	l.sw 0xffffffec(r2),r3
    4d8c:	84 62 ff f0 	l.lwz r3,0xfffffff0(r2)
    4d90:	84 c2 f9 84 	l.lwz r6,0xfffff984(r2)
    4d94:	e0 83 30 00 	l.add r4,r3,r6
    4d98:	d4 10 30 04 	l.sw 0x4(r16),r6
    4d9c:	9c 62 ff f4 	l.addi r3,r2,0xfffffff4
    4da0:	d4 10 18 00 	l.sw 0x0(r16),r3
    4da4:	84 62 ff ec 	l.lwz r3,0xffffffec(r2)
    4da8:	03 ff fd a5 	l.j 443c <__vfprintf_r+0x660>
    4dac:	9c 63 00 01 	l.addi r3,r3,0x1
    4db0:	bd 45 00 00 	l.sfgtsi r5,0x0
    4db4:	10 00 00 a9 	l.bf 5058 <__vfprintf_r+0x127c>
    4db8:	85 42 f9 b4 	l.lwz r10,0xfffff9b4(r2)
    4dbc:	18 80 00 01 	l.movhi r4,0x1
    4dc0:	a8 84 03 47 	l.ori r4,r4,0x347
    4dc4:	84 62 ff f0 	l.lwz r3,0xfffffff0(r2)
    4dc8:	9c c0 00 01 	l.addi r6,r0,0x1
    4dcc:	d4 10 20 00 	l.sw 0x0(r16),r4
    4dd0:	d4 10 30 04 	l.sw 0x4(r16),r6
    4dd4:	e0 83 30 00 	l.add r4,r3,r6
    4dd8:	9e 10 00 08 	l.addi r16,r16,0x8
    4ddc:	84 62 ff ec 	l.lwz r3,0xffffffec(r2)
    4de0:	e0 63 30 00 	l.add r3,r3,r6
    4de4:	d7 e2 27 f0 	l.sw 0xfffffff0(r2),r4
    4de8:	bd a3 00 07 	l.sflesi r3,0x7
    4dec:	0c 00 01 b1 	l.bnf 54b0 <__vfprintf_r+0x16d4>
    4df0:	d7 e2 1f ec 	l.sw 0xffffffec(r2),r3
    4df4:	bc 25 00 00 	l.sfnei r5,0x0
    4df8:	10 00 00 07 	l.bf 4e14 <__vfprintf_r+0x1038>
    4dfc:	84 62 ff f0 	l.lwz r3,0xfffffff0(r2)
    4e00:	84 62 f9 b4 	l.lwz r3,0xfffff9b4(r2)
    4e04:	bc 23 00 00 	l.sfnei r3,0x0
    4e08:	0f ff fd 94 	l.bnf 4458 <__vfprintf_r+0x67c>
    4e0c:	b8 7a 00 42 	l.srli r3,r26,0x2
    4e10:	84 62 ff f0 	l.lwz r3,0xfffffff0(r2)
    4e14:	9d 00 00 01 	l.addi r8,r0,0x1
    4e18:	e0 83 40 00 	l.add r4,r3,r8
    4e1c:	84 c2 f9 90 	l.lwz r6,0xfffff990(r2)
    4e20:	84 62 ff ec 	l.lwz r3,0xffffffec(r2)
    4e24:	d4 10 40 04 	l.sw 0x4(r16),r8
    4e28:	e0 63 40 00 	l.add r3,r3,r8
    4e2c:	d4 10 30 00 	l.sw 0x0(r16),r6
    4e30:	d7 e2 27 f0 	l.sw 0xfffffff0(r2),r4
    4e34:	9e 10 00 08 	l.addi r16,r16,0x8
    4e38:	bd a3 00 07 	l.sflesi r3,0x7
    4e3c:	0c 00 01 b3 	l.bnf 5508 <__vfprintf_r+0x172c>
    4e40:	d7 e2 1f ec 	l.sw 0xffffffec(r2),r3
    4e44:	e1 40 28 02 	l.sub r10,r0,r5
    4e48:	bd aa 00 00 	l.sflesi r10,0x0
    4e4c:	10 00 00 29 	l.bf 4ef0 <__vfprintf_r+0x1114>
    4e50:	15 00 00 00 	l.nop 0x0
    4e54:	bd aa 00 10 	l.sflesi r10,0x10
    4e58:	10 00 00 13 	l.bf 4ea4 <__vfprintf_r+0x10c8>
    4e5c:	9c 60 00 10 	l.addi r3,r0,0x10
    4e60:	19 00 00 01 	l.movhi r8,0x1
    4e64:	a9 08 01 84 	l.ori r8,r8,0x184
    4e68:	d4 10 18 04 	l.sw 0x4(r16),r3
    4e6c:	d4 10 40 00 	l.sw 0x0(r16),r8
    4e70:	84 62 ff f0 	l.lwz r3,0xfffffff0(r2)
    4e74:	9e 10 00 08 	l.addi r16,r16,0x8
    4e78:	9c 83 00 10 	l.addi r4,r3,0x10
    4e7c:	84 62 ff ec 	l.lwz r3,0xffffffec(r2)
    4e80:	9c 63 00 01 	l.addi r3,r3,0x1
    4e84:	d7 e2 27 f0 	l.sw 0xfffffff0(r2),r4
    4e88:	bd a3 00 07 	l.sflesi r3,0x7
    4e8c:	0c 00 00 26 	l.bnf 4f24 <__vfprintf_r+0x1148>
    4e90:	d7 e2 1f ec 	l.sw 0xffffffec(r2),r3
    4e94:	9d 4a ff f0 	l.addi r10,r10,0xfffffff0
    4e98:	bd aa 00 10 	l.sflesi r10,0x10
    4e9c:	0f ff ff f1 	l.bnf 4e60 <__vfprintf_r+0x1084>
    4ea0:	9c 60 00 10 	l.addi r3,r0,0x10
    4ea4:	18 80 00 01 	l.movhi r4,0x1
    4ea8:	a8 84 01 84 	l.ori r4,r4,0x184
    4eac:	84 62 ff f0 	l.lwz r3,0xfffffff0(r2)
    4eb0:	d4 10 20 00 	l.sw 0x0(r16),r4
    4eb4:	d4 10 50 04 	l.sw 0x4(r16),r10
    4eb8:	e0 83 50 00 	l.add r4,r3,r10
    4ebc:	9e 10 00 08 	l.addi r16,r16,0x8
    4ec0:	84 62 ff ec 	l.lwz r3,0xffffffec(r2)
    4ec4:	9c 63 00 01 	l.addi r3,r3,0x1
    4ec8:	d7 e2 27 f0 	l.sw 0xfffffff0(r2),r4
    4ecc:	bd a3 00 07 	l.sflesi r3,0x7
    4ed0:	10 00 00 08 	l.bf 4ef0 <__vfprintf_r+0x1114>
    4ed4:	d7 e2 1f ec 	l.sw 0xffffffec(r2),r3
    4ed8:	a8 7c 00 00 	l.ori r3,r28,0x0
    4edc:	07 ff fb aa 	l.jal 3d84 <___sprint>
    4ee0:	9c 82 ff e8 	l.addi r4,r2,0xffffffe8
    4ee4:	bc 0b 00 00 	l.sfeqi r11,0x0
    4ee8:	0f ff ff 67 	l.bnf 4c84 <__vfprintf_r+0xea8>
    4eec:	9e 02 ff a8 	l.addi r16,r2,0xffffffa8
    4ef0:	84 a2 f9 b4 	l.lwz r5,0xfffff9b4(r2)
    4ef4:	84 62 ff ec 	l.lwz r3,0xffffffec(r2)
    4ef8:	d4 10 28 04 	l.sw 0x4(r16),r5
    4efc:	84 82 f9 b4 	l.lwz r4,0xfffff9b4(r2)
    4f00:	9c a3 00 01 	l.addi r5,r3,0x1
    4f04:	84 62 ff f0 	l.lwz r3,0xfffffff0(r2)
    4f08:	bd a5 00 07 	l.sflesi r5,0x7
    4f0c:	d4 10 90 00 	l.sw 0x0(r16),r18
    4f10:	e0 63 20 00 	l.add r3,r3,r4
    4f14:	9e 10 00 08 	l.addi r16,r16,0x8
    4f18:	d7 e2 1f f0 	l.sw 0xfffffff0(r2),r3
    4f1c:	03 ff fd 4c 	l.j 444c <__vfprintf_r+0x670>
    4f20:	d7 e2 2f ec 	l.sw 0xffffffec(r2),r5
    4f24:	a8 7c 00 00 	l.ori r3,r28,0x0
    4f28:	07 ff fb 97 	l.jal 3d84 <___sprint>
    4f2c:	9c 82 ff e8 	l.addi r4,r2,0xffffffe8
    4f30:	bc 0b 00 00 	l.sfeqi r11,0x0
    4f34:	0f ff ff 54 	l.bnf 4c84 <__vfprintf_r+0xea8>
    4f38:	9e 02 ff a8 	l.addi r16,r2,0xffffffa8
    4f3c:	03 ff ff d7 	l.j 4e98 <__vfprintf_r+0x10bc>
    4f40:	9d 4a ff f0 	l.addi r10,r10,0xfffffff0
    4f44:	03 ff fc 6b 	l.j 40f0 <__vfprintf_r+0x314>
    4f48:	85 5e 00 00 	l.lwz r10,0x0(r30)
    4f4c:	03 ff fd bf 	l.j 4648 <__vfprintf_r+0x86c>
    4f50:	85 5e 00 00 	l.lwz r10,0x0(r30)
    4f54:	03 ff fd d0 	l.j 4694 <__vfprintf_r+0x8b8>
    4f58:	85 5e 00 00 	l.lwz r10,0x0(r30)
    4f5c:	9d 4a ff ff 	l.addi r10,r10,0xffffffff
    4f60:	bd aa 00 00 	l.sflesi r10,0x0
    4f64:	13 ff ff 8c 	l.bf 4d94 <__vfprintf_r+0xfb8>
    4f68:	84 c2 f9 84 	l.lwz r6,0xfffff984(r2)
    4f6c:	bd aa 00 10 	l.sflesi r10,0x10
    4f70:	10 00 00 14 	l.bf 4fc0 <__vfprintf_r+0x11e4>
    4f74:	15 00 00 00 	l.nop 0x0
    4f78:	9c 60 00 10 	l.addi r3,r0,0x10
    4f7c:	19 00 00 01 	l.movhi r8,0x1
    4f80:	a9 08 01 84 	l.ori r8,r8,0x184
    4f84:	d4 10 18 04 	l.sw 0x4(r16),r3
    4f88:	d4 10 40 00 	l.sw 0x0(r16),r8
    4f8c:	84 62 ff f0 	l.lwz r3,0xfffffff0(r2)
    4f90:	9e 10 00 08 	l.addi r16,r16,0x8
    4f94:	9c 83 00 10 	l.addi r4,r3,0x10
    4f98:	84 62 ff ec 	l.lwz r3,0xffffffec(r2)
    4f9c:	9c 63 00 01 	l.addi r3,r3,0x1
    4fa0:	d7 e2 27 f0 	l.sw 0xfffffff0(r2),r4
    4fa4:	bd a3 00 07 	l.sflesi r3,0x7
    4fa8:	0c 00 00 0f 	l.bnf 4fe4 <__vfprintf_r+0x1208>
    4fac:	d7 e2 1f ec 	l.sw 0xffffffec(r2),r3
    4fb0:	9d 4a ff f0 	l.addi r10,r10,0xfffffff0
    4fb4:	bd aa 00 10 	l.sflesi r10,0x10
    4fb8:	0f ff ff f0 	l.bnf 4f78 <__vfprintf_r+0x119c>
    4fbc:	15 00 00 00 	l.nop 0x0
    4fc0:	18 80 00 01 	l.movhi r4,0x1
    4fc4:	a8 84 01 84 	l.ori r4,r4,0x184
    4fc8:	84 62 ff f0 	l.lwz r3,0xfffffff0(r2)
    4fcc:	d4 10 20 00 	l.sw 0x0(r16),r4
    4fd0:	d4 10 50 04 	l.sw 0x4(r16),r10
    4fd4:	e0 83 50 00 	l.add r4,r3,r10
    4fd8:	84 62 ff ec 	l.lwz r3,0xffffffec(r2)
    4fdc:	00 00 00 74 	l.j 51ac <__vfprintf_r+0x13d0>
    4fe0:	9c 63 00 01 	l.addi r3,r3,0x1
    4fe4:	a8 7c 00 00 	l.ori r3,r28,0x0
    4fe8:	07 ff fb 67 	l.jal 3d84 <___sprint>
    4fec:	9c 82 ff e8 	l.addi r4,r2,0xffffffe8
    4ff0:	bc 0b 00 00 	l.sfeqi r11,0x0
    4ff4:	0f ff ff 24 	l.bnf 4c84 <__vfprintf_r+0xea8>
    4ff8:	9e 02 ff a8 	l.addi r16,r2,0xffffffa8
    4ffc:	03 ff ff ee 	l.j 4fb4 <__vfprintf_r+0x11d8>
    5000:	9d 4a ff f0 	l.addi r10,r10,0xfffffff0
    5004:	0f ff fc 5c 	l.bnf 4174 <__vfprintf_r+0x398>
    5008:	15 00 00 00 	l.nop 0x0
    500c:	84 82 f9 7c 	l.lwz r4,0xfffff97c(r2)
    5010:	a4 6a 00 0f 	l.andi r3,r10,0xf
    5014:	9e 52 ff ff 	l.addi r18,r18,0xffffffff
    5018:	e0 63 20 00 	l.add r3,r3,r4
    501c:	b9 4a 00 44 	l.srli r10,r10,0x4
    5020:	8c 63 00 00 	l.lbz r3,0x0(r3)
    5024:	bc 0a 00 00 	l.sfeqi r10,0x0
    5028:	0f ff ff f9 	l.bnf 500c <__vfprintf_r+0x1230>
    502c:	d8 12 18 00 	l.sb 0x0(r18),r3
    5030:	03 ff fd 60 	l.j 45b0 <__vfprintf_r+0x7d4>
    5034:	e0 82 90 02 	l.sub r4,r2,r18
    5038:	a8 7c 00 00 	l.ori r3,r28,0x0
    503c:	07 ff fb 52 	l.jal 3d84 <___sprint>
    5040:	9c 82 ff e8 	l.addi r4,r2,0xffffffe8
    5044:	bc 0b 00 00 	l.sfeqi r11,0x0
    5048:	0f ff ff 0f 	l.bnf 4c84 <__vfprintf_r+0xea8>
    504c:	9e 02 ff a8 	l.addi r16,r2,0xffffffa8
    5050:	03 ff fc 83 	l.j 425c <__vfprintf_r+0x480>
    5054:	8c 82 ff ff 	l.lbz r4,0xffffffff(r2)
    5058:	e5 85 50 00 	l.sflts r5,r10
    505c:	10 00 00 e3 	l.bf 53e8 <__vfprintf_r+0x160c>
    5060:	84 62 ff f0 	l.lwz r3,0xfffffff0(r2)
    5064:	e0 83 50 00 	l.add r4,r3,r10
    5068:	d4 10 90 00 	l.sw 0x0(r16),r18
    506c:	84 62 ff ec 	l.lwz r3,0xffffffec(r2)
    5070:	d4 10 50 04 	l.sw 0x4(r16),r10
    5074:	9c 63 00 01 	l.addi r3,r3,0x1
    5078:	d7 e2 27 f0 	l.sw 0xfffffff0(r2),r4
    507c:	9e 10 00 08 	l.addi r16,r16,0x8
    5080:	bd a3 00 07 	l.sflesi r3,0x7
    5084:	0c 00 01 c3 	l.bnf 5790 <__vfprintf_r+0x19b4>
    5088:	d7 e2 1f ec 	l.sw 0xffffffec(r2),r3
    508c:	e1 45 50 02 	l.sub r10,r5,r10
    5090:	bd aa 00 00 	l.sflesi r10,0x0
    5094:	10 00 00 2a 	l.bf 513c <__vfprintf_r+0x1360>
    5098:	a4 7a 00 01 	l.andi r3,r26,0x1
    509c:	bd aa 00 10 	l.sflesi r10,0x10
    50a0:	10 00 00 13 	l.bf 50ec <__vfprintf_r+0x1310>
    50a4:	84 62 ff f0 	l.lwz r3,0xfffffff0(r2)
    50a8:	9d 00 00 10 	l.addi r8,r0,0x10
    50ac:	18 c0 00 01 	l.movhi r6,0x1
    50b0:	a8 c6 01 84 	l.ori r6,r6,0x184
    50b4:	e0 83 40 00 	l.add r4,r3,r8
    50b8:	d4 10 30 00 	l.sw 0x0(r16),r6
    50bc:	84 62 ff ec 	l.lwz r3,0xffffffec(r2)
    50c0:	d4 10 40 04 	l.sw 0x4(r16),r8
    50c4:	9c 63 00 01 	l.addi r3,r3,0x1
    50c8:	9e 10 00 08 	l.addi r16,r16,0x8
    50cc:	d7 e2 27 f0 	l.sw 0xfffffff0(r2),r4
    50d0:	bd a3 00 07 	l.sflesi r3,0x7
    50d4:	0c 00 00 28 	l.bnf 5174 <__vfprintf_r+0x1398>
    50d8:	d7 e2 1f ec 	l.sw 0xffffffec(r2),r3
    50dc:	9d 4a ff f0 	l.addi r10,r10,0xfffffff0
    50e0:	bd aa 00 10 	l.sflesi r10,0x10
    50e4:	0f ff ff f1 	l.bnf 50a8 <__vfprintf_r+0x12cc>
    50e8:	84 62 ff f0 	l.lwz r3,0xfffffff0(r2)
    50ec:	18 60 00 01 	l.movhi r3,0x1
    50f0:	a8 63 01 84 	l.ori r3,r3,0x184
    50f4:	d4 10 50 04 	l.sw 0x4(r16),r10
    50f8:	d4 10 18 00 	l.sw 0x0(r16),r3
    50fc:	84 62 ff f0 	l.lwz r3,0xfffffff0(r2)
    5100:	9e 10 00 08 	l.addi r16,r16,0x8
    5104:	e0 83 50 00 	l.add r4,r3,r10
    5108:	84 62 ff ec 	l.lwz r3,0xffffffec(r2)
    510c:	9c 63 00 01 	l.addi r3,r3,0x1
    5110:	d7 e2 27 f0 	l.sw 0xfffffff0(r2),r4
    5114:	bd a3 00 07 	l.sflesi r3,0x7
    5118:	10 00 00 08 	l.bf 5138 <__vfprintf_r+0x135c>
    511c:	d7 e2 1f ec 	l.sw 0xffffffec(r2),r3
    5120:	a8 7c 00 00 	l.ori r3,r28,0x0
    5124:	07 ff fb 18 	l.jal 3d84 <___sprint>
    5128:	9c 82 ff e8 	l.addi r4,r2,0xffffffe8
    512c:	bc 0b 00 00 	l.sfeqi r11,0x0
    5130:	0f ff fe d5 	l.bnf 4c84 <__vfprintf_r+0xea8>
    5134:	9e 02 ff a8 	l.addi r16,r2,0xffffffa8
    5138:	a4 7a 00 01 	l.andi r3,r26,0x1
    513c:	bc 03 00 00 	l.sfeqi r3,0x0
    5140:	13 ff fc c5 	l.bf 4454 <__vfprintf_r+0x678>
    5144:	84 62 ff f0 	l.lwz r3,0xfffffff0(r2)
    5148:	18 80 00 01 	l.movhi r4,0x1
    514c:	a8 84 03 49 	l.ori r4,r4,0x349
    5150:	9c a0 00 01 	l.addi r5,r0,0x1
    5154:	d4 10 20 00 	l.sw 0x0(r16),r4
    5158:	d4 10 28 04 	l.sw 0x4(r16),r5
    515c:	e0 83 28 00 	l.add r4,r3,r5
    5160:	9e 10 00 08 	l.addi r16,r16,0x8
    5164:	84 62 ff ec 	l.lwz r3,0xffffffec(r2)
    5168:	d7 e2 27 f0 	l.sw 0xfffffff0(r2),r4
    516c:	03 ff fc b6 	l.j 4444 <__vfprintf_r+0x668>
    5170:	e0 63 28 00 	l.add r3,r3,r5
    5174:	a8 7c 00 00 	l.ori r3,r28,0x0
    5178:	07 ff fb 03 	l.jal 3d84 <___sprint>
    517c:	9c 82 ff e8 	l.addi r4,r2,0xffffffe8
    5180:	bc 0b 00 00 	l.sfeqi r11,0x0
    5184:	0f ff fe c0 	l.bnf 4c84 <__vfprintf_r+0xea8>
    5188:	9e 02 ff a8 	l.addi r16,r2,0xffffffa8
    518c:	03 ff ff d5 	l.j 50e0 <__vfprintf_r+0x1304>
    5190:	9d 4a ff f0 	l.addi r10,r10,0xfffffff0
    5194:	9c a0 00 01 	l.addi r5,r0,0x1
    5198:	e0 83 28 00 	l.add r4,r3,r5
    519c:	d4 10 28 04 	l.sw 0x4(r16),r5
    51a0:	84 62 ff ec 	l.lwz r3,0xffffffec(r2)
    51a4:	d4 10 90 00 	l.sw 0x0(r16),r18
    51a8:	e0 63 28 00 	l.add r3,r3,r5
    51ac:	d7 e2 27 f0 	l.sw 0xfffffff0(r2),r4
    51b0:	9e 10 00 08 	l.addi r16,r16,0x8
    51b4:	bd a3 00 07 	l.sflesi r3,0x7
    51b8:	13 ff fe f5 	l.bf 4d8c <__vfprintf_r+0xfb0>
    51bc:	d7 e2 1f ec 	l.sw 0xffffffec(r2),r3
    51c0:	a8 7c 00 00 	l.ori r3,r28,0x0
    51c4:	07 ff fa f0 	l.jal 3d84 <___sprint>
    51c8:	9c 82 ff e8 	l.addi r4,r2,0xffffffe8
    51cc:	bc 0b 00 00 	l.sfeqi r11,0x0
    51d0:	0f ff fe ad 	l.bnf 4c84 <__vfprintf_r+0xea8>
    51d4:	9e 02 ff a8 	l.addi r16,r2,0xffffffa8
    51d8:	03 ff fe ee 	l.j 4d90 <__vfprintf_r+0xfb4>
    51dc:	84 62 ff f0 	l.lwz r3,0xfffffff0(r2)
    51e0:	a8 7c 00 00 	l.ori r3,r28,0x0
    51e4:	07 ff fa e8 	l.jal 3d84 <___sprint>
    51e8:	9c 82 ff e8 	l.addi r4,r2,0xffffffe8
    51ec:	bc 0b 00 00 	l.sfeqi r11,0x0
    51f0:	0f ff fe a5 	l.bnf 4c84 <__vfprintf_r+0xea8>
    51f4:	85 42 f9 b4 	l.lwz r10,0xfffff9b4(r2)
    51f8:	03 ff fe ce 	l.j 4d30 <__vfprintf_r+0xf54>
    51fc:	9e 02 ff a8 	l.addi r16,r2,0xffffffa8
    5200:	84 a3 00 00 	l.lwz r5,0x0(r3)
    5204:	84 c3 00 04 	l.lwz r6,0x4(r3)
    5208:	d7 e2 29 88 	l.sw 0xfffff988(r2),r5
    520c:	d7 e2 31 8c 	l.sw 0xfffff98c(r2),r6
    5210:	84 62 f9 88 	l.lwz r3,0xfffff988(r2)
    5214:	84 82 f9 8c 	l.lwz r4,0xfffff98c(r2)
    5218:	04 00 09 2b 	l.jal 76c4 <_isinf>
    521c:	9f de 00 08 	l.addi r30,r30,0x8
    5220:	bc 0b 00 00 	l.sfeqi r11,0x0
    5224:	0f ff fd 7a 	l.bnf 480c <__vfprintf_r+0xa30>
    5228:	15 00 00 00 	l.nop 0x0
    522c:	84 62 f9 88 	l.lwz r3,0xfffff988(r2)
    5230:	84 82 f9 8c 	l.lwz r4,0xfffff98c(r2)
    5234:	04 00 09 9a 	l.jal 789c <_isnan>
    5238:	15 00 00 00 	l.nop 0x0
    523c:	bc 0b 00 00 	l.sfeqi r11,0x0
    5240:	10 00 00 ba 	l.bf 5528 <__vfprintf_r+0x174c>
    5244:	a9 98 00 00 	l.ori r12,r24,0x0
    5248:	1a 40 00 01 	l.movhi r18,0x1
    524c:	aa 52 03 4b 	l.ori r18,r18,0x34b
    5250:	03 ff fb ce 	l.j 4188 <__vfprintf_r+0x3ac>
    5254:	9e 80 00 03 	l.addi r20,r0,0x3
    5258:	bc 16 00 53 	l.sfeqi r22,0x53
    525c:	10 00 00 06 	l.bf 5274 <__vfprintf_r+0x1498>
    5260:	b8 7a 00 44 	l.srli r3,r26,0x4
    5264:	a4 63 00 01 	l.andi r3,r3,0x1
    5268:	bc 23 00 00 	l.sfnei r3,0x0
    526c:	0c 00 00 99 	l.bnf 54d0 <__vfprintf_r+0x16f4>
    5270:	bd 98 00 00 	l.sfltsi r24,0x0
    5274:	9e 80 00 00 	l.addi r20,r0,0x0
    5278:	d7 e2 91 a0 	l.sw 0xfffff9a0(r2),r18
    527c:	9c 62 f9 a4 	l.addi r3,r2,0xfffff9a4
    5280:	a8 94 00 00 	l.ori r4,r20,0x0
    5284:	9c a0 00 08 	l.addi r5,r0,0x8
    5288:	04 00 09 24 	l.jal 7718 <_memset>
    528c:	a9 94 00 00 	l.ori r12,r20,0x0
    5290:	e5 98 a0 00 	l.sflts r24,r20
    5294:	10 00 01 58 	l.bf 57f4 <__vfprintf_r+0x1a18>
    5298:	84 62 f9 9c 	l.lwz r3,0xfffff99c(r2)
    529c:	b8 8c 00 02 	l.slli r4,r12,0x2
    52a0:	84 62 f9 a0 	l.lwz r3,0xfffff9a0(r2)
    52a4:	e0 a4 18 00 	l.add r5,r4,r3
    52a8:	84 a5 00 00 	l.lwz r5,0x0(r5)
    52ac:	bc 25 00 00 	l.sfnei r5,0x0
    52b0:	0c 00 00 0e 	l.bnf 52e8 <__vfprintf_r+0x150c>
    52b4:	84 62 f9 9c 	l.lwz r3,0xfffff99c(r2)
    52b8:	9c 82 fe 4c 	l.addi r4,r2,0xfffffe4c
    52bc:	04 00 09 48 	l.jal 77dc <__wcrtomb_r>
    52c0:	9c c2 f9 a4 	l.addi r6,r2,0xfffff9a4
    52c4:	bc 2b ff ff 	l.sfnei r11,0xffffffff
    52c8:	0c 00 01 af 	l.bnf 5984 <__vfprintf_r+0x1ba8>
    52cc:	e1 6b a0 00 	l.add r11,r11,r20
    52d0:	e5 ab c0 00 	l.sfles r11,r24
    52d4:	0c 00 00 05 	l.bnf 52e8 <__vfprintf_r+0x150c>
    52d8:	e4 2b c0 00 	l.sfne r11,r24
    52dc:	aa 8b 00 00 	l.ori r20,r11,0x0
    52e0:	13 ff ff ef 	l.bf 529c <__vfprintf_r+0x14c0>
    52e4:	9d 8c 00 01 	l.addi r12,r12,0x1
    52e8:	bc 34 00 00 	l.sfnei r20,0x0
    52ec:	0f ff fb a8 	l.bnf 418c <__vfprintf_r+0x3b0>
    52f0:	85 02 f9 80 	l.lwz r8,0xfffff980(r2)
    52f4:	84 62 f9 9c 	l.lwz r3,0xfffff99c(r2)
    52f8:	04 00 09 7a 	l.jal 78e0 <__malloc_r>
    52fc:	9c 94 00 01 	l.addi r4,r20,0x1
    5300:	bc 2b 00 00 	l.sfnei r11,0x0
    5304:	0c 00 01 a0 	l.bnf 5984 <__vfprintf_r+0x1ba8>
    5308:	d7 e2 59 78 	l.sw 0xfffff978(r2),r11
    530c:	9c 62 f9 a4 	l.addi r3,r2,0xfffff9a4
    5310:	9c 80 00 00 	l.addi r4,r0,0x0
    5314:	04 00 09 01 	l.jal 7718 <_memset>
    5318:	9c a0 00 08 	l.addi r5,r0,0x8
    531c:	84 62 f9 9c 	l.lwz r3,0xfffff99c(r2)
    5320:	9c a2 f9 a0 	l.addi r5,r2,0xfffff9a0
    5324:	a8 d4 00 00 	l.ori r6,r20,0x0
    5328:	84 82 f9 78 	l.lwz r4,0xfffff978(r2)
    532c:	04 00 0b 92 	l.jal 8174 <__wcsrtombs_r>
    5330:	9c e2 f9 a4 	l.addi r7,r2,0xfffff9a4
    5334:	e4 0b a0 00 	l.sfeq r11,r20
    5338:	0c 00 01 93 	l.bnf 5984 <__vfprintf_r+0x1ba8>
    533c:	9c a0 00 00 	l.addi r5,r0,0x0
    5340:	84 82 f9 78 	l.lwz r4,0xfffff978(r2)
    5344:	e0 64 a0 00 	l.add r3,r4,r20
    5348:	aa 44 00 00 	l.ori r18,r4,0x0
    534c:	03 ff fb 8f 	l.j 4188 <__vfprintf_r+0x3ac>
    5350:	d8 03 28 00 	l.sb 0x0(r3),r5
    5354:	10 00 00 03 	l.bf 5360 <__vfprintf_r+0x1584>
    5358:	9c 80 00 00 	l.addi r4,r0,0x0
    535c:	9c 80 00 01 	l.addi r4,r0,0x1
    5360:	bc 36 00 47 	l.sfnei r22,0x47
    5364:	10 00 00 03 	l.bf 5370 <__vfprintf_r+0x1594>
    5368:	9c 60 00 00 	l.addi r3,r0,0x0
    536c:	9c 60 00 01 	l.addi r3,r0,0x1
    5370:	e0 64 18 04 	l.or r3,r4,r3
    5374:	bc 03 00 00 	l.sfeqi r3,0x0
    5378:	13 ff fd 16 	l.bf 47d0 <__vfprintf_r+0x9f4>
    537c:	b8 7a 00 43 	l.srli r3,r26,0x3
    5380:	bc 38 00 00 	l.sfnei r24,0x0
    5384:	13 ff fd 14 	l.bf 47d4 <__vfprintf_r+0x9f8>
    5388:	a4 63 00 01 	l.andi r3,r3,0x1
    538c:	03 ff fd 10 	l.j 47cc <__vfprintf_r+0x9f0>
    5390:	9f 00 00 01 	l.addi r24,r0,0x1
    5394:	a4 63 00 01 	l.andi r3,r3,0x1
    5398:	bc 03 00 00 	l.sfeqi r3,0x0
    539c:	10 00 00 41 	l.bf 54a0 <__vfprintf_r+0x16c4>
    53a0:	84 a2 f9 98 	l.lwz r5,0xfffff998(r2)
    53a4:	84 7e 00 00 	l.lwz r3,0x0(r30)
    53a8:	84 82 f9 98 	l.lwz r4,0xfffff998(r2)
    53ac:	9f de 00 04 	l.addi r30,r30,0x4
    53b0:	03 ff fa d1 	l.j 3ef4 <__vfprintf_r+0x118>
    53b4:	dc 03 20 00 	l.sh 0x0(r3),r4
    53b8:	a8 7c 00 00 	l.ori r3,r28,0x0
    53bc:	07 ff fa 72 	l.jal 3d84 <___sprint>
    53c0:	9c 82 ff e8 	l.addi r4,r2,0xffffffe8
    53c4:	bc 0b 00 00 	l.sfeqi r11,0x0
    53c8:	0f ff fe 2f 	l.bnf 4c84 <__vfprintf_r+0xea8>
    53cc:	9e 02 ff a8 	l.addi r16,r2,0xffffffa8
    53d0:	03 ff fd e0 	l.j 4b50 <__vfprintf_r+0xd74>
    53d4:	85 42 f9 b4 	l.lwz r10,0xfffff9b4(r2)
    53d8:	04 00 06 59 	l.jal 6d3c <__free_r>
    53dc:	a8 88 00 00 	l.ori r4,r8,0x0
    53e0:	03 ff fe 2e 	l.j 4c98 <__vfprintf_r+0xebc>
    53e4:	94 7c 00 0c 	l.lhz r3,0xc(r28)
    53e8:	e0 83 28 00 	l.add r4,r3,r5
    53ec:	d4 10 90 00 	l.sw 0x0(r16),r18
    53f0:	84 62 ff ec 	l.lwz r3,0xffffffec(r2)
    53f4:	d4 10 28 04 	l.sw 0x4(r16),r5
    53f8:	9c 63 00 01 	l.addi r3,r3,0x1
    53fc:	d7 e2 27 f0 	l.sw 0xfffffff0(r2),r4
    5400:	9e 10 00 08 	l.addi r16,r16,0x8
    5404:	bd a3 00 07 	l.sflesi r3,0x7
    5408:	0c 00 00 f3 	l.bnf 57d4 <__vfprintf_r+0x19f8>
    540c:	d7 e2 1f ec 	l.sw 0xffffffec(r2),r3
    5410:	84 62 ff f0 	l.lwz r3,0xfffffff0(r2)
    5414:	9d 00 00 01 	l.addi r8,r0,0x1
    5418:	18 c0 00 01 	l.movhi r6,0x1
    541c:	a8 c6 03 49 	l.ori r6,r6,0x349
    5420:	e0 83 40 00 	l.add r4,r3,r8
    5424:	d4 10 30 00 	l.sw 0x0(r16),r6
    5428:	84 62 ff ec 	l.lwz r3,0xffffffec(r2)
    542c:	e2 52 28 00 	l.add r18,r18,r5
    5430:	e0 63 40 00 	l.add r3,r3,r8
    5434:	d4 10 40 04 	l.sw 0x4(r16),r8
    5438:	d7 e2 27 f0 	l.sw 0xfffffff0(r2),r4
    543c:	9e 10 00 08 	l.addi r16,r16,0x8
    5440:	bd a3 00 07 	l.sflesi r3,0x7
    5444:	0c 00 00 dc 	l.bnf 57b4 <__vfprintf_r+0x19d8>
    5448:	d7 e2 1f ec 	l.sw 0xffffffec(r2),r3
    544c:	84 62 f9 b4 	l.lwz r3,0xfffff9b4(r2)
    5450:	e0 a3 28 02 	l.sub r5,r3,r5
    5454:	d4 10 90 00 	l.sw 0x0(r16),r18
    5458:	84 62 ff f0 	l.lwz r3,0xfffffff0(r2)
    545c:	e0 83 28 00 	l.add r4,r3,r5
    5460:	d4 10 28 04 	l.sw 0x4(r16),r5
    5464:	84 62 ff ec 	l.lwz r3,0xffffffec(r2)
    5468:	03 ff fb f5 	l.j 443c <__vfprintf_r+0x660>
    546c:	9c 63 00 01 	l.addi r3,r3,0x1
    5470:	8c 7e 00 03 	l.lbz r3,0x3(r30)
    5474:	d8 12 18 00 	l.sb 0x0(r18),r3
    5478:	03 ff fd 0a 	l.j 48a0 <__vfprintf_r+0xac4>
    547c:	9f de 00 04 	l.addi r30,r30,0x4
    5480:	a8 7c 00 00 	l.ori r3,r28,0x0
    5484:	07 ff fa 40 	l.jal 3d84 <___sprint>
    5488:	9c 82 ff e8 	l.addi r4,r2,0xffffffe8
    548c:	bc 0b 00 00 	l.sfeqi r11,0x0
    5490:	0f ff fd fd 	l.bnf 4c84 <__vfprintf_r+0xea8>
    5494:	85 42 f9 b4 	l.lwz r10,0xfffff9b4(r2)
    5498:	03 ff fd c3 	l.j 4ba4 <__vfprintf_r+0xdc8>
    549c:	9e 02 ff a8 	l.addi r16,r2,0xffffffa8
    54a0:	84 7e 00 00 	l.lwz r3,0x0(r30)
    54a4:	9f de 00 04 	l.addi r30,r30,0x4
    54a8:	03 ff fa 93 	l.j 3ef4 <__vfprintf_r+0x118>
    54ac:	d4 03 28 00 	l.sw 0x0(r3),r5
    54b0:	a8 7c 00 00 	l.ori r3,r28,0x0
    54b4:	07 ff fa 34 	l.jal 3d84 <___sprint>
    54b8:	9c 82 ff e8 	l.addi r4,r2,0xffffffe8
    54bc:	bc 0b 00 00 	l.sfeqi r11,0x0
    54c0:	0f ff fd f1 	l.bnf 4c84 <__vfprintf_r+0xea8>
    54c4:	84 a2 f9 b8 	l.lwz r5,0xfffff9b8(r2)
    54c8:	03 ff fe 4b 	l.j 4df4 <__vfprintf_r+0x1018>
    54cc:	9e 02 ff a8 	l.addi r16,r2,0xffffffa8
    54d0:	13 ff fb 2b 	l.bf 417c <__vfprintf_r+0x3a0>
    54d4:	a8 72 00 00 	l.ori r3,r18,0x0
    54d8:	9c 80 00 00 	l.addi r4,r0,0x0
    54dc:	04 00 0b a4 	l.jal 836c <_memchr>
    54e0:	a8 b8 00 00 	l.ori r5,r24,0x0
    54e4:	bc 0b 00 00 	l.sfeqi r11,0x0
    54e8:	13 ff fb 28 	l.bf 4188 <__vfprintf_r+0x3ac>
    54ec:	aa 98 00 00 	l.ori r20,r24,0x0
    54f0:	e2 8b 90 02 	l.sub r20,r11,r18
    54f4:	e5 b4 c0 00 	l.sfles r20,r24
    54f8:	13 ff fb 25 	l.bf 418c <__vfprintf_r+0x3b0>
    54fc:	85 02 f9 80 	l.lwz r8,0xfffff980(r2)
    5500:	03 ff fb 23 	l.j 418c <__vfprintf_r+0x3b0>
    5504:	aa 98 00 00 	l.ori r20,r24,0x0
    5508:	a8 7c 00 00 	l.ori r3,r28,0x0
    550c:	07 ff fa 1e 	l.jal 3d84 <___sprint>
    5510:	9c 82 ff e8 	l.addi r4,r2,0xffffffe8
    5514:	bc 0b 00 00 	l.sfeqi r11,0x0
    5518:	0f ff fd db 	l.bnf 4c84 <__vfprintf_r+0xea8>
    551c:	84 a2 f9 b8 	l.lwz r5,0xfffff9b8(r2)
    5520:	03 ff fe 49 	l.j 4e44 <__vfprintf_r+0x1068>
    5524:	9e 02 ff a8 	l.addi r16,r2,0xffffffa8
    5528:	84 62 f9 88 	l.lwz r3,0xfffff988(r2)
    552c:	84 82 f9 8c 	l.lwz r4,0xfffff98c(r2)
    5530:	ab 5a 01 00 	l.ori r26,r26,0x100
    5534:	bc 36 00 66 	l.sfnei r22,0x66
    5538:	d7 e2 19 70 	l.sw 0xfffff970(r2),r3
    553c:	d7 e2 21 74 	l.sw 0xfffff974(r2),r4
    5540:	10 00 00 e9 	l.bf 58e4 <__vfprintf_r+0x1b08>
    5544:	9c a2 ff fe 	l.addi r5,r2,0xfffffffe
    5548:	9c e0 00 03 	l.addi r7,r0,0x3
    554c:	84 82 f9 70 	l.lwz r4,0xfffff970(r2)
    5550:	bd 64 00 00 	l.sfgesi r4,0x0
    5554:	10 00 00 e1 	l.bf 58d8 <__vfprintf_r+0x1afc>
    5558:	84 c2 f9 74 	l.lwz r6,0xfffff974(r2)
    555c:	19 00 80 00 	l.movhi r8,0x8000
    5560:	a9 08 00 00 	l.ori r8,r8,0x0
    5564:	e0 64 40 05 	l.xor r3,r4,r8
    5568:	9d 00 00 2d 	l.addi r8,r0,0x2d
    556c:	a8 86 00 00 	l.ori r4,r6,0x0
    5570:	d8 05 40 00 	l.sb 0x0(r5),r8
    5574:	d7 e2 19 70 	l.sw 0xfffff970(r2),r3
    5578:	d7 e2 21 74 	l.sw 0xfffff974(r2),r4
    557c:	9c 62 f9 b0 	l.addi r3,r2,0xfffff9b0
    5580:	9c 82 f9 b8 	l.addi r4,r2,0xfffff9b8
    5584:	d4 01 18 04 	l.sw 0x4(r1),r3
    5588:	d4 01 20 00 	l.sw 0x0(r1),r4
    558c:	9c 62 f9 ac 	l.addi r3,r2,0xfffff9ac
    5590:	a9 0c 00 00 	l.ori r8,r12,0x0
    5594:	d4 01 18 08 	l.sw 0x8(r1),r3
    5598:	84 a2 f9 70 	l.lwz r5,0xfffff970(r2)
    559c:	84 c2 f9 74 	l.lwz r6,0xfffff974(r2)
    55a0:	04 00 0c 4f 	l.jal 86dc <__dtoa_r>
    55a4:	84 62 f9 9c 	l.lwz r3,0xfffff99c(r2)
    55a8:	aa 4b 00 00 	l.ori r18,r11,0x0
    55ac:	bc 16 00 67 	l.sfeqi r22,0x67
    55b0:	10 00 00 03 	l.bf 55bc <__vfprintf_r+0x17e0>
    55b4:	9c 80 00 00 	l.addi r4,r0,0x0
    55b8:	9c 80 00 01 	l.addi r4,r0,0x1
    55bc:	bc 16 00 47 	l.sfeqi r22,0x47
    55c0:	10 00 00 03 	l.bf 55cc <__vfprintf_r+0x17f0>
    55c4:	9c 60 00 00 	l.addi r3,r0,0x0
    55c8:	9c 60 00 01 	l.addi r3,r0,0x1
    55cc:	e0 64 18 03 	l.and r3,r4,r3
    55d0:	bc 23 00 00 	l.sfnei r3,0x0
    55d4:	10 00 00 07 	l.bf 55f0 <__vfprintf_r+0x1814>
    55d8:	bc 36 00 66 	l.sfnei r22,0x66
    55dc:	a4 7a 00 01 	l.andi r3,r26,0x1
    55e0:	bc 23 00 00 	l.sfnei r3,0x0
    55e4:	0c 00 00 29 	l.bnf 5688 <__vfprintf_r+0x18ac>
    55e8:	84 62 f9 ac 	l.lwz r3,0xfffff9ac(r2)
    55ec:	bc 36 00 66 	l.sfnei r22,0x66
    55f0:	10 00 00 cc 	l.bf 5920 <__vfprintf_r+0x1b44>
    55f4:	e1 52 60 00 	l.add r10,r18,r12
    55f8:	90 72 00 00 	l.lbs r3,0x0(r18)
    55fc:	bc 23 00 30 	l.sfnei r3,0x30
    5600:	10 00 00 e5 	l.bf 5994 <__vfprintf_r+0x1bb8>
    5604:	15 00 00 00 	l.nop 0x0
    5608:	1a 80 00 01 	l.movhi r20,0x1
    560c:	aa 94 01 94 	l.ori r20,r20,0x194
    5610:	84 62 f9 70 	l.lwz r3,0xfffff970(r2)
    5614:	84 82 f9 74 	l.lwz r4,0xfffff974(r2)
    5618:	84 b4 00 00 	l.lwz r5,0x0(r20)
    561c:	84 d4 00 04 	l.lwz r6,0x4(r20)
    5620:	04 00 22 70 	l.jal dfe0 <___nedf2>
    5624:	15 00 00 00 	l.nop 0x0
    5628:	bc 2b 00 00 	l.sfnei r11,0x0
    562c:	0c 00 00 05 	l.bnf 5640 <__vfprintf_r+0x1864>
    5630:	85 02 f9 b8 	l.lwz r8,0xfffff9b8(r2)
    5634:	9c 60 00 01 	l.addi r3,r0,0x1
    5638:	e1 03 60 02 	l.sub r8,r3,r12
    563c:	d7 e2 41 b8 	l.sw 0xfffff9b8(r2),r8
    5640:	e1 4a 40 00 	l.add r10,r10,r8
    5644:	84 62 f9 70 	l.lwz r3,0xfffff970(r2)
    5648:	84 82 f9 74 	l.lwz r4,0xfffff974(r2)
    564c:	84 b4 00 00 	l.lwz r5,0x0(r20)
    5650:	84 d4 00 04 	l.lwz r6,0x4(r20)
    5654:	04 00 22 40 	l.jal df54 <___eqdf2>
    5658:	15 00 00 00 	l.nop 0x0
    565c:	bc 0b 00 00 	l.sfeqi r11,0x0
    5660:	0c 00 00 04 	l.bnf 5670 <__vfprintf_r+0x1894>
    5664:	84 62 f9 ac 	l.lwz r3,0xfffff9ac(r2)
    5668:	a8 6a 00 00 	l.ori r3,r10,0x0
    566c:	d7 e2 19 ac 	l.sw 0xfffff9ac(r2),r3
    5670:	e4 63 50 00 	l.sfgeu r3,r10
    5674:	10 00 00 05 	l.bf 5688 <__vfprintf_r+0x18ac>
    5678:	9c a0 00 30 	l.addi r5,r0,0x30
    567c:	d8 03 28 00 	l.sb 0x0(r3),r5
    5680:	03 ff ff fb 	l.j 566c <__vfprintf_r+0x1890>
    5684:	9c 63 00 01 	l.addi r3,r3,0x1
    5688:	e0 63 90 02 	l.sub r3,r3,r18
    568c:	9c 80 00 00 	l.addi r4,r0,0x0
    5690:	bc 36 00 67 	l.sfnei r22,0x67
    5694:	10 00 00 03 	l.bf 56a0 <__vfprintf_r+0x18c4>
    5698:	d7 e2 19 b4 	l.sw 0xfffff9b4(r2),r3
    569c:	9c 80 00 01 	l.addi r4,r0,0x1
    56a0:	bc 36 00 47 	l.sfnei r22,0x47
    56a4:	10 00 00 03 	l.bf 56b0 <__vfprintf_r+0x18d4>
    56a8:	9c 60 00 00 	l.addi r3,r0,0x0
    56ac:	9c 60 00 01 	l.addi r3,r0,0x1
    56b0:	e0 64 18 04 	l.or r3,r4,r3
    56b4:	bc 03 00 00 	l.sfeqi r3,0x0
    56b8:	10 00 00 0c 	l.bf 56e8 <__vfprintf_r+0x190c>
    56bc:	84 a2 f9 b8 	l.lwz r5,0xfffff9b8(r2)
    56c0:	bd a5 ff fc 	l.sflesi r5,0xfffffffc
    56c4:	10 00 00 05 	l.bf 56d8 <__vfprintf_r+0x18fc>
    56c8:	bc 36 00 67 	l.sfnei r22,0x67
    56cc:	e5 45 c0 00 	l.sfgts r5,r24
    56d0:	0c 00 00 98 	l.bnf 5930 <__vfprintf_r+0x1b54>
    56d4:	bc 36 00 67 	l.sfnei r22,0x67
    56d8:	10 00 00 03 	l.bf 56e4 <__vfprintf_r+0x1908>
    56dc:	9c 60 00 45 	l.addi r3,r0,0x45
    56e0:	9c 60 00 65 	l.addi r3,r0,0x65
    56e4:	aa c3 00 00 	l.ori r22,r3,0x0
    56e8:	bd 56 00 65 	l.sfgtsi r22,0x65
    56ec:	10 00 00 66 	l.bf 5884 <__vfprintf_r+0x1aa8>
    56f0:	bc 36 00 66 	l.sfnei r22,0x66
    56f4:	9c a5 ff ff 	l.addi r5,r5,0xffffffff
    56f8:	db e2 b7 f4 	l.sb 0xfffffff4(r2),r22
    56fc:	a9 45 00 00 	l.ori r10,r5,0x0
    5700:	9e 82 ff f5 	l.addi r20,r2,0xfffffff5
    5704:	bd 65 00 00 	l.sfgesi r5,0x0
    5708:	10 00 00 95 	l.bf 595c <__vfprintf_r+0x1b80>
    570c:	d7 e2 29 b8 	l.sw 0xfffff9b8(r2),r5
    5710:	9c c0 00 2d 	l.addi r6,r0,0x2d
    5714:	e1 40 28 02 	l.sub r10,r0,r5
    5718:	d8 14 30 00 	l.sb 0x0(r20),r6
    571c:	9f 02 f9 ec 	l.addi r24,r2,0xfffff9ec
    5720:	9e 82 ff f6 	l.addi r20,r2,0xfffffff6
    5724:	bd aa 00 09 	l.sflesi r10,0x9
    5728:	10 00 00 3d 	l.bf 581c <__vfprintf_r+0x1a40>
    572c:	a9 98 00 00 	l.ori r12,r24,0x0
    5730:	a8 6a 00 00 	l.ori r3,r10,0x0
    5734:	9c 80 00 0a 	l.addi r4,r0,0xa
    5738:	04 00 24 19 	l.jal e79c <___modsi3>
    573c:	9d 8c ff ff 	l.addi r12,r12,0xffffffff
    5740:	9d 6b 00 30 	l.addi r11,r11,0x30
    5744:	a8 6a 00 00 	l.ori r3,r10,0x0
    5748:	d8 0c 58 00 	l.sb 0x0(r12),r11
    574c:	04 00 24 2a 	l.jal e7f4 <___divsi3>
    5750:	9c 80 00 0a 	l.addi r4,r0,0xa
    5754:	bd ab 00 09 	l.sflesi r11,0x9
    5758:	0f ff ff f6 	l.bnf 5730 <__vfprintf_r+0x1954>
    575c:	a9 4b 00 00 	l.ori r10,r11,0x0
    5760:	9d 8c ff ff 	l.addi r12,r12,0xffffffff
    5764:	9c 6b 00 30 	l.addi r3,r11,0x30
    5768:	e4 b8 60 00 	l.sfleu r24,r12
    576c:	d8 0c 18 00 	l.sb 0x0(r12),r3
    5770:	10 00 00 32 	l.bf 5838 <__vfprintf_r+0x1a5c>
    5774:	9c a2 ff f4 	l.addi r5,r2,0xfffffff4
    5778:	8c 6c 00 00 	l.lbz r3,0x0(r12)
    577c:	9d 8c 00 01 	l.addi r12,r12,0x1
    5780:	d8 14 18 00 	l.sb 0x0(r20),r3
    5784:	e4 b8 60 00 	l.sfleu r24,r12
    5788:	03 ff ff fa 	l.j 5770 <__vfprintf_r+0x1994>
    578c:	9e 94 00 01 	l.addi r20,r20,0x1
    5790:	a8 7c 00 00 	l.ori r3,r28,0x0
    5794:	07 ff f9 7c 	l.jal 3d84 <___sprint>
    5798:	9c 82 ff e8 	l.addi r4,r2,0xffffffe8
    579c:	bc 0b 00 00 	l.sfeqi r11,0x0
    57a0:	0f ff fd 39 	l.bnf 4c84 <__vfprintf_r+0xea8>
    57a4:	84 a2 f9 b8 	l.lwz r5,0xfffff9b8(r2)
    57a8:	9e 02 ff a8 	l.addi r16,r2,0xffffffa8
    57ac:	03 ff fe 38 	l.j 508c <__vfprintf_r+0x12b0>
    57b0:	85 42 f9 b4 	l.lwz r10,0xfffff9b4(r2)
    57b4:	a8 7c 00 00 	l.ori r3,r28,0x0
    57b8:	07 ff f9 73 	l.jal 3d84 <___sprint>
    57bc:	9c 82 ff e8 	l.addi r4,r2,0xffffffe8
    57c0:	bc 0b 00 00 	l.sfeqi r11,0x0
    57c4:	0f ff fd 30 	l.bnf 4c84 <__vfprintf_r+0xea8>
    57c8:	84 a2 f9 b8 	l.lwz r5,0xfffff9b8(r2)
    57cc:	03 ff ff 20 	l.j 544c <__vfprintf_r+0x1670>
    57d0:	9e 02 ff a8 	l.addi r16,r2,0xffffffa8
    57d4:	a8 7c 00 00 	l.ori r3,r28,0x0
    57d8:	07 ff f9 6b 	l.jal 3d84 <___sprint>
    57dc:	9c 82 ff e8 	l.addi r4,r2,0xffffffe8
    57e0:	bc 0b 00 00 	l.sfeqi r11,0x0
    57e4:	0f ff fd 28 	l.bnf 4c84 <__vfprintf_r+0xea8>
    57e8:	84 a2 f9 b8 	l.lwz r5,0xfffff9b8(r2)
    57ec:	03 ff ff 09 	l.j 5410 <__vfprintf_r+0x1634>
    57f0:	9e 02 ff a8 	l.addi r16,r2,0xffffffa8
    57f4:	a8 94 00 00 	l.ori r4,r20,0x0
    57f8:	a8 d4 00 00 	l.ori r6,r20,0x0
    57fc:	9c a2 f9 a0 	l.addi r5,r2,0xfffff9a0
    5800:	04 00 0a 5d 	l.jal 8174 <__wcsrtombs_r>
    5804:	9c e2 f9 a4 	l.addi r7,r2,0xfffff9a4
    5808:	bc 2b ff ff 	l.sfnei r11,0xffffffff
    580c:	0c 00 00 5e 	l.bnf 5984 <__vfprintf_r+0x1ba8>
    5810:	aa 8b 00 00 	l.ori r20,r11,0x0
    5814:	03 ff fe b5 	l.j 52e8 <__vfprintf_r+0x150c>
    5818:	d7 e2 91 a0 	l.sw 0xfffff9a0(r2),r18
    581c:	9c 60 00 30 	l.addi r3,r0,0x30
    5820:	d8 14 18 00 	l.sb 0x0(r20),r3
    5824:	9e 94 00 01 	l.addi r20,r20,0x1
    5828:	9c 6a 00 30 	l.addi r3,r10,0x30
    582c:	d8 14 18 00 	l.sb 0x0(r20),r3
    5830:	9e 94 00 01 	l.addi r20,r20,0x1
    5834:	9c a2 ff f4 	l.addi r5,r2,0xfffffff4
    5838:	84 82 f9 b4 	l.lwz r4,0xfffff9b4(r2)
    583c:	e0 b4 28 02 	l.sub r5,r20,r5
    5840:	bd 44 00 01 	l.sfgtsi r4,0x1
    5844:	d7 e2 29 84 	l.sw 0xfffff984(r2),r5
    5848:	10 00 00 0d 	l.bf 587c <__vfprintf_r+0x1aa0>
    584c:	e2 85 20 00 	l.add r20,r5,r4
    5850:	a4 7a 00 01 	l.andi r3,r26,0x1
    5854:	bc 23 00 00 	l.sfnei r3,0x0
    5858:	10 00 00 09 	l.bf 587c <__vfprintf_r+0x1aa0>
    585c:	15 00 00 00 	l.nop 0x0
    5860:	90 62 ff fe 	l.lbs r3,0xfffffffe(r2)
    5864:	bc 03 00 00 	l.sfeqi r3,0x0
    5868:	13 ff fa 49 	l.bf 418c <__vfprintf_r+0x3b0>
    586c:	85 02 f9 80 	l.lwz r8,0xfffff980(r2)
    5870:	9c c0 00 2d 	l.addi r6,r0,0x2d
    5874:	03 ff fa 45 	l.j 4188 <__vfprintf_r+0x3ac>
    5878:	db e2 37 ff 	l.sb 0xffffffff(r2),r6
    587c:	03 ff ff f9 	l.j 5860 <__vfprintf_r+0x1a84>
    5880:	9e 94 00 01 	l.addi r20,r20,0x1
    5884:	10 00 00 2d 	l.bf 5938 <__vfprintf_r+0x1b5c>
    5888:	84 82 f9 b4 	l.lwz r4,0xfffff9b4(r2)
    588c:	bd a5 00 00 	l.sflesi r5,0x0
    5890:	10 00 00 51 	l.bf 59d4 <__vfprintf_r+0x1bf8>
    5894:	bc 38 00 00 	l.sfnei r24,0x0
    5898:	10 00 00 06 	l.bf 58b0 <__vfprintf_r+0x1ad4>
    589c:	aa 85 00 00 	l.ori r20,r5,0x0
    58a0:	a4 7a 00 01 	l.andi r3,r26,0x1
    58a4:	bc 23 00 00 	l.sfnei r3,0x0
    58a8:	0f ff ff ef 	l.bnf 5864 <__vfprintf_r+0x1a88>
    58ac:	90 62 ff fe 	l.lbs r3,0xfffffffe(r2)
    58b0:	e0 98 28 00 	l.add r4,r24,r5
    58b4:	03 ff ff eb 	l.j 5860 <__vfprintf_r+0x1a84>
    58b8:	9e 84 00 01 	l.addi r20,r4,0x1
    58bc:	04 00 05 e4 	l.jal 704c <_fflush>
    58c0:	a8 6c 00 00 	l.ori r3,r12,0x0
    58c4:	bc 0b 00 00 	l.sfeqi r11,0x0
    58c8:	13 ff f9 f5 	l.bf 409c <__vfprintf_r+0x2c0>
    58cc:	94 62 fd f8 	l.lhz r3,0xfffffdf8(r2)
    58d0:	03 ff f9 f3 	l.j 409c <__vfprintf_r+0x2c0>
    58d4:	9d 40 ff ff 	l.addi r10,r0,0xffffffff
    58d8:	9c 60 00 00 	l.addi r3,r0,0x0
    58dc:	03 ff ff 28 	l.j 557c <__vfprintf_r+0x17a0>
    58e0:	d8 05 18 00 	l.sb 0x0(r5),r3
    58e4:	bc 36 00 65 	l.sfnei r22,0x65
    58e8:	10 00 00 03 	l.bf 58f4 <__vfprintf_r+0x1b18>
    58ec:	9c 80 00 00 	l.addi r4,r0,0x0
    58f0:	9c 80 00 01 	l.addi r4,r0,0x1
    58f4:	bc 36 00 45 	l.sfnei r22,0x45
    58f8:	10 00 00 03 	l.bf 5904 <__vfprintf_r+0x1b28>
    58fc:	9c 60 00 00 	l.addi r3,r0,0x0
    5900:	9c 60 00 01 	l.addi r3,r0,0x1
    5904:	e0 64 18 04 	l.or r3,r4,r3
    5908:	bc 03 00 00 	l.sfeqi r3,0x0
    590c:	10 00 00 03 	l.bf 5918 <__vfprintf_r+0x1b3c>
    5910:	15 00 00 00 	l.nop 0x0
    5914:	9d 98 00 01 	l.addi r12,r24,0x1
    5918:	03 ff ff 0d 	l.j 554c <__vfprintf_r+0x1770>
    591c:	9c e0 00 02 	l.addi r7,r0,0x2
    5920:	1a 80 00 01 	l.movhi r20,0x1
    5924:	aa 94 01 94 	l.ori r20,r20,0x194
    5928:	03 ff ff 47 	l.j 5644 <__vfprintf_r+0x1868>
    592c:	15 00 00 00 	l.nop 0x0
    5930:	9e c0 00 67 	l.addi r22,r0,0x67
    5934:	84 82 f9 b4 	l.lwz r4,0xfffff9b4(r2)
    5938:	e5 85 20 00 	l.sflts r5,r4
    593c:	10 00 00 1a 	l.bf 59a4 <__vfprintf_r+0x1bc8>
    5940:	bd 45 00 00 	l.sfgtsi r5,0x0
    5944:	a4 7a 00 01 	l.andi r3,r26,0x1
    5948:	bc 03 00 00 	l.sfeqi r3,0x0
    594c:	13 ff ff c5 	l.bf 5860 <__vfprintf_r+0x1a84>
    5950:	aa 85 00 00 	l.ori r20,r5,0x0
    5954:	03 ff ff c3 	l.j 5860 <__vfprintf_r+0x1a84>
    5958:	9e 85 00 01 	l.addi r20,r5,0x1
    595c:	9d 00 00 2b 	l.addi r8,r0,0x2b
    5960:	03 ff ff 6f 	l.j 571c <__vfprintf_r+0x1940>
    5964:	d8 14 40 00 	l.sb 0x0(r20),r8
    5968:	84 62 ff f0 	l.lwz r3,0xfffffff0(r2)
    596c:	bc 03 00 00 	l.sfeqi r3,0x0
    5970:	0c 00 00 12 	l.bnf 59b8 <__vfprintf_r+0x1bdc>
    5974:	a8 7c 00 00 	l.ori r3,r28,0x0
    5978:	9c c0 00 00 	l.addi r6,r0,0x0
    597c:	03 ff fc c2 	l.j 4c84 <__vfprintf_r+0xea8>
    5980:	d7 e2 37 ec 	l.sw 0xffffffec(r2),r6
    5984:	94 7c 00 0c 	l.lhz r3,0xc(r28)
    5988:	a8 63 00 40 	l.ori r3,r3,0x40
    598c:	03 ff fc be 	l.j 4c84 <__vfprintf_r+0xea8>
    5990:	dc 1c 18 0c 	l.sh 0xc(r28),r3
    5994:	1a 80 00 01 	l.movhi r20,0x1
    5998:	aa 94 01 94 	l.ori r20,r20,0x194
    599c:	03 ff ff 29 	l.j 5640 <__vfprintf_r+0x1864>
    59a0:	85 02 f9 b8 	l.lwz r8,0xfffff9b8(r2)
    59a4:	13 ff ff c4 	l.bf 58b4 <__vfprintf_r+0x1ad8>
    59a8:	15 00 00 00 	l.nop 0x0
    59ac:	e0 84 28 02 	l.sub r4,r4,r5
    59b0:	03 ff ff ac 	l.j 5860 <__vfprintf_r+0x1a84>
    59b4:	9e 84 00 02 	l.addi r20,r4,0x2
    59b8:	07 ff f8 f3 	l.jal 3d84 <___sprint>
    59bc:	9c 82 ff e8 	l.addi r4,r2,0xffffffe8
    59c0:	bc 0b 00 00 	l.sfeqi r11,0x0
    59c4:	13 ff ff ee 	l.bf 597c <__vfprintf_r+0x1ba0>
    59c8:	9c c0 00 00 	l.addi r6,r0,0x0
    59cc:	03 ff fc af 	l.j 4c88 <__vfprintf_r+0xeac>
    59d0:	85 02 f9 78 	l.lwz r8,0xfffff978(r2)
    59d4:	13 ff ff a3 	l.bf 5860 <__vfprintf_r+0x1a84>
    59d8:	9e 98 00 02 	l.addi r20,r24,0x2
    59dc:	a4 7a 00 01 	l.andi r3,r26,0x1
    59e0:	bc 23 00 00 	l.sfnei r3,0x0
    59e4:	13 ff ff a0 	l.bf 5864 <__vfprintf_r+0x1a88>
    59e8:	90 62 ff fe 	l.lbs r3,0xfffffffe(r2)
    59ec:	03 ff ff 9e 	l.j 5864 <__vfprintf_r+0x1a88>
    59f0:	9e 80 00 01 	l.addi r20,r0,0x1
    59f4:	87 1e 00 00 	l.lwz r24,0x0(r30)
    59f8:	bd 78 00 00 	l.sfgesi r24,0x0
    59fc:	13 ff fb 40 	l.bf 46fc <__vfprintf_r+0x920>
    5a00:	9f de 00 04 	l.addi r30,r30,0x4
    5a04:	8c 8e 00 00 	l.lbz r4,0x0(r14)
    5a08:	03 ff f9 69 	l.j 3fac <__vfprintf_r+0x1d0>
    5a0c:	9f 00 ff ff 	l.addi r24,r0,0xffffffff
    5a10:	85 21 00 0c 	l.lwz r9,0xc(r1)
    5a14:	84 41 00 10 	l.lwz r2,0x10(r1)
    5a18:	85 41 00 14 	l.lwz r10,0x14(r1)
    5a1c:	85 81 00 18 	l.lwz r12,0x18(r1)
    5a20:	85 c1 00 1c 	l.lwz r14,0x1c(r1)
    5a24:	86 01 00 20 	l.lwz r16,0x20(r1)
    5a28:	86 41 00 24 	l.lwz r18,0x24(r1)
    5a2c:	86 81 00 28 	l.lwz r20,0x28(r1)
    5a30:	86 c1 00 2c 	l.lwz r22,0x2c(r1)
    5a34:	87 01 00 30 	l.lwz r24,0x30(r1)
    5a38:	87 41 00 34 	l.lwz r26,0x34(r1)
    5a3c:	87 81 00 38 	l.lwz r28,0x38(r1)
    5a40:	87 c1 00 3c 	l.lwz r30,0x3c(r1)
    5a44:	44 00 48 00 	l.jr r9
    5a48:	9c 21 06 d0 	l.addi r1,r1,0x6d0

00005a4c <_vfprintf>:
    5a4c:	9c 21 ff f8 	l.addi r1,r1,0xfffffff8
    5a50:	d4 01 10 04 	l.sw 0x4(r1),r2
    5a54:	9c 41 00 08 	l.addi r2,r1,0x8
    5a58:	d4 01 48 00 	l.sw 0x0(r1),r9
    5a5c:	a9 03 00 00 	l.ori r8,r3,0x0
    5a60:	a8 e4 00 00 	l.ori r7,r4,0x0
    5a64:	18 60 00 01 	l.movhi r3,0x1
    5a68:	a8 63 0a a8 	l.ori r3,r3,0xaa8
    5a6c:	a8 c5 00 00 	l.ori r6,r5,0x0
    5a70:	84 63 00 00 	l.lwz r3,0x0(r3)
    5a74:	a8 88 00 00 	l.ori r4,r8,0x0
    5a78:	07 ff f8 d9 	l.jal 3ddc <__vfprintf_r>
    5a7c:	a8 a7 00 00 	l.ori r5,r7,0x0
    5a80:	85 21 00 00 	l.lwz r9,0x0(r1)
    5a84:	84 41 00 04 	l.lwz r2,0x4(r1)
    5a88:	44 00 48 00 	l.jr r9
    5a8c:	9c 21 00 08 	l.addi r1,r1,0x8

00005a90 <___sflags>:
    5a90:	9c 21 ff fc 	l.addi r1,r1,0xfffffffc
    5a94:	d4 01 10 00 	l.sw 0x0(r1),r2
    5a98:	9c 41 00 04 	l.addi r2,r1,0x4
    5a9c:	90 c4 00 00 	l.lbs r6,0x0(r4)
    5aa0:	bc 06 00 72 	l.sfeqi r6,0x72
    5aa4:	10 00 00 0c 	l.bf 5ad4 <___sflags+0x44>
    5aa8:	9d 60 00 04 	l.addi r11,r0,0x4
    5aac:	bd 46 00 72 	l.sfgtsi r6,0x72
    5ab0:	10 00 00 1b 	l.bf 5b1c <___sflags+0x8c>
    5ab4:	bc 06 00 77 	l.sfeqi r6,0x77
    5ab8:	bc 06 00 61 	l.sfeqi r6,0x61
    5abc:	10 00 00 1d 	l.bf 5b30 <___sflags+0xa0>
    5ac0:	9c c0 00 01 	l.addi r6,r0,0x1
    5ac4:	9c 80 00 16 	l.addi r4,r0,0x16
    5ac8:	9d 60 00 00 	l.addi r11,r0,0x0
    5acc:	00 00 00 1c 	l.j 5b3c <___sflags+0xac>
    5ad0:	d4 03 20 00 	l.sw 0x0(r3),r4
    5ad4:	9c c0 00 00 	l.addi r6,r0,0x0
    5ad8:	a8 e6 00 00 	l.ori r7,r6,0x0
    5adc:	90 64 00 01 	l.lbs r3,0x1(r4)
    5ae0:	bc 03 00 00 	l.sfeqi r3,0x0
    5ae4:	0c 00 00 05 	l.bnf 5af8 <___sflags+0x68>
    5ae8:	bc 03 00 2b 	l.sfeqi r3,0x2b
    5aec:	e0 66 38 04 	l.or r3,r6,r7
    5af0:	00 00 00 13 	l.j 5b3c <___sflags+0xac>
    5af4:	d4 05 18 00 	l.sw 0x0(r5),r3
    5af8:	10 00 00 06 	l.bf 5b10 <___sflags+0x80>
    5afc:	15 00 00 00 	l.nop 0x0
    5b00:	90 84 00 02 	l.lbs r4,0x2(r4)
    5b04:	bc 04 00 2b 	l.sfeqi r4,0x2b
    5b08:	0f ff ff fa 	l.bnf 5af0 <___sflags+0x60>
    5b0c:	e0 66 38 04 	l.or r3,r6,r7
    5b10:	9d 60 00 10 	l.addi r11,r0,0x10
    5b14:	03 ff ff f6 	l.j 5aec <___sflags+0x5c>
    5b18:	9c c0 00 02 	l.addi r6,r0,0x2
    5b1c:	0f ff ff ea 	l.bnf 5ac4 <___sflags+0x34>
    5b20:	9c c0 00 01 	l.addi r6,r0,0x1
    5b24:	9d 60 00 08 	l.addi r11,r0,0x8
    5b28:	03 ff ff ed 	l.j 5adc <___sflags+0x4c>
    5b2c:	9c e0 06 00 	l.addi r7,r0,0x600
    5b30:	9d 60 01 08 	l.addi r11,r0,0x108
    5b34:	03 ff ff ea 	l.j 5adc <___sflags+0x4c>
    5b38:	9c e0 02 08 	l.addi r7,r0,0x208
    5b3c:	84 41 00 00 	l.lwz r2,0x0(r1)
    5b40:	44 00 48 00 	l.jr r9
    5b44:	9c 21 00 04 	l.addi r1,r1,0x4

00005b48 <_std>:
    5b48:	9c 21 ff fc 	l.addi r1,r1,0xfffffffc
    5b4c:	d4 01 10 00 	l.sw 0x0(r1),r2
    5b50:	9c 41 00 04 	l.addi r2,r1,0x4
    5b54:	dc 03 20 0c 	l.sh 0xc(r3),r4
    5b58:	18 80 00 00 	l.movhi r4,0x0
    5b5c:	a8 84 61 1c 	l.ori r4,r4,0x611c
    5b60:	dc 03 28 0e 	l.sh 0xe(r3),r5
    5b64:	d4 03 20 2c 	l.sw 0x2c(r3),r4
    5b68:	d4 03 18 1c 	l.sw 0x1c(r3),r3
    5b6c:	9c 80 00 00 	l.addi r4,r0,0x0
    5b70:	d4 03 20 00 	l.sw 0x0(r3),r4
    5b74:	d4 03 20 04 	l.sw 0x4(r3),r4
    5b78:	d4 03 20 08 	l.sw 0x8(r3),r4
    5b7c:	d4 03 20 10 	l.sw 0x10(r3),r4
    5b80:	d4 03 20 14 	l.sw 0x14(r3),r4
    5b84:	d4 03 20 18 	l.sw 0x18(r3),r4
    5b88:	18 80 00 00 	l.movhi r4,0x0
    5b8c:	a8 84 5f 88 	l.ori r4,r4,0x5f88
    5b90:	d4 03 20 20 	l.sw 0x20(r3),r4
    5b94:	18 80 00 00 	l.movhi r4,0x0
    5b98:	a8 84 5f fc 	l.ori r4,r4,0x5ffc
    5b9c:	d4 03 20 24 	l.sw 0x24(r3),r4
    5ba0:	18 80 00 00 	l.movhi r4,0x0
    5ba4:	a8 84 60 ac 	l.ori r4,r4,0x60ac
    5ba8:	d4 03 20 28 	l.sw 0x28(r3),r4
    5bac:	84 41 00 00 	l.lwz r2,0x0(r1)
    5bb0:	44 00 48 00 	l.jr r9
    5bb4:	9c 21 00 04 	l.addi r1,r1,0x4

00005bb8 <___sfmoreglue>:
    5bb8:	9c 21 ff ec 	l.addi r1,r1,0xffffffec
    5bbc:	d4 01 10 04 	l.sw 0x4(r1),r2
    5bc0:	9c 41 00 14 	l.addi r2,r1,0x14
    5bc4:	d4 01 48 00 	l.sw 0x0(r1),r9
    5bc8:	d4 01 50 08 	l.sw 0x8(r1),r10
    5bcc:	d4 01 60 0c 	l.sw 0xc(r1),r12
    5bd0:	d4 01 70 10 	l.sw 0x10(r1),r14
    5bd4:	a9 c4 00 00 	l.ori r14,r4,0x0
    5bd8:	9c 80 00 5c 	l.addi r4,r0,0x5c
    5bdc:	e1 8e 23 06 	l.mul r12,r14,r4
    5be0:	04 00 07 40 	l.jal 78e0 <__malloc_r>
    5be4:	9c 8c 00 0c 	l.addi r4,r12,0xc
    5be8:	9c 80 00 00 	l.addi r4,r0,0x0
    5bec:	9c cb 00 0c 	l.addi r6,r11,0xc
    5bf0:	a9 4b 00 00 	l.ori r10,r11,0x0
    5bf4:	e4 2b 20 00 	l.sfne r11,r4
    5bf8:	a8 ac 00 00 	l.ori r5,r12,0x0
    5bfc:	a8 66 00 00 	l.ori r3,r6,0x0
    5c00:	0c 00 00 08 	l.bnf 5c20 <___sfmoreglue+0x68>
    5c04:	a9 64 00 00 	l.ori r11,r4,0x0
    5c08:	9c e0 00 00 	l.addi r7,r0,0x0
    5c0c:	d4 0a 70 04 	l.sw 0x4(r10),r14
    5c10:	d4 0a 38 00 	l.sw 0x0(r10),r7
    5c14:	04 00 06 c1 	l.jal 7718 <_memset>
    5c18:	d4 0a 30 08 	l.sw 0x8(r10),r6
    5c1c:	a9 6a 00 00 	l.ori r11,r10,0x0
    5c20:	85 21 00 00 	l.lwz r9,0x0(r1)
    5c24:	84 41 00 04 	l.lwz r2,0x4(r1)
    5c28:	85 41 00 08 	l.lwz r10,0x8(r1)
    5c2c:	85 81 00 0c 	l.lwz r12,0xc(r1)
    5c30:	85 c1 00 10 	l.lwz r14,0x10(r1)
    5c34:	44 00 48 00 	l.jr r9
    5c38:	9c 21 00 14 	l.addi r1,r1,0x14

00005c3c <___sfp_lock_acquire>:
    5c3c:	9c 21 ff fc 	l.addi r1,r1,0xfffffffc
    5c40:	d4 01 10 00 	l.sw 0x0(r1),r2
    5c44:	9c 41 00 04 	l.addi r2,r1,0x4
    5c48:	84 41 00 00 	l.lwz r2,0x0(r1)
    5c4c:	44 00 48 00 	l.jr r9
    5c50:	9c 21 00 04 	l.addi r1,r1,0x4

00005c54 <___sinit>:
    5c54:	9c 21 ff f4 	l.addi r1,r1,0xfffffff4
    5c58:	d4 01 10 04 	l.sw 0x4(r1),r2
    5c5c:	9c 41 00 0c 	l.addi r2,r1,0xc
    5c60:	d4 01 48 00 	l.sw 0x0(r1),r9
    5c64:	d4 01 50 08 	l.sw 0x8(r1),r10
    5c68:	a9 43 00 00 	l.ori r10,r3,0x0
    5c6c:	18 c0 00 00 	l.movhi r6,0x0
    5c70:	a8 c6 5e 0c 	l.ori r6,r6,0x5e0c
    5c74:	9c a3 02 ec 	l.addi r5,r3,0x2ec
    5c78:	d4 0a 30 3c 	l.sw 0x3c(r10),r6
    5c7c:	d4 0a 2a e8 	l.sw 0x2e8(r10),r5
    5c80:	9c c0 00 01 	l.addi r6,r0,0x1
    5c84:	9c a0 00 00 	l.addi r5,r0,0x0
    5c88:	d4 0a 30 38 	l.sw 0x38(r10),r6
    5c8c:	84 63 00 04 	l.lwz r3,0x4(r3)
    5c90:	9c c0 00 03 	l.addi r6,r0,0x3
    5c94:	9c 80 00 04 	l.addi r4,r0,0x4
    5c98:	d4 0a 32 e4 	l.sw 0x2e4(r10),r6
    5c9c:	d4 0a 2a e0 	l.sw 0x2e0(r10),r5
    5ca0:	07 ff ff aa 	l.jal 5b48 <_std>
    5ca4:	a8 ca 00 00 	l.ori r6,r10,0x0
    5ca8:	84 6a 00 08 	l.lwz r3,0x8(r10)
    5cac:	9c 80 00 09 	l.addi r4,r0,0x9
    5cb0:	9c a0 00 01 	l.addi r5,r0,0x1
    5cb4:	07 ff ff a5 	l.jal 5b48 <_std>
    5cb8:	a8 ca 00 00 	l.ori r6,r10,0x0
    5cbc:	84 6a 00 0c 	l.lwz r3,0xc(r10)
    5cc0:	a8 ca 00 00 	l.ori r6,r10,0x0
    5cc4:	9c 80 00 0a 	l.addi r4,r0,0xa
    5cc8:	07 ff ff a0 	l.jal 5b48 <_std>
    5ccc:	9c a0 00 02 	l.addi r5,r0,0x2
    5cd0:	85 21 00 00 	l.lwz r9,0x0(r1)
    5cd4:	84 41 00 04 	l.lwz r2,0x4(r1)
    5cd8:	85 41 00 08 	l.lwz r10,0x8(r1)
    5cdc:	44 00 48 00 	l.jr r9
    5ce0:	9c 21 00 0c 	l.addi r1,r1,0xc

00005ce4 <___sfp_lock_release>:
    5ce4:	9c 21 ff fc 	l.addi r1,r1,0xfffffffc
    5ce8:	d4 01 10 00 	l.sw 0x0(r1),r2
    5cec:	9c 41 00 04 	l.addi r2,r1,0x4
    5cf0:	84 41 00 00 	l.lwz r2,0x0(r1)
    5cf4:	44 00 48 00 	l.jr r9
    5cf8:	9c 21 00 04 	l.addi r1,r1,0x4

00005cfc <___sfp>:
    5cfc:	9c 21 ff f0 	l.addi r1,r1,0xfffffff0
    5d00:	d4 01 10 04 	l.sw 0x4(r1),r2
    5d04:	9c 41 00 10 	l.addi r2,r1,0x10
    5d08:	d4 01 48 00 	l.sw 0x0(r1),r9
    5d0c:	d4 01 50 08 	l.sw 0x8(r1),r10
    5d10:	d4 01 60 0c 	l.sw 0xc(r1),r12
    5d14:	a9 83 00 00 	l.ori r12,r3,0x0
    5d18:	18 60 00 01 	l.movhi r3,0x1
    5d1c:	a8 63 01 6c 	l.ori r3,r3,0x16c
    5d20:	85 43 00 00 	l.lwz r10,0x0(r3)
    5d24:	84 6a 00 38 	l.lwz r3,0x38(r10)
    5d28:	bc 23 00 00 	l.sfnei r3,0x0
    5d2c:	0c 00 00 1e 	l.bnf 5da4 <___sfp+0xa8>
    5d30:	15 00 00 00 	l.nop 0x0
    5d34:	9d 4a 02 e0 	l.addi r10,r10,0x2e0
    5d38:	84 8a 00 04 	l.lwz r4,0x4(r10)
    5d3c:	9c 84 ff ff 	l.addi r4,r4,0xffffffff
    5d40:	bd 84 00 00 	l.sfltsi r4,0x0
    5d44:	10 00 00 09 	l.bf 5d68 <___sfp+0x6c>
    5d48:	85 6a 00 08 	l.lwz r11,0x8(r10)
    5d4c:	98 6b 00 0c 	l.lhs r3,0xc(r11)
    5d50:	bc 23 00 00 	l.sfnei r3,0x0
    5d54:	0c 00 00 18 	l.bnf 5db4 <___sfp+0xb8>
    5d58:	9c 84 ff ff 	l.addi r4,r4,0xffffffff
    5d5c:	bd 84 00 00 	l.sfltsi r4,0x0
    5d60:	0f ff ff fb 	l.bnf 5d4c <___sfp+0x50>
    5d64:	9d 6b 00 5c 	l.addi r11,r11,0x5c
    5d68:	85 6a 00 00 	l.lwz r11,0x0(r10)
    5d6c:	bc 2b 00 00 	l.sfnei r11,0x0
    5d70:	0c 00 00 04 	l.bnf 5d80 <___sfp+0x84>
    5d74:	a8 6c 00 00 	l.ori r3,r12,0x0
    5d78:	03 ff ff f0 	l.j 5d38 <___sfp+0x3c>
    5d7c:	a9 4b 00 00 	l.ori r10,r11,0x0
    5d80:	07 ff ff 8e 	l.jal 5bb8 <___sfmoreglue>
    5d84:	9c 80 00 04 	l.addi r4,r0,0x4
    5d88:	bc 2b 00 00 	l.sfnei r11,0x0
    5d8c:	13 ff ff fb 	l.bf 5d78 <___sfp+0x7c>
    5d90:	d4 0a 58 00 	l.sw 0x0(r10),r11
    5d94:	9c 60 00 0c 	l.addi r3,r0,0xc
    5d98:	9d 60 00 00 	l.addi r11,r0,0x0
    5d9c:	00 00 00 16 	l.j 5df4 <___sfp+0xf8>
    5da0:	d4 0c 18 00 	l.sw 0x0(r12),r3
    5da4:	07 ff ff ac 	l.jal 5c54 <___sinit>
    5da8:	a8 6a 00 00 	l.ori r3,r10,0x0
    5dac:	03 ff ff e3 	l.j 5d38 <___sfp+0x3c>
    5db0:	9d 4a 02 e0 	l.addi r10,r10,0x2e0
    5db4:	9c 60 ff ff 	l.addi r3,r0,0xffffffff
    5db8:	dc 0b 18 0e 	l.sh 0xe(r11),r3
    5dbc:	9c 60 00 00 	l.addi r3,r0,0x0
    5dc0:	d4 0b 18 00 	l.sw 0x0(r11),r3
    5dc4:	d4 0b 18 08 	l.sw 0x8(r11),r3
    5dc8:	9c 60 00 01 	l.addi r3,r0,0x1
    5dcc:	dc 0b 18 0c 	l.sh 0xc(r11),r3
    5dd0:	9c 60 00 00 	l.addi r3,r0,0x0
    5dd4:	d4 0b 18 04 	l.sw 0x4(r11),r3
    5dd8:	d4 0b 18 10 	l.sw 0x10(r11),r3
    5ddc:	d4 0b 18 14 	l.sw 0x14(r11),r3
    5de0:	d4 0b 18 18 	l.sw 0x18(r11),r3
    5de4:	d4 0b 18 30 	l.sw 0x30(r11),r3
    5de8:	d4 0b 18 34 	l.sw 0x34(r11),r3
    5dec:	d4 0b 18 44 	l.sw 0x44(r11),r3
    5df0:	d4 0b 18 48 	l.sw 0x48(r11),r3
    5df4:	85 21 00 00 	l.lwz r9,0x0(r1)
    5df8:	84 41 00 04 	l.lwz r2,0x4(r1)
    5dfc:	85 41 00 08 	l.lwz r10,0x8(r1)
    5e00:	85 81 00 0c 	l.lwz r12,0xc(r1)
    5e04:	44 00 48 00 	l.jr r9
    5e08:	9c 21 00 10 	l.addi r1,r1,0x10

00005e0c <__cleanup_r>:
    5e0c:	9c 21 ff f8 	l.addi r1,r1,0xfffffff8
    5e10:	d4 01 10 04 	l.sw 0x4(r1),r2
    5e14:	9c 41 00 08 	l.addi r2,r1,0x8
    5e18:	d4 01 48 00 	l.sw 0x0(r1),r9
    5e1c:	18 80 00 00 	l.movhi r4,0x0
    5e20:	a8 84 3b e4 	l.ori r4,r4,0x3be4
    5e24:	04 00 10 31 	l.jal 9ee8 <__fwalk>
    5e28:	15 00 00 00 	l.nop 0x0
    5e2c:	85 21 00 00 	l.lwz r9,0x0(r1)
    5e30:	84 41 00 04 	l.lwz r2,0x4(r1)
    5e34:	44 00 48 00 	l.jr r9
    5e38:	9c 21 00 08 	l.addi r1,r1,0x8

00005e3c <__cleanup>:
    5e3c:	9c 21 ff f8 	l.addi r1,r1,0xfffffff8
    5e40:	d4 01 10 04 	l.sw 0x4(r1),r2
    5e44:	9c 41 00 08 	l.addi r2,r1,0x8
    5e48:	d4 01 48 00 	l.sw 0x0(r1),r9
    5e4c:	18 60 00 01 	l.movhi r3,0x1
    5e50:	a8 63 01 6c 	l.ori r3,r3,0x16c
    5e54:	07 ff ff ee 	l.jal 5e0c <__cleanup_r>
    5e58:	84 63 00 00 	l.lwz r3,0x0(r3)
    5e5c:	85 21 00 00 	l.lwz r9,0x0(r1)
    5e60:	84 41 00 04 	l.lwz r2,0x4(r1)
    5e64:	44 00 48 00 	l.jr r9
    5e68:	9c 21 00 08 	l.addi r1,r1,0x8

00005e6c <___fp_lock>:
    5e6c:	9c 21 ff fc 	l.addi r1,r1,0xfffffffc
    5e70:	d4 01 10 00 	l.sw 0x0(r1),r2
    5e74:	9c 41 00 04 	l.addi r2,r1,0x4
    5e78:	9d 60 00 00 	l.addi r11,r0,0x0
    5e7c:	84 41 00 00 	l.lwz r2,0x0(r1)
    5e80:	44 00 48 00 	l.jr r9
    5e84:	9c 21 00 04 	l.addi r1,r1,0x4

00005e88 <___fp_unlock>:
    5e88:	9c 21 ff fc 	l.addi r1,r1,0xfffffffc
    5e8c:	d4 01 10 00 	l.sw 0x0(r1),r2
    5e90:	9c 41 00 04 	l.addi r2,r1,0x4
    5e94:	9d 60 00 00 	l.addi r11,r0,0x0
    5e98:	84 41 00 00 	l.lwz r2,0x0(r1)
    5e9c:	44 00 48 00 	l.jr r9
    5ea0:	9c 21 00 04 	l.addi r1,r1,0x4

00005ea4 <___fp_lock_all>:
    5ea4:	9c 21 ff f8 	l.addi r1,r1,0xfffffff8
    5ea8:	d4 01 10 04 	l.sw 0x4(r1),r2
    5eac:	9c 41 00 08 	l.addi r2,r1,0x8
    5eb0:	d4 01 48 00 	l.sw 0x0(r1),r9
    5eb4:	18 60 00 01 	l.movhi r3,0x1
    5eb8:	a8 63 0a a8 	l.ori r3,r3,0xaa8
    5ebc:	18 80 00 00 	l.movhi r4,0x0
    5ec0:	a8 84 5e 6c 	l.ori r4,r4,0x5e6c
    5ec4:	04 00 10 09 	l.jal 9ee8 <__fwalk>
    5ec8:	84 63 00 00 	l.lwz r3,0x0(r3)
    5ecc:	85 21 00 00 	l.lwz r9,0x0(r1)
    5ed0:	84 41 00 04 	l.lwz r2,0x4(r1)
    5ed4:	44 00 48 00 	l.jr r9
    5ed8:	9c 21 00 08 	l.addi r1,r1,0x8

00005edc <___fp_unlock_all>:
    5edc:	9c 21 ff f8 	l.addi r1,r1,0xfffffff8
    5ee0:	d4 01 10 04 	l.sw 0x4(r1),r2
    5ee4:	9c 41 00 08 	l.addi r2,r1,0x8
    5ee8:	d4 01 48 00 	l.sw 0x0(r1),r9
    5eec:	18 60 00 01 	l.movhi r3,0x1
    5ef0:	a8 63 0a a8 	l.ori r3,r3,0xaa8
    5ef4:	18 80 00 00 	l.movhi r4,0x0
    5ef8:	a8 84 5e 88 	l.ori r4,r4,0x5e88
    5efc:	04 00 0f fb 	l.jal 9ee8 <__fwalk>
    5f00:	84 63 00 00 	l.lwz r3,0x0(r3)
    5f04:	85 21 00 00 	l.lwz r9,0x0(r1)
    5f08:	84 41 00 04 	l.lwz r2,0x4(r1)
    5f0c:	44 00 48 00 	l.jr r9
    5f10:	9c 21 00 08 	l.addi r1,r1,0x8

00005f14 <__open_r>:
    5f14:	9c 21 ff e8 	l.addi r1,r1,0xffffffe8
    5f18:	d4 01 10 0c 	l.sw 0xc(r1),r2
    5f1c:	9c 41 00 18 	l.addi r2,r1,0x18
    5f20:	d4 01 48 08 	l.sw 0x8(r1),r9
    5f24:	d4 01 50 10 	l.sw 0x10(r1),r10
    5f28:	d4 01 60 14 	l.sw 0x14(r1),r12
    5f2c:	a9 83 00 00 	l.ori r12,r3,0x0
    5f30:	19 40 00 01 	l.movhi r10,0x1
    5f34:	a9 4a 49 b0 	l.ori r10,r10,0x49b0
    5f38:	9c 60 00 00 	l.addi r3,r0,0x0
    5f3c:	d4 01 28 00 	l.sw 0x0(r1),r5
    5f40:	d4 0a 18 00 	l.sw 0x0(r10),r3
    5f44:	d4 01 30 04 	l.sw 0x4(r1),r6
    5f48:	04 00 1a 86 	l.jal c960 <_open>
    5f4c:	a8 64 00 00 	l.ori r3,r4,0x0
    5f50:	bc 2b ff ff 	l.sfnei r11,0xffffffff
    5f54:	10 00 00 07 	l.bf 5f70 <__open_r+0x5c>
    5f58:	15 00 00 00 	l.nop 0x0
    5f5c:	84 6a 00 00 	l.lwz r3,0x0(r10)
    5f60:	bc 03 00 00 	l.sfeqi r3,0x0
    5f64:	10 00 00 03 	l.bf 5f70 <__open_r+0x5c>
    5f68:	15 00 00 00 	l.nop 0x0
    5f6c:	d4 0c 18 00 	l.sw 0x0(r12),r3
    5f70:	85 21 00 08 	l.lwz r9,0x8(r1)
    5f74:	84 41 00 0c 	l.lwz r2,0xc(r1)
    5f78:	85 41 00 10 	l.lwz r10,0x10(r1)
    5f7c:	85 81 00 14 	l.lwz r12,0x14(r1)
    5f80:	44 00 48 00 	l.jr r9
    5f84:	9c 21 00 18 	l.addi r1,r1,0x18

00005f88 <___sread>:
    5f88:	9c 21 ff f4 	l.addi r1,r1,0xfffffff4
    5f8c:	d4 01 10 04 	l.sw 0x4(r1),r2
    5f90:	9c 41 00 0c 	l.addi r2,r1,0xc
    5f94:	d4 01 48 00 	l.sw 0x0(r1),r9
    5f98:	d4 01 50 08 	l.sw 0x8(r1),r10
    5f9c:	a9 43 00 00 	l.ori r10,r3,0x0
    5fa0:	a8 c5 00 00 	l.ori r6,r5,0x0
    5fa4:	18 60 00 01 	l.movhi r3,0x1
    5fa8:	a8 63 0a a8 	l.ori r3,r3,0xaa8
    5fac:	a8 a4 00 00 	l.ori r5,r4,0x0
    5fb0:	84 63 00 00 	l.lwz r3,0x0(r3)
    5fb4:	04 00 10 3f 	l.jal a0b0 <__read_r>
    5fb8:	98 8a 00 0e 	l.lhs r4,0xe(r10)
    5fbc:	bd 8b 00 00 	l.sfltsi r11,0x0
    5fc0:	10 00 00 06 	l.bf 5fd8 <___sread+0x50>
    5fc4:	15 00 00 00 	l.nop 0x0
    5fc8:	84 6a 00 50 	l.lwz r3,0x50(r10)
    5fcc:	e0 63 58 00 	l.add r3,r3,r11
    5fd0:	00 00 00 06 	l.j 5fe8 <___sread+0x60>
    5fd4:	d4 0a 18 50 	l.sw 0x50(r10),r3
    5fd8:	94 6a 00 0c 	l.lhz r3,0xc(r10)
    5fdc:	9c 80 ef ff 	l.addi r4,r0,0xffffefff
    5fe0:	e0 63 20 03 	l.and r3,r3,r4
    5fe4:	dc 0a 18 0c 	l.sh 0xc(r10),r3
    5fe8:	85 21 00 00 	l.lwz r9,0x0(r1)
    5fec:	84 41 00 04 	l.lwz r2,0x4(r1)
    5ff0:	85 41 00 08 	l.lwz r10,0x8(r1)
    5ff4:	44 00 48 00 	l.jr r9
    5ff8:	9c 21 00 0c 	l.addi r1,r1,0xc

00005ffc <___swrite>:
    5ffc:	9c 21 ff e8 	l.addi r1,r1,0xffffffe8
    6000:	d4 01 10 04 	l.sw 0x4(r1),r2
    6004:	9c 41 00 18 	l.addi r2,r1,0x18
    6008:	d4 01 48 00 	l.sw 0x0(r1),r9
    600c:	d4 01 50 08 	l.sw 0x8(r1),r10
    6010:	d4 01 60 0c 	l.sw 0xc(r1),r12
    6014:	d4 01 70 10 	l.sw 0x10(r1),r14
    6018:	d4 01 80 14 	l.sw 0x14(r1),r16
    601c:	94 e3 00 0c 	l.lhz r7,0xc(r3)
    6020:	a9 43 00 00 	l.ori r10,r3,0x0
    6024:	a9 85 00 00 	l.ori r12,r5,0x0
    6028:	b8 67 00 48 	l.srli r3,r7,0x8
    602c:	9c a0 00 00 	l.addi r5,r0,0x0
    6030:	1a 00 00 01 	l.movhi r16,0x1
    6034:	aa 10 0a a8 	l.ori r16,r16,0xaa8
    6038:	a4 63 00 01 	l.andi r3,r3,0x1
    603c:	9c c0 00 02 	l.addi r6,r0,0x2
    6040:	e4 03 28 00 	l.sfeq r3,r5
    6044:	0c 00 00 06 	l.bnf 605c <___swrite+0x60>
    6048:	a9 c4 00 00 	l.ori r14,r4,0x0
    604c:	1a 00 00 01 	l.movhi r16,0x1
    6050:	aa 10 0a a8 	l.ori r16,r16,0xaa8
    6054:	00 00 00 07 	l.j 6070 <___swrite+0x74>
    6058:	9c 60 ef ff 	l.addi r3,r0,0xffffefff
    605c:	84 70 00 00 	l.lwz r3,0x0(r16)
    6060:	04 00 10 31 	l.jal a124 <__lseek_r>
    6064:	98 8a 00 0e 	l.lhs r4,0xe(r10)
    6068:	94 ea 00 0c 	l.lhz r7,0xc(r10)
    606c:	9c 60 ef ff 	l.addi r3,r0,0xffffefff
    6070:	98 8a 00 0e 	l.lhs r4,0xe(r10)
    6074:	e0 e7 18 03 	l.and r7,r7,r3
    6078:	a8 ae 00 00 	l.ori r5,r14,0x0
    607c:	84 70 00 00 	l.lwz r3,0x0(r16)
    6080:	a8 cc 00 00 	l.ori r6,r12,0x0
    6084:	04 00 10 45 	l.jal a198 <__write_r>
    6088:	dc 0a 38 0c 	l.sh 0xc(r10),r7
    608c:	85 21 00 00 	l.lwz r9,0x0(r1)
    6090:	84 41 00 04 	l.lwz r2,0x4(r1)
    6094:	85 41 00 08 	l.lwz r10,0x8(r1)
    6098:	85 81 00 0c 	l.lwz r12,0xc(r1)
    609c:	85 c1 00 10 	l.lwz r14,0x10(r1)
    60a0:	86 01 00 14 	l.lwz r16,0x14(r1)
    60a4:	44 00 48 00 	l.jr r9
    60a8:	9c 21 00 18 	l.addi r1,r1,0x18

000060ac <___sseek>:
    60ac:	9c 21 ff f4 	l.addi r1,r1,0xfffffff4
    60b0:	d4 01 10 04 	l.sw 0x4(r1),r2
    60b4:	9c 41 00 0c 	l.addi r2,r1,0xc
    60b8:	d4 01 48 00 	l.sw 0x0(r1),r9
    60bc:	d4 01 50 08 	l.sw 0x8(r1),r10
    60c0:	a9 43 00 00 	l.ori r10,r3,0x0
    60c4:	a8 c5 00 00 	l.ori r6,r5,0x0
    60c8:	18 60 00 01 	l.movhi r3,0x1
    60cc:	a8 63 0a a8 	l.ori r3,r3,0xaa8
    60d0:	a8 a4 00 00 	l.ori r5,r4,0x0
    60d4:	84 63 00 00 	l.lwz r3,0x0(r3)
    60d8:	04 00 10 13 	l.jal a124 <__lseek_r>
    60dc:	98 8a 00 0e 	l.lhs r4,0xe(r10)
    60e0:	bc 2b ff ff 	l.sfnei r11,0xffffffff
    60e4:	10 00 00 05 	l.bf 60f8 <___sseek+0x4c>
    60e8:	9c 80 ef ff 	l.addi r4,r0,0xffffefff
    60ec:	94 6a 00 0c 	l.lhz r3,0xc(r10)
    60f0:	00 00 00 05 	l.j 6104 <___sseek+0x58>
    60f4:	e0 63 20 03 	l.and r3,r3,r4
    60f8:	94 6a 00 0c 	l.lhz r3,0xc(r10)
    60fc:	d4 0a 58 50 	l.sw 0x50(r10),r11
    6100:	a8 63 10 00 	l.ori r3,r3,0x1000
    6104:	dc 0a 18 0c 	l.sh 0xc(r10),r3
    6108:	85 21 00 00 	l.lwz r9,0x0(r1)
    610c:	84 41 00 04 	l.lwz r2,0x4(r1)
    6110:	85 41 00 08 	l.lwz r10,0x8(r1)
    6114:	44 00 48 00 	l.jr r9
    6118:	9c 21 00 0c 	l.addi r1,r1,0xc

0000611c <___sclose>:
    611c:	9c 21 ff f8 	l.addi r1,r1,0xfffffff8
    6120:	d4 01 10 04 	l.sw 0x4(r1),r2
    6124:	9c 41 00 08 	l.addi r2,r1,0x8
    6128:	d4 01 48 00 	l.sw 0x0(r1),r9
    612c:	98 83 00 0e 	l.lhs r4,0xe(r3)
    6130:	18 60 00 01 	l.movhi r3,0x1
    6134:	a8 63 0a a8 	l.ori r3,r3,0xaa8
    6138:	04 00 10 35 	l.jal a20c <__close_r>
    613c:	84 63 00 00 	l.lwz r3,0x0(r3)
    6140:	85 21 00 00 	l.lwz r9,0x0(r1)
    6144:	84 41 00 04 	l.lwz r2,0x4(r1)
    6148:	44 00 48 00 	l.jr r9
    614c:	9c 21 00 08 	l.addi r1,r1,0x8

00006150 <__fseek_r>:
    6150:	9c 21 ff 98 	l.addi r1,r1,0xffffff98
    6154:	d4 01 10 04 	l.sw 0x4(r1),r2
    6158:	9c 41 00 68 	l.addi r2,r1,0x68
    615c:	d4 01 48 00 	l.sw 0x0(r1),r9
    6160:	d4 01 50 08 	l.sw 0x8(r1),r10
    6164:	d4 01 60 0c 	l.sw 0xc(r1),r12
    6168:	d4 01 70 10 	l.sw 0x10(r1),r14
    616c:	d4 01 80 14 	l.sw 0x14(r1),r16
    6170:	d4 01 90 18 	l.sw 0x18(r1),r18
    6174:	d4 01 a0 1c 	l.sw 0x1c(r1),r20
    6178:	d4 01 b0 20 	l.sw 0x20(r1),r22
    617c:	d4 01 c0 24 	l.sw 0x24(r1),r24
    6180:	d4 01 d0 28 	l.sw 0x28(r1),r26
    6184:	1b 40 00 01 	l.movhi r26,0x1
    6188:	ab 5a 0a a8 	l.ori r26,r26,0xaa8
    618c:	a9 83 00 00 	l.ori r12,r3,0x0
    6190:	9e 00 00 00 	l.addi r16,r0,0x0
    6194:	84 7a 00 00 	l.lwz r3,0x0(r26)
    6198:	a9 44 00 00 	l.ori r10,r4,0x0
    619c:	aa c5 00 00 	l.ori r22,r5,0x0
    61a0:	e4 03 80 00 	l.sfeq r3,r16
    61a4:	10 00 00 06 	l.bf 61bc <__fseek_r+0x6c>
    61a8:	a9 c6 00 00 	l.ori r14,r6,0x0
    61ac:	84 83 00 38 	l.lwz r4,0x38(r3)
    61b0:	e4 24 80 00 	l.sfne r4,r16
    61b4:	0c 00 00 bf 	l.bnf 64b0 <__fseek_r+0x360>
    61b8:	15 00 00 00 	l.nop 0x0
    61bc:	94 8a 00 0c 	l.lhz r4,0xc(r10)
    61c0:	b8 64 00 48 	l.srli r3,r4,0x8
    61c4:	a4 63 00 01 	l.andi r3,r3,0x1
    61c8:	bc 03 00 00 	l.sfeqi r3,0x0
    61cc:	10 00 00 06 	l.bf 61e4 <__fseek_r+0x94>
    61d0:	b8 64 00 43 	l.srli r3,r4,0x3
    61d4:	a4 63 00 01 	l.andi r3,r3,0x1
    61d8:	bc 03 00 00 	l.sfeqi r3,0x0
    61dc:	0c 00 00 b9 	l.bnf 64c0 <__fseek_r+0x370>
    61e0:	15 00 00 00 	l.nop 0x0
    61e4:	86 4a 00 28 	l.lwz r18,0x28(r10)
    61e8:	bc 32 00 00 	l.sfnei r18,0x0
    61ec:	0c 00 01 14 	l.bnf 663c <__fseek_r+0x4ec>
    61f0:	bc 0e 00 01 	l.sfeqi r14,0x1
    61f4:	10 00 00 44 	l.bf 6304 <__fseek_r+0x1b4>
    61f8:	bd 4e 00 01 	l.sfgtsi r14,0x1
    61fc:	10 00 00 08 	l.bf 621c <__fseek_r+0xcc>
    6200:	bc 0e 00 02 	l.sfeqi r14,0x2
    6204:	bc 0e 00 00 	l.sfeqi r14,0x0
    6208:	10 00 00 07 	l.bf 6224 <__fseek_r+0xd4>
    620c:	9c 80 00 16 	l.addi r4,r0,0x16
    6210:	d4 0c 20 00 	l.sw 0x0(r12),r4
    6214:	00 00 01 1e 	l.j 668c <__fseek_r+0x53c>
    6218:	9d 60 ff ff 	l.addi r11,r0,0xffffffff
    621c:	0f ff ff fd 	l.bnf 6210 <__fseek_r+0xc0>
    6220:	9c 80 00 16 	l.addi r4,r0,0x16
    6224:	84 ca 00 10 	l.lwz r6,0x10(r10)
    6228:	bc 26 00 00 	l.sfnei r6,0x0
    622c:	0c 00 00 52 	l.bnf 6374 <__fseek_r+0x224>
    6230:	9f 00 00 00 	l.addi r24,r0,0x0
    6234:	94 aa 00 0c 	l.lhz r5,0xc(r10)
    6238:	a4 85 ff ff 	l.andi r4,r5,0xffff
    623c:	a4 64 08 1a 	l.andi r3,r4,0x81a
    6240:	bc 03 00 00 	l.sfeqi r3,0x0
    6244:	0c 00 00 12 	l.bnf 628c <__fseek_r+0x13c>
    6248:	b8 64 00 4a 	l.srli r3,r4,0xa
    624c:	ac 63 00 01 	l.xori r3,r3,0x1
    6250:	a4 63 00 01 	l.andi r3,r3,0x1
    6254:	bc 03 00 00 	l.sfeqi r3,0x0
    6258:	10 00 00 5b 	l.bf 63c4 <__fseek_r+0x274>
    625c:	bc 2e 00 00 	l.sfnei r14,0x0
    6260:	18 60 00 00 	l.movhi r3,0x0
    6264:	a8 63 60 ac 	l.ori r3,r3,0x60ac
    6268:	e4 32 18 00 	l.sfne r18,r3
    626c:	10 00 00 06 	l.bf 6284 <__fseek_r+0x134>
    6270:	15 00 00 00 	l.nop 0x0
    6274:	98 8a 00 0e 	l.lhs r4,0xe(r10)
    6278:	bd 84 00 00 	l.sfltsi r4,0x0
    627c:	0c 00 00 42 	l.bnf 6384 <__fseek_r+0x234>
    6280:	15 00 00 00 	l.nop 0x0
    6284:	a8 65 08 00 	l.ori r3,r5,0x800
    6288:	dc 0a 18 0c 	l.sh 0xc(r10),r3
    628c:	04 00 03 70 	l.jal 704c <_fflush>
    6290:	a8 6a 00 00 	l.ori r3,r10,0x0
    6294:	bc 2b 00 00 	l.sfnei r11,0x0
    6298:	13 ff ff df 	l.bf 6214 <__fseek_r+0xc4>
    629c:	a8 96 00 00 	l.ori r4,r22,0x0
    62a0:	84 6a 00 1c 	l.lwz r3,0x1c(r10)
    62a4:	48 00 90 00 	l.jalr r18
    62a8:	a8 ae 00 00 	l.ori r5,r14,0x0
    62ac:	bc 0b ff ff 	l.sfeqi r11,0xffffffff
    62b0:	13 ff ff d9 	l.bf 6214 <__fseek_r+0xc4>
    62b4:	15 00 00 00 	l.nop 0x0
    62b8:	84 8a 00 30 	l.lwz r4,0x30(r10)
    62bc:	bc 04 00 00 	l.sfeqi r4,0x0
    62c0:	10 00 00 07 	l.bf 62dc <__fseek_r+0x18c>
    62c4:	9c 6a 00 40 	l.addi r3,r10,0x40
    62c8:	e4 04 18 00 	l.sfeq r4,r3
    62cc:	0c 00 00 e7 	l.bnf 6668 <__fseek_r+0x518>
    62d0:	15 00 00 00 	l.nop 0x0
    62d4:	9c 60 00 00 	l.addi r3,r0,0x0
    62d8:	d4 0a 18 30 	l.sw 0x30(r10),r3
    62dc:	84 8a 00 10 	l.lwz r4,0x10(r10)
    62e0:	d4 0a 20 00 	l.sw 0x0(r10),r4
    62e4:	94 6a 00 0c 	l.lhz r3,0xc(r10)
    62e8:	9c 80 00 00 	l.addi r4,r0,0x0
    62ec:	d4 0a 20 04 	l.sw 0x4(r10),r4
    62f0:	9c 80 ff df 	l.addi r4,r0,0xffffffdf
    62f4:	e0 63 20 03 	l.and r3,r3,r4
    62f8:	9d 60 00 00 	l.addi r11,r0,0x0
    62fc:	00 00 00 e4 	l.j 668c <__fseek_r+0x53c>
    6300:	dc 0a 18 0c 	l.sh 0xc(r10),r3
    6304:	04 00 03 52 	l.jal 704c <_fflush>
    6308:	a8 6a 00 00 	l.ori r3,r10,0x0
    630c:	94 aa 00 0c 	l.lhz r5,0xc(r10)
    6310:	b8 65 00 4c 	l.srli r3,r5,0xc
    6314:	a4 63 00 01 	l.andi r3,r3,0x1
    6318:	bc 03 00 00 	l.sfeqi r3,0x0
    631c:	10 00 00 ab 	l.bf 65c8 <__fseek_r+0x478>
    6320:	9c 80 00 00 	l.addi r4,r0,0x0
    6324:	86 0a 00 50 	l.lwz r16,0x50(r10)
    6328:	a4 85 ff ff 	l.andi r4,r5,0xffff
    632c:	b8 64 00 42 	l.srli r3,r4,0x2
    6330:	a4 63 00 01 	l.andi r3,r3,0x1
    6334:	bc 03 00 00 	l.sfeqi r3,0x0
    6338:	10 00 00 66 	l.bf 64d0 <__fseek_r+0x380>
    633c:	b8 64 00 43 	l.srli r3,r4,0x3
    6340:	84 6a 00 04 	l.lwz r3,0x4(r10)
    6344:	84 ea 00 30 	l.lwz r7,0x30(r10)
    6348:	bc 07 00 00 	l.sfeqi r7,0x0
    634c:	10 00 00 76 	l.bf 6524 <__fseek_r+0x3d4>
    6350:	e2 10 18 02 	l.sub r16,r16,r3
    6354:	84 6a 00 3c 	l.lwz r3,0x3c(r10)
    6358:	84 ca 00 10 	l.lwz r6,0x10(r10)
    635c:	e2 10 18 02 	l.sub r16,r16,r3
    6360:	e2 d6 80 00 	l.add r22,r22,r16
    6364:	9d c0 00 00 	l.addi r14,r0,0x0
    6368:	bc 26 00 00 	l.sfnei r6,0x0
    636c:	13 ff ff b2 	l.bf 6234 <__fseek_r+0xe4>
    6370:	9f 00 00 01 	l.addi r24,r0,0x1
    6374:	04 00 0f c1 	l.jal a278 <___smakebuf>
    6378:	a8 6a 00 00 	l.ori r3,r10,0x0
    637c:	03 ff ff af 	l.j 6238 <__fseek_r+0xe8>
    6380:	94 aa 00 0c 	l.lhz r5,0xc(r10)
    6384:	a8 6c 00 00 	l.ori r3,r12,0x0
    6388:	04 00 10 27 	l.jal a424 <__fstat_r>
    638c:	9c a2 ff c4 	l.addi r5,r2,0xffffffc4
    6390:	bc 2b 00 00 	l.sfnei r11,0x0
    6394:	10 00 00 a4 	l.bf 6624 <__fseek_r+0x4d4>
    6398:	a8 80 80 00 	l.ori r4,r0,0x8000
    639c:	84 62 ff c8 	l.lwz r3,0xffffffc8(r2)
    63a0:	a4 63 f0 00 	l.andi r3,r3,0xf000
    63a4:	e4 23 20 00 	l.sfne r3,r4
    63a8:	10 00 00 9f 	l.bf 6624 <__fseek_r+0x4d4>
    63ac:	9c 80 04 00 	l.addi r4,r0,0x400
    63b0:	94 6a 00 0c 	l.lhz r3,0xc(r10)
    63b4:	e0 63 20 04 	l.or r3,r3,r4
    63b8:	d4 0a 20 4c 	l.sw 0x4c(r10),r4
    63bc:	dc 0a 18 0c 	l.sh 0xc(r10),r3
    63c0:	bc 2e 00 00 	l.sfnei r14,0x0
    63c4:	10 00 00 4f 	l.bf 6500 <__fseek_r+0x3b0>
    63c8:	aa 96 00 00 	l.ori r20,r22,0x0
    63cc:	bc 38 00 00 	l.sfnei r24,0x0
    63d0:	10 00 00 7a 	l.bf 65b8 <__fseek_r+0x468>
    63d4:	15 00 00 00 	l.nop 0x0
    63d8:	94 aa 00 0c 	l.lhz r5,0xc(r10)
    63dc:	b8 65 00 4c 	l.srli r3,r5,0xc
    63e0:	a4 63 00 01 	l.andi r3,r3,0x1
    63e4:	bc 03 00 00 	l.sfeqi r3,0x0
    63e8:	10 00 00 98 	l.bf 6648 <__fseek_r+0x4f8>
    63ec:	9c 80 00 00 	l.addi r4,r0,0x0
    63f0:	86 0a 00 50 	l.lwz r16,0x50(r10)
    63f4:	84 6a 00 04 	l.lwz r3,0x4(r10)
    63f8:	84 ea 00 30 	l.lwz r7,0x30(r10)
    63fc:	bc 07 00 00 	l.sfeqi r7,0x0
    6400:	10 00 00 6a 	l.bf 65a8 <__fseek_r+0x458>
    6404:	e2 10 18 02 	l.sub r16,r16,r3
    6408:	84 8a 00 3c 	l.lwz r4,0x3c(r10)
    640c:	e2 10 20 02 	l.sub r16,r16,r4
    6410:	bc 07 00 00 	l.sfeqi r7,0x0
    6414:	10 00 00 65 	l.bf 65a8 <__fseek_r+0x458>
    6418:	15 00 00 00 	l.nop 0x0
    641c:	84 8a 00 38 	l.lwz r4,0x38(r10)
    6420:	e2 10 18 00 	l.add r16,r16,r3
    6424:	84 ca 00 10 	l.lwz r6,0x10(r10)
    6428:	84 6a 00 3c 	l.lwz r3,0x3c(r10)
    642c:	e1 84 30 02 	l.sub r12,r4,r6
    6430:	e2 10 60 02 	l.sub r16,r16,r12
    6434:	9c 80 00 00 	l.addi r4,r0,0x0
    6438:	e1 8c 18 00 	l.add r12,r12,r3
    643c:	e5 94 80 00 	l.sflts r20,r16
    6440:	a4 65 ff ff 	l.andi r3,r5,0xffff
    6444:	b8 63 00 4d 	l.srli r3,r3,0xd
    6448:	ac 63 00 01 	l.xori r3,r3,0x1
    644c:	10 00 00 03 	l.bf 6458 <__fseek_r+0x308>
    6450:	a4 63 00 01 	l.andi r3,r3,0x1
    6454:	9c 80 00 01 	l.addi r4,r0,0x1
    6458:	e0 63 20 03 	l.and r3,r3,r4
    645c:	bc 03 00 00 	l.sfeqi r3,0x0
    6460:	10 00 00 33 	l.bf 652c <__fseek_r+0x3dc>
    6464:	e0 70 60 00 	l.add r3,r16,r12
    6468:	e4 74 18 00 	l.sfgeu r20,r3
    646c:	10 00 00 30 	l.bf 652c <__fseek_r+0x3dc>
    6470:	bc 07 00 00 	l.sfeqi r7,0x0
    6474:	e0 94 80 02 	l.sub r4,r20,r16
    6478:	e0 6c 20 02 	l.sub r3,r12,r4
    647c:	e0 86 20 00 	l.add r4,r6,r4
    6480:	d4 0a 18 04 	l.sw 0x4(r10),r3
    6484:	10 00 00 08 	l.bf 64a4 <__fseek_r+0x354>
    6488:	d4 0a 20 00 	l.sw 0x0(r10),r4
    648c:	9c 6a 00 40 	l.addi r3,r10,0x40
    6490:	e4 07 18 00 	l.sfeq r7,r3
    6494:	0c 00 00 79 	l.bnf 6678 <__fseek_r+0x528>
    6498:	15 00 00 00 	l.nop 0x0
    649c:	9c 60 00 00 	l.addi r3,r0,0x0
    64a0:	d4 0a 18 30 	l.sw 0x30(r10),r3
    64a4:	9c 80 ff df 	l.addi r4,r0,0xffffffdf
    64a8:	03 ff ff 94 	l.j 62f8 <__fseek_r+0x1a8>
    64ac:	e0 65 20 03 	l.and r3,r5,r4
    64b0:	07 ff fd e9 	l.jal 5c54 <___sinit>
    64b4:	15 00 00 00 	l.nop 0x0
    64b8:	03 ff ff 42 	l.j 61c0 <__fseek_r+0x70>
    64bc:	94 8a 00 0c 	l.lhz r4,0xc(r10)
    64c0:	04 00 02 e3 	l.jal 704c <_fflush>
    64c4:	a8 6a 00 00 	l.ori r3,r10,0x0
    64c8:	03 ff ff 48 	l.j 61e8 <__fseek_r+0x98>
    64cc:	86 4a 00 28 	l.lwz r18,0x28(r10)
    64d0:	a4 63 00 01 	l.andi r3,r3,0x1
    64d4:	bc 03 00 00 	l.sfeqi r3,0x0
    64d8:	10 00 00 13 	l.bf 6524 <__fseek_r+0x3d4>
    64dc:	15 00 00 00 	l.nop 0x0
    64e0:	84 6a 00 00 	l.lwz r3,0x0(r10)
    64e4:	bc 03 00 00 	l.sfeqi r3,0x0
    64e8:	10 00 00 0f 	l.bf 6524 <__fseek_r+0x3d4>
    64ec:	15 00 00 00 	l.nop 0x0
    64f0:	84 ca 00 10 	l.lwz r6,0x10(r10)
    64f4:	e0 63 30 02 	l.sub r3,r3,r6
    64f8:	03 ff ff 9a 	l.j 6360 <__fseek_r+0x210>
    64fc:	e2 10 18 00 	l.add r16,r16,r3
    6500:	98 8a 00 0e 	l.lhs r4,0xe(r10)
    6504:	a8 6c 00 00 	l.ori r3,r12,0x0
    6508:	04 00 0f c7 	l.jal a424 <__fstat_r>
    650c:	9c a2 ff c4 	l.addi r5,r2,0xffffffc4
    6510:	bc 0b 00 00 	l.sfeqi r11,0x0
    6514:	0f ff ff 5e 	l.bnf 628c <__fseek_r+0x13c>
    6518:	84 62 ff d4 	l.lwz r3,0xffffffd4(r2)
    651c:	03 ff ff ac 	l.j 63cc <__fseek_r+0x27c>
    6520:	e2 83 b0 00 	l.add r20,r3,r22
    6524:	03 ff ff 8f 	l.j 6360 <__fseek_r+0x210>
    6528:	84 ca 00 10 	l.lwz r6,0x10(r10)
    652c:	84 6a 00 4c 	l.lwz r3,0x4c(r10)
    6530:	9c a0 00 00 	l.addi r5,r0,0x0
    6534:	e0 80 18 02 	l.sub r4,r0,r3
    6538:	e2 04 a0 03 	l.and r16,r4,r20
    653c:	84 6a 00 1c 	l.lwz r3,0x1c(r10)
    6540:	48 00 90 00 	l.jalr r18
    6544:	a8 90 00 00 	l.ori r4,r16,0x0
    6548:	bc 2b ff ff 	l.sfnei r11,0xffffffff
    654c:	0f ff ff 50 	l.bnf 628c <__fseek_r+0x13c>
    6550:	9c 60 00 00 	l.addi r3,r0,0x0
    6554:	84 8a 00 30 	l.lwz r4,0x30(r10)
    6558:	d4 0a 18 04 	l.sw 0x4(r10),r3
    655c:	bc 04 00 00 	l.sfeqi r4,0x0
    6560:	84 6a 00 10 	l.lwz r3,0x10(r10)
    6564:	10 00 00 08 	l.bf 6584 <__fseek_r+0x434>
    6568:	d4 0a 18 00 	l.sw 0x0(r10),r3
    656c:	9c 6a 00 40 	l.addi r3,r10,0x40
    6570:	e4 04 18 00 	l.sfeq r4,r3
    6574:	0c 00 00 2e 	l.bnf 662c <__fseek_r+0x4dc>
    6578:	15 00 00 00 	l.nop 0x0
    657c:	9c 80 00 00 	l.addi r4,r0,0x0
    6580:	d4 0a 20 30 	l.sw 0x30(r10),r4
    6584:	94 6a 00 0c 	l.lhz r3,0xc(r10)
    6588:	9c 80 ff df 	l.addi r4,r0,0xffffffdf
    658c:	e1 94 80 02 	l.sub r12,r20,r16
    6590:	e0 63 20 03 	l.and r3,r3,r4
    6594:	bc 0c 00 00 	l.sfeqi r12,0x0
    6598:	0c 00 00 14 	l.bnf 65e8 <__fseek_r+0x498>
    659c:	dc 0a 18 0c 	l.sh 0xc(r10),r3
    65a0:	00 00 00 3b 	l.j 668c <__fseek_r+0x53c>
    65a4:	9d 60 00 00 	l.addi r11,r0,0x0
    65a8:	84 8a 00 00 	l.lwz r4,0x0(r10)
    65ac:	84 ca 00 10 	l.lwz r6,0x10(r10)
    65b0:	03 ff ff a0 	l.j 6430 <__fseek_r+0x2e0>
    65b4:	e1 84 30 02 	l.sub r12,r4,r6
    65b8:	94 aa 00 0c 	l.lhz r5,0xc(r10)
    65bc:	84 6a 00 04 	l.lwz r3,0x4(r10)
    65c0:	03 ff ff 94 	l.j 6410 <__fseek_r+0x2c0>
    65c4:	84 ea 00 30 	l.lwz r7,0x30(r10)
    65c8:	84 6a 00 1c 	l.lwz r3,0x1c(r10)
    65cc:	48 00 90 00 	l.jalr r18
    65d0:	9c a0 00 01 	l.addi r5,r0,0x1
    65d4:	bc 2b ff ff 	l.sfnei r11,0xffffffff
    65d8:	0f ff ff 0f 	l.bnf 6214 <__fseek_r+0xc4>
    65dc:	aa 0b 00 00 	l.ori r16,r11,0x0
    65e0:	03 ff ff 52 	l.j 6328 <__fseek_r+0x1d8>
    65e4:	94 aa 00 0c 	l.lhz r5,0xc(r10)
    65e8:	04 00 0f ba 	l.jal a4d0 <___srefill>
    65ec:	a8 6a 00 00 	l.ori r3,r10,0x0
    65f0:	bc 2b 00 00 	l.sfnei r11,0x0
    65f4:	13 ff ff 26 	l.bf 628c <__fseek_r+0x13c>
    65f8:	15 00 00 00 	l.nop 0x0
    65fc:	84 6a 00 04 	l.lwz r3,0x4(r10)
    6600:	e4 83 60 00 	l.sfltu r3,r12
    6604:	13 ff ff 22 	l.bf 628c <__fseek_r+0x13c>
    6608:	e0 83 60 02 	l.sub r4,r3,r12
    660c:	84 aa 00 00 	l.lwz r5,0x0(r10)
    6610:	9d 60 00 00 	l.addi r11,r0,0x0
    6614:	e0 65 60 00 	l.add r3,r5,r12
    6618:	d4 0a 20 04 	l.sw 0x4(r10),r4
    661c:	00 00 00 1c 	l.j 668c <__fseek_r+0x53c>
    6620:	d4 0a 18 00 	l.sw 0x0(r10),r3
    6624:	03 ff ff 18 	l.j 6284 <__fseek_r+0x134>
    6628:	94 aa 00 0c 	l.lhz r5,0xc(r10)
    662c:	04 00 01 c4 	l.jal 6d3c <__free_r>
    6630:	84 7a 00 00 	l.lwz r3,0x0(r26)
    6634:	03 ff ff d3 	l.j 6580 <__fseek_r+0x430>
    6638:	9c 80 00 00 	l.addi r4,r0,0x0
    663c:	9c 60 00 1d 	l.addi r3,r0,0x1d
    6640:	03 ff fe f5 	l.j 6214 <__fseek_r+0xc4>
    6644:	d4 0c 18 00 	l.sw 0x0(r12),r3
    6648:	84 6a 00 1c 	l.lwz r3,0x1c(r10)
    664c:	48 00 90 00 	l.jalr r18
    6650:	9c a0 00 01 	l.addi r5,r0,0x1
    6654:	bc 2b ff ff 	l.sfnei r11,0xffffffff
    6658:	0f ff ff 0d 	l.bnf 628c <__fseek_r+0x13c>
    665c:	aa 0b 00 00 	l.ori r16,r11,0x0
    6660:	03 ff ff 65 	l.j 63f4 <__fseek_r+0x2a4>
    6664:	94 aa 00 0c 	l.lhz r5,0xc(r10)
    6668:	04 00 01 b5 	l.jal 6d3c <__free_r>
    666c:	84 7a 00 00 	l.lwz r3,0x0(r26)
    6670:	03 ff ff 1a 	l.j 62d8 <__fseek_r+0x188>
    6674:	9c 60 00 00 	l.addi r3,r0,0x0
    6678:	84 7a 00 00 	l.lwz r3,0x0(r26)
    667c:	04 00 01 b0 	l.jal 6d3c <__free_r>
    6680:	a8 87 00 00 	l.ori r4,r7,0x0
    6684:	03 ff ff 86 	l.j 649c <__fseek_r+0x34c>
    6688:	94 aa 00 0c 	l.lhz r5,0xc(r10)
    668c:	85 21 00 00 	l.lwz r9,0x0(r1)
    6690:	84 41 00 04 	l.lwz r2,0x4(r1)
    6694:	85 41 00 08 	l.lwz r10,0x8(r1)
    6698:	85 81 00 0c 	l.lwz r12,0xc(r1)
    669c:	85 c1 00 10 	l.lwz r14,0x10(r1)
    66a0:	86 01 00 14 	l.lwz r16,0x14(r1)
    66a4:	86 41 00 18 	l.lwz r18,0x18(r1)
    66a8:	86 81 00 1c 	l.lwz r20,0x1c(r1)
    66ac:	86 c1 00 20 	l.lwz r22,0x20(r1)
    66b0:	87 01 00 24 	l.lwz r24,0x24(r1)
    66b4:	87 41 00 28 	l.lwz r26,0x28(r1)
    66b8:	44 00 48 00 	l.jr r9
    66bc:	9c 21 00 68 	l.addi r1,r1,0x68

000066c0 <_fseek>:
    66c0:	9c 21 ff f8 	l.addi r1,r1,0xfffffff8
    66c4:	d4 01 10 04 	l.sw 0x4(r1),r2
    66c8:	9c 41 00 08 	l.addi r2,r1,0x8
    66cc:	d4 01 48 00 	l.sw 0x0(r1),r9
    66d0:	a9 03 00 00 	l.ori r8,r3,0x0
    66d4:	a8 e4 00 00 	l.ori r7,r4,0x0
    66d8:	18 60 00 01 	l.movhi r3,0x1
    66dc:	a8 63 0a a8 	l.ori r3,r3,0xaa8
    66e0:	a8 c5 00 00 	l.ori r6,r5,0x0
    66e4:	84 63 00 00 	l.lwz r3,0x0(r3)
    66e8:	a8 88 00 00 	l.ori r4,r8,0x0
    66ec:	07 ff fe 99 	l.jal 6150 <__fseek_r>
    66f0:	a8 a7 00 00 	l.ori r5,r7,0x0
    66f4:	85 21 00 00 	l.lwz r9,0x0(r1)
    66f8:	84 41 00 04 	l.lwz r2,0x4(r1)
    66fc:	44 00 48 00 	l.jr r9
    6700:	9c 21 00 08 	l.addi r1,r1,0x8

00006704 <___sfvwrite>:
    6704:	9c 21 ff d8 	l.addi r1,r1,0xffffffd8
    6708:	d4 01 10 04 	l.sw 0x4(r1),r2
    670c:	9c 41 00 28 	l.addi r2,r1,0x28
    6710:	d4 01 48 00 	l.sw 0x0(r1),r9
